Certificate:
    Data:
        Version: 3 (0x2)
        Serial Number: 4 (0x4)
        Signature Algorithm: sha256WithRSAEncryption
        Issuer: C=US, ST=California, L=Mountain View, O=Test CA, CN=Test Root CA
        Validity
            Not Before: Jun  1 00:00:00 2019 GMT
            Not After : Aug 30 00:00:00 2019 GMT
        Subject: CN=test.example.org, O=Test, C=US
        Subject Public Key Info:
            Public Key Algorithm: id-ecPublicKey
                Public-Key: (256 bit)
                pub:
                    04:48:a2:35:4e:57:f1:45:7c:1d:8d:1e:f3:de:6a:
                    d0:81:01:c0:4a:87:14:92:cc:28:11:fa:bf:a4:51:
                    dc:76:48:a1:24:48:39:87:7b:8b:3e:6c:81:84:63:
                    b2:aa:f5:6f:bc:e3:d0:17:5e:14:a3:16:18:1f:21:
                    c8:b0:39:29:a9
                ASN1 OID: prime256v1
                NIST CURVE: P-256
        X509v3 extensions:
            X509v3 Basic Constraints: 
                CA:FALSE
            1.3.6.1.4.1.11129.2.1.22: 
                ..
            X509v3 Key Usage: 
                Digital Signature, Non Repudiation, Key Encipherment
            X509v3 Subject Key Identifier: 
                D5:7E:AD:00:90:91:B9:38:35:AA:28:44:DD:71:2C:96:E7:42:45:E8
            X509v3 Authority Key Identifier: 
                keyid:9B:26:0B:8A:98:A9:BB:1D:B9:1F:1C:E3:1A:40:33:ED:8E:17:88:AB

            X509v3 Subject Alternative Name: 
                DNS:test.example.org
    Signature Algorithm: sha256WithRSAEncryption
         1c:fb:d3:12:7f:07:66:ee:5b:e8:3b:2d:71:94:ce:1b:fb:a7:
         1a:98:8b:fe:09:b9:89:e0:75:b5:ee:ad:ee:ff:9b:94:b1:8f:
         23:ef:98:c4:12:cb:ee:a7:68:b8:d4:ce:b5:11:2c:78:f5:50:
         1f:dc:03:c9:39:69:42:46:78:7d:38:1a:80:6c:73:11:22:72:
         77:ef:e7:72:32:a8:d3:fa:af:03:74:8b:2b:27:a3:59:c3:22:
         38:dc:19:b2:20:a4:82:74:9a:79:3c:f5:7a:0d:56:33:be:97:
         05:66:fc:ce:87:57:ca:aa:60:13:02:c4:ad:49:04:9b:a1:ef:
         b2:b6:b4:7c:de:18:b5:9d:04:e2:89:3a:3c:28:0e:6d:a0:27:
         95:cf:79:2e:73:e6:83:55:76:29:ae:ce:d1:73:05:37:3c:f5:
         fe:5d:15:93:9f:38:e9:32:f5:7b:ec:24:ec:75:53:79:2d:30:
         1d:bc:0c:c5:39:b0:bb:58:9c:01:8d:93:ac:14:11:75:09:58:
         9e:05:c4:38:4e:91:13:ad:d8:b1:a4:59:84:ae:04:0e:3e:9d:
         10:35:96:cd:c8:d1:3b:16:27:23:42:e2:96:2f:ea:14:1f:17:
         13:4e:92:26:2d:05:4f:0a:8e:55:2d:cb:73:80:eb:11:96:17:
         75:6c:54:c3
-----BEGIN CERTIFICATE-----
MIIC1TCCAb2gAwIBAgIBBDANBgkqhkiG9w0BAQsFADBjMQswCQYDVQQGEwJVUzET
MBEGA1UECAwKQ2FsaWZvcm5pYTEWMBQGA1UEBwwNTW91bnRhaW4gVmlldzEQMA4G
A1UECgwHVGVzdCBDQTEVMBMGA1UEAwwMVGVzdCBSb290IENBMB4XDTE5MDYwMTAw
MDAwMFoXDTE5MDgzMDAwMDAwMFowNzEZMBcGA1UEAwwQdGVzdC5leGFtcGxlLm9y
ZzENMAsGA1UECgwEVGVzdDELMAkGA1UEBhMCVVMwWTATBgcqhkjOPQIBBggqhkjO
PQMBBwNCAARIojVOV/FFfB2NHvPeatCBAcBKhxSSzCgR+r+kUdx2SKEkSDmHe4s+
bIGEY7Kq9W+849AXXhSjFhgfIciwOSmpo4GKMIGHMAkGA1UdEwQCMAAwEAYKKwYB
BAHWeQIBFgQCBQAwCwYDVR0PBAQDAgXgMB0GA1UdDgQWBBTVfq0AkJG5ODWqKETd
cSyW50JF6DAfBgNVHSMEGDAWgBSbJguKmKm7HbkfHOMaQDPtjheIqzAbBgNVHREE
FDASghB0ZXN0LmV4YW1wbGUub3JnMA0GCSqGSIb3DQEBCwUAA4IBAQAc+9MSfwdm
7lvoOy1xlM4b+6camIv+CbmJ4HW17q3u/5uUsY8j75jEEsvup2i41M61ESx49VAf
3APJOWlCRnh9OBqAbHMRInJ37+dyMqjT+q8DdIsrJ6NZwyI43BmyIKSCdJp5PPV6
DVYzvpcFZvzOh1fKqmATAsStSQSboe+ytrR83hi1nQTiiTo8KA5toCeVz3kuc+aD
VXYprs7RcwU3PPX+XRWTnzjpMvV77CTsdVN5LTAdvAzFObC7WJwBjZOsFBF1CVie
BcQ4TpETrdixpFmErgQOPp0QNZbNyNE7FicjQuKWL+oUHxcTTpImLQVPCo5VLctz
gOsRlhd1bFTD
-----END CERTIFICATE-----
