Certificate:
    Data:
        Version: 3 (0x2)
        Serial Number: 4 (0x4)
        Signature Algorithm: sha256WithRSAEncryption
        Issuer: C=US, ST=California, L=Mountain View, O=Test CA, CN=Test Root CA
        Validity
            Not Before: Aug 30 07:26:06 2019 GMT
            Not After : Nov 16 07:26:06 2027 GMT
        Subject: CN=test.example.org, O=Test, C=US
        Subject Public Key Info:
            Public Key Algorithm: id-ecPublicKey
                Public-Key: (256 bit)
                pub:
                    04:c3:59:01:23:31:52:9c:c1:ce:1b:09:20:46:a0:
                    0f:38:03:e8:aa:3c:e3:65:36:52:6c:d7:01:08:49:
                    70:d7:40:49:73:f6:d7:c8:19:f3:1e:b3:a8:8a:1b:
                    ae:0b:b6:c8:30:3b:04:9e:58:28:62:1e:db:35:c7:
                    e3:15:60:ac:fb
                ASN1 OID: prime256v1
                NIST CURVE: P-256
        X509v3 extensions:
            X509v3 Basic Constraints: 
                CA:FALSE
            1.3.6.1.4.1.11129.2.1.22: 
                ..
            X509v3 Key Usage: 
                Digital Signature, Non Repudiation, Key Encipherment
            X509v3 Subject Key Identifier: 
                2C:8C:A1:2C:69:E4:1A:28:9C:2B:02:15:ED:62:9F:39:1D:49:D7:66
            X509v3 Authority Key Identifier: 
                keyid:9B:26:0B:8A:98:A9:BB:1D:B9:1F:1C:E3:1A:40:33:ED:8E:17:88:AB

            X509v3 Subject Alternative Name: 
                DNS:test.example.org
    Signature Algorithm: sha256WithRSAEncryption
         0f:6b:23:a8:7e:cf:f0:ac:bb:9b:7d:ab:dd:c2:e3:18:63:db:
         a3:7b:1f:e9:00:89:65:bf:e7:f8:93:a4:78:7c:1e:f3:bc:8c:
         d0:d6:d7:32:d4:87:a5:eb:f3:9e:df:be:7f:35:af:2d:21:4b:
         86:e0:90:74:57:be:45:54:c2:e2:80:e3:9b:ab:fe:be:ff:a4:
         ef:fd:f1:d7:e7:24:7c:13:d4:24:35:9e:87:5b:d1:dd:18:2f:
         c9:22:a6:e4:b3:2c:6e:a2:25:fb:c2:42:27:41:2c:53:f7:cd:
         3d:57:bf:1e:42:26:3e:ae:ec:43:b6:af:1e:9b:a3:a7:2b:fc:
         4f:fb:ab:a8:79:a1:01:69:f6:68:bd:a3:c7:5c:0e:06:4f:1d:
         79:db:be:57:3b:17:81:13:ed:f8:5b:f2:b6:ee:51:3a:98:2b:
         94:42:3f:75:44:c2:5e:08:88:7e:b8:1f:bc:02:76:9a:c9:61:
         a6:92:12:1d:06:97:dd:d2:3e:e8:d9:1c:08:07:bc:15:32:cd:
         27:b1:64:13:3d:4a:69:ec:82:3f:b8:5c:f6:38:73:c2:af:bf:
         a7:d5:a3:03:5c:62:98:46:a3:8b:77:0f:4c:4a:ba:ab:94:9c:
         8d:7a:11:90:bf:ca:07:0f:b7:e5:3b:9d:91:df:54:09:b9:b1:
         11:c3:68:6f
-----BEGIN CERTIFICATE-----
MIIC1TCCAb2gAwIBAgIBBDANBgkqhkiG9w0BAQsFADBjMQswCQYDVQQGEwJVUzET
MBEGA1UECAwKQ2FsaWZvcm5pYTEWMBQGA1UEBwwNTW91bnRhaW4gVmlldzEQMA4G
A1UECgwHVGVzdCBDQTEVMBMGA1UEAwwMVGVzdCBSb290IENBMB4XDTE5MDgzMDA3
MjYwNloXDTI3MTExNjA3MjYwNlowNzEZMBcGA1UEAwwQdGVzdC5leGFtcGxlLm9y
ZzENMAsGA1UECgwEVGVzdDELMAkGA1UEBhMCVVMwWTATBgcqhkjOPQIBBggqhkjO
PQMBBwNCAATDWQEjMVKcwc4bCSBGoA84A+iqPONlNlJs1wEISXDXQElz9tfIGfMe
s6iKG64LtsgwOwSeWChiHts1x+MVYKz7o4GKMIGHMAkGA1UdEwQCMAAwEAYKKwYB
BAHWeQIBFgQCBQAwCwYDVR0PBAQDAgXgMB0GA1UdDgQWBBQsjKEsaeQaKJwrAhXt
Yp85HUnXZjAfBgNVHSMEGDAWgBSbJguKmKm7HbkfHOMaQDPtjheIqzAbBgNVHREE
FDASghB0ZXN0LmV4YW1wbGUub3JnMA0GCSqGSIb3DQEBCwUAA4IBAQAPayOofs/w
rLubfavdwuMYY9ujex/pAIllv+f4k6R4fB7zvIzQ1tcy1Iel6/Oe375/Na8tIUuG
4JB0V75FVMLigOObq/6+/6Tv/fHX5yR8E9QkNZ6HW9HdGC/JIqbksyxuoiX7wkIn
QSxT9809V78eQiY+ruxDtq8em6OnK/xP+6uoeaEBafZovaPHXA4GTx15275XOxeB
E+34W/K27lE6mCuUQj91RMJeCIh+uB+8AnaayWGmkhIdBpfd0j7o2RwIB7wVMs0n
sWQTPUpp7II/uFz2OHPCr7+n1aMDXGKYRqOLdw9MSrqrlJyNehGQv8oHD7flO52R
31QJubERw2hv
-----END CERTIFICATE-----
