Certificate:
    Data:
        Version: 3 (0x2)
        Serial Number: 3 (0x3)
        Signature Algorithm: sha256WithRSAEncryption
        Issuer: C=US, ST=California, L=Mountain View, O=Test CA, CN=Test Root CA
        Validity
            Not Before: May  1 00:00:00 2019 GMT
            Not After : Jul 31 00:00:00 2019 GMT
        Subject: CN=test.example.org, O=Test, C=US
        Subject Public Key Info:
            Public Key Algorithm: id-ecPublicKey
                Public-Key: (256 bit)
                pub:
                    04:c3:59:01:23:31:52:9c:c1:ce:1b:09:20:46:a0:
                    0f:38:03:e8:aa:3c:e3:65:36:52:6c:d7:01:08:49:
                    70:d7:40:49:73:f6:d7:c8:19:f3:1e:b3:a8:8a:1b:
                    ae:0b:b6:c8:30:3b:04:9e:58:28:62:1e:db:35:c7:
                    e3:15:60:ac:fb
                ASN1 OID: prime256v1
                NIST CURVE: P-256
        X509v3 extensions:
            X509v3 Basic Constraints: 
                CA:FALSE
            1.3.6.1.4.1.11129.2.1.22: 
                ..
            X509v3 Key Usage: 
                Digital Signature, Non Repudiation, Key Encipherment
            X509v3 Subject Key Identifier: 
                2C:8C:A1:2C:69:E4:1A:28:9C:2B:02:15:ED:62:9F:39:1D:49:D7:66
            X509v3 Authority Key Identifier: 
                keyid:9B:26:0B:8A:98:A9:BB:1D:B9:1F:1C:E3:1A:40:33:ED:8E:17:88:AB

            X509v3 Subject Alternative Name: 
                DNS:test.example.org
    Signature Algorithm: sha256WithRSAEncryption
         64:5d:7a:eb:73:2b:6d:58:bc:31:d5:63:33:b3:2c:96:a2:1e:
         93:46:dd:17:40:1a:ed:ee:12:49:b3:90:46:aa:fe:26:c9:fa:
         f8:dc:a1:30:83:2a:0a:b1:80:b9:4b:0c:cb:10:ce:02:11:4e:
         fb:5b:57:1a:f8:e9:55:77:56:3b:ef:19:07:e6:a5:18:e8:63:
         1f:95:ce:43:a4:15:b2:cd:fb:54:67:cc:c2:86:14:17:ac:ac:
         16:aa:a8:23:0e:f7:41:3b:2e:7b:7c:7c:f8:56:36:96:2d:d3:
         19:20:6b:d4:aa:7a:31:aa:ca:8b:f6:15:ac:d3:a4:1c:36:73:
         24:b6:4d:54:bf:f4:69:4c:cc:05:01:9f:ec:6c:97:63:8c:a0:
         57:a9:5c:bd:45:f3:75:6f:e1:3d:0d:86:66:ed:0d:f2:07:d4:
         0c:b8:89:31:1d:b8:17:b5:a8:18:f5:10:51:24:5b:6b:23:cf:
         40:0e:fc:a0:c5:30:31:52:2d:d4:9a:66:ba:04:a0:bf:4b:5b:
         6e:87:5f:f1:da:a8:3a:74:ec:bc:cf:e1:95:9a:b7:6d:26:d1:
         8d:74:86:e3:02:97:08:2c:e5:f3:e9:4a:0f:89:27:e6:68:b7:
         97:1f:b2:b2:b3:df:1e:3f:ad:c2:0e:57:5c:f1:80:27:0b:ec:
         1a:cb:97:b8
-----BEGIN CERTIFICATE-----
MIIC1TCCAb2gAwIBAgIBAzANBgkqhkiG9w0BAQsFADBjMQswCQYDVQQGEwJVUzET
MBEGA1UECAwKQ2FsaWZvcm5pYTEWMBQGA1UEBwwNTW91bnRhaW4gVmlldzEQMA4G
A1UECgwHVGVzdCBDQTEVMBMGA1UEAwwMVGVzdCBSb290IENBMB4XDTE5MDUwMTAw
MDAwMFoXDTE5MDczMTAwMDAwMFowNzEZMBcGA1UEAwwQdGVzdC5leGFtcGxlLm9y
ZzENMAsGA1UECgwEVGVzdDELMAkGA1UEBhMCVVMwWTATBgcqhkjOPQIBBggqhkjO
PQMBBwNCAATDWQEjMVKcwc4bCSBGoA84A+iqPONlNlJs1wEISXDXQElz9tfIGfMe
s6iKG64LtsgwOwSeWChiHts1x+MVYKz7o4GKMIGHMAkGA1UdEwQCMAAwEAYKKwYB
BAHWeQIBFgQCBQAwCwYDVR0PBAQDAgXgMB0GA1UdDgQWBBQsjKEsaeQaKJwrAhXt
Yp85HUnXZjAfBgNVHSMEGDAWgBSbJguKmKm7HbkfHOMaQDPtjheIqzAbBgNVHREE
FDASghB0ZXN0LmV4YW1wbGUub3JnMA0GCSqGSIb3DQEBCwUAA4IBAQBkXXrrcytt
WLwx1WMzsyyWoh6TRt0XQBrt7hJJs5BGqv4myfr43KEwgyoKsYC5SwzLEM4CEU77
W1ca+OlVd1Y77xkH5qUY6GMflc5DpBWyzftUZ8zChhQXrKwWqqgjDvdBOy57fHz4
VjaWLdMZIGvUqnoxqsqL9hWs06QcNnMktk1Uv/RpTMwFAZ/sbJdjjKBXqVy9RfN1
b+E9DYZm7Q3yB9QMuIkxHbgXtagY9RBRJFtrI89ADvygxTAxUi3Umma6BKC/S1tu
h1/x2qg6dOy8z+GVmrdtJtGNdIbjApcILOXz6UoPiSfmaLeXH7Kys98eP63CDldc
8YAnC+way5e4
-----END CERTIFICATE-----
