Certificate:
    Data:
        Version: 1 (0x0)
        Serial Number: 2 (0x2)
        Signature Algorithm: sha256WithRSAEncryption
        Issuer: C=US, ST=California, L=Mountain View, O=Test CA, CN=Test Root CA
        Validity
            Not Before: Jun  1 00:00:00 2019 GMT
            Not After : Aug 30 00:00:00 2019 GMT
        Subject: CN=test.example.org, O=Test, C=US
        Subject Public Key Info:
            Public Key Algorithm: id-ecPublicKey
                Public-Key: (256 bit)
                pub:
                    04:c3:59:01:23:31:52:9c:c1:ce:1b:09:20:46:a0:
                    0f:38:03:e8:aa:3c:e3:65:36:52:6c:d7:01:08:49:
                    70:d7:40:49:73:f6:d7:c8:19:f3:1e:b3:a8:8a:1b:
                    ae:0b:b6:c8:30:3b:04:9e:58:28:62:1e:db:35:c7:
                    e3:15:60:ac:fb
                ASN1 OID: prime256v1
                NIST CURVE: P-256
    Signature Algorithm: sha256WithRSAEncryption
         54:82:c9:27:33:0e:95:af:18:7b:a7:cb:1f:53:86:aa:08:38:
         c2:60:58:66:60:6d:de:ae:a0:68:e5:5a:03:fd:3c:7b:0d:0a:
         24:bb:d3:58:13:3f:c1:47:21:43:83:77:07:88:c2:04:23:87:
         00:17:ad:2d:df:86:5f:d6:61:bb:18:ed:99:06:44:45:b7:df:
         02:b3:c7:c8:2a:80:48:62:57:5d:15:74:13:07:e6:96:01:3a:
         eb:82:67:c3:54:96:e3:ea:a5:ed:30:28:d6:55:2d:67:0b:ac:
         4e:87:ca:5c:93:fc:a8:ae:a2:ec:5f:b4:31:50:1e:ba:2a:a3:
         35:18:09:d9:68:8a:e2:3a:25:28:82:c3:56:c8:4f:14:6b:81:
         90:82:af:73:6d:10:17:47:32:6e:bd:45:5f:6f:cb:b7:56:44:
         df:ae:3b:e3:b2:d1:e4:3b:da:c9:34:ef:36:ca:14:28:cf:98:
         9b:24:53:64:8f:b1:dc:83:a0:39:60:ce:08:13:40:59:fd:19:
         a3:ec:d9:1e:17:89:5b:ff:ff:49:07:5e:4c:a8:91:85:e4:fd:
         b4:51:78:c4:bc:25:95:a7:4a:59:43:3d:53:20:ac:b1:d2:89:
         12:f9:86:e3:55:16:d2:3d:77:20:4d:38:f2:07:dd:6a:d3:da:
         f8:e2:ff:36
-----BEGIN CERTIFICATE-----
MIICQzCCASsCAQIwDQYJKoZIhvcNAQELBQAwYzELMAkGA1UEBhMCVVMxEzARBgNV
BAgMCkNhbGlmb3JuaWExFjAUBgNVBAcMDU1vdW50YWluIFZpZXcxEDAOBgNVBAoM
B1Rlc3QgQ0ExFTATBgNVBAMMDFRlc3QgUm9vdCBDQTAeFw0xOTA2MDEwMDAwMDBa
Fw0xOTA4MzAwMDAwMDBaMDcxGTAXBgNVBAMMEHRlc3QuZXhhbXBsZS5vcmcxDTAL
BgNVBAoMBFRlc3QxCzAJBgNVBAYTAlVTMFkwEwYHKoZIzj0CAQYIKoZIzj0DAQcD
QgAEw1kBIzFSnMHOGwkgRqAPOAPoqjzjZTZSbNcBCElw10BJc/bXyBnzHrOoihuu
C7bIMDsEnlgoYh7bNcfjFWCs+zANBgkqhkiG9w0BAQsFAAOCAQEAVILJJzMOla8Y
e6fLH1OGqgg4wmBYZmBt3q6gaOVaA/08ew0KJLvTWBM/wUchQ4N3B4jCBCOHABet
Ld+GX9ZhuxjtmQZERbffArPHyCqASGJXXRV0EwfmlgE664Jnw1SW4+ql7TAo1lUt
ZwusTofKXJP8qK6i7F+0MVAeuiqjNRgJ2WiK4jolKILDVshPFGuBkIKvc20QF0cy
br1FX2/Lt1ZE364747LR5DvayTTvNsoUKM+YmyRTZI+x3IOgOWDOCBNAWf0Zo+zZ
HheJW///SQdeTKiRheT9tFF4xLwlladKWUM9UyCssdKJEvmG41UW0j13IE048gfd
atPa+OL/Ng==
-----END CERTIFICATE-----
