Certificate:
    Data:
        Version: 3 (0x2)
        Serial Number: 1 (0x1)
        Signature Algorithm: sha256WithRSAEncryption
        Issuer: C=US, ST=California, L=Mountain View, O=Test CA, CN=Test Root CA
        Validity
            Not Before: Jan  1 00:00:00 2019 GMT
            Not After : Jan  1 00:00:00 2020 GMT
        Subject: CN=test.example.org, O=Test, C=US
        Subject Public Key Info:
            Public Key Algorithm: id-ecPublicKey
                Public-Key: (256 bit)
                pub:
                    04:48:a2:35:4e:57:f1:45:7c:1d:8d:1e:f3:de:6a:
                    d0:81:01:c0:4a:87:14:92:cc:28:11:fa:bf:a4:51:
                    dc:76:48:a1:24:48:39:87:7b:8b:3e:6c:81:84:63:
                    b2:aa:f5:6f:bc:e3:d0:17:5e:14:a3:16:18:1f:21:
                    c8:b0:39:29:a9
                ASN1 OID: prime256v1
                NIST CURVE: P-256
        X509v3 extensions:
            X509v3 Basic Constraints: 
                CA:FALSE
            1.3.6.1.4.1.11129.2.1.22: 
                ..
            X509v3 Key Usage: 
                Digital Signature, Non Repudiation, Key Encipherment
            X509v3 Subject Key Identifier: 
                D5:7E:AD:00:90:91:B9:38:35:AA:28:44:DD:71:2C:96:E7:42:45:E8
            X509v3 Authority Key Identifier: 
                keyid:9B:26:0B:8A:98:A9:BB:1D:B9:1F:1C:E3:1A:40:33:ED:8E:17:88:AB

            X509v3 Subject Alternative Name: 
                DNS:test.example.org
    Signature Algorithm: sha256WithRSAEncryption
         37:e9:47:28:9e:9f:6f:fe:46:58:22:6b:aa:7c:2b:67:ff:ca:
         37:f3:40:44:01:cb:1b:81:c0:dc:8f:cc:fe:c9:6a:22:e6:65:
         65:73:e2:a1:e9:34:89:aa:91:16:1a:a6:5a:c2:9b:7a:70:17:
         b4:d6:f8:73:b6:f1:98:c7:c3:f7:0f:f1:cc:5e:7a:66:c8:7c:
         53:67:e9:3c:5b:45:88:67:4f:f3:3b:96:62:c0:b6:67:03:5d:
         28:63:19:ec:2b:18:83:fd:ac:81:f3:95:b3:8f:a9:28:01:9d:
         a0:7f:34:d5:f3:ee:f2:b9:a1:9f:12:70:34:3d:20:a5:a2:80:
         5b:4d:7a:84:32:01:d2:d8:73:49:80:85:9c:09:bd:c1:b1:76:
         51:6c:05:22:bf:18:40:ad:05:89:e5:54:13:e7:49:cb:91:b2:
         17:a8:4a:98:f7:86:44:ce:7e:d7:39:f4:ac:ce:f6:20:33:90:
         5c:41:08:ba:89:a8:93:b5:c9:3f:ad:c5:bb:4e:66:5c:b3:c1:
         13:cc:de:b6:3c:54:fb:8d:32:5b:d5:ce:67:b2:1a:70:c1:7c:
         35:2f:b0:3f:79:07:cf:6e:63:64:21:c0:f4:04:bf:fa:2e:00:
         f0:a2:1b:69:f6:8c:8b:27:1d:84:c4:a6:86:49:da:f3:9d:50:
         d5:eb:fa:a9
-----BEGIN CERTIFICATE-----
MIIC1TCCAb2gAwIBAgIBATANBgkqhkiG9w0BAQsFADBjMQswCQYDVQQGEwJVUzET
MBEGA1UECAwKQ2FsaWZvcm5pYTEWMBQGA1UEBwwNTW91bnRhaW4gVmlldzEQMA4G
A1UECgwHVGVzdCBDQTEVMBMGA1UEAwwMVGVzdCBSb290IENBMB4XDTE5MDEwMTAw
MDAwMFoXDTIwMDEwMTAwMDAwMFowNzEZMBcGA1UEAwwQdGVzdC5leGFtcGxlLm9y
ZzENMAsGA1UECgwEVGVzdDELMAkGA1UEBhMCVVMwWTATBgcqhkjOPQIBBggqhkjO
PQMBBwNCAARIojVOV/FFfB2NHvPeatCBAcBKhxSSzCgR+r+kUdx2SKEkSDmHe4s+
bIGEY7Kq9W+849AXXhSjFhgfIciwOSmpo4GKMIGHMAkGA1UdEwQCMAAwEAYKKwYB
BAHWeQIBFgQCBQAwCwYDVR0PBAQDAgXgMB0GA1UdDgQWBBTVfq0AkJG5ODWqKETd
cSyW50JF6DAfBgNVHSMEGDAWgBSbJguKmKm7HbkfHOMaQDPtjheIqzAbBgNVHREE
FDASghB0ZXN0LmV4YW1wbGUub3JnMA0GCSqGSIb3DQEBCwUAA4IBAQA36Uconp9v
/kZYImuqfCtn/8o380BEAcsbgcDcj8z+yWoi5mVlc+Kh6TSJqpEWGqZawpt6cBe0
1vhztvGYx8P3D/HMXnpmyHxTZ+k8W0WIZ0/zO5ZiwLZnA10oYxnsKxiD/ayB85Wz
j6koAZ2gfzTV8+7yuaGfEnA0PSClooBbTXqEMgHS2HNJgIWcCb3BsXZRbAUivxhA
rQWJ5VQT50nLkbIXqEqY94ZEzn7XOfSszvYgM5BcQQi6iaiTtck/rcW7TmZcs8ET
zN62PFT7jTJb1c5nshpwwXw1L7A/eQfPbmNkIcD0BL/6LgDwohtp9oyLJx2ExKaG
SdrznVDV6/qp
-----END CERTIFICATE-----
