Certificate:
    Data:
        Version: 1 (0x0)
        Serial Number: 2 (0x2)
        Signature Algorithm: sha256WithRSAEncryption
        Issuer: C=US, ST=California, L=Mountain View, O=Test CA, CN=Test Root CA
        Validity
            Not Before: Jan  1 00:00:00 2019 GMT
            Not After : Jan  1 00:00:00 2020 GMT
        Subject: CN=test.example.org, O=Test, C=US
        Subject Public Key Info:
            Public Key Algorithm: id-ecPublicKey
                Public-Key: (256 bit)
                pub:
                    04:48:a2:35:4e:57:f1:45:7c:1d:8d:1e:f3:de:6a:
                    d0:81:01:c0:4a:87:14:92:cc:28:11:fa:bf:a4:51:
                    dc:76:48:a1:24:48:39:87:7b:8b:3e:6c:81:84:63:
                    b2:aa:f5:6f:bc:e3:d0:17:5e:14:a3:16:18:1f:21:
                    c8:b0:39:29:a9
                ASN1 OID: prime256v1
                NIST CURVE: P-256
    Signature Algorithm: sha256WithRSAEncryption
         6c:d3:91:ee:a0:e9:e3:b6:75:ab:30:8b:60:b8:49:6d:7e:04:
         5e:67:df:15:6f:33:21:7e:50:ac:70:1d:95:9b:d3:e7:02:0c:
         17:88:d0:a5:f6:b4:ca:08:af:97:99:5f:83:89:d7:d7:03:ca:
         42:c9:aa:a7:ef:ed:40:f3:c5:d4:7b:ee:77:e4:78:d3:7d:fd:
         ee:7a:ec:ff:2b:3b:38:d2:df:d0:d8:d5:3f:a8:30:24:7b:17:
         ff:ae:51:f3:5b:1b:46:e2:a8:f3:54:a5:88:09:0a:d8:65:a3:
         7e:82:96:4c:27:39:92:af:24:12:72:58:08:40:c8:51:3d:d7:
         ac:7e:4b:b9:a0:b8:02:c8:4f:7f:e6:e7:4e:e6:09:dc:cc:54:
         5f:15:bb:d3:be:28:45:63:a4:4e:3f:69:a3:29:b5:d4:b8:17:
         0a:01:1f:81:b1:67:86:b8:6c:ba:c8:30:58:22:2c:51:79:f0:
         1b:72:33:25:56:e2:c8:e4:71:8f:9d:a2:c5:69:9a:33:45:8e:
         fc:51:92:4d:d4:b7:5b:25:b4:5f:8d:50:ec:ed:9e:37:b5:39:
         a6:a2:d9:bc:e2:38:aa:23:60:fa:fc:0e:04:24:22:4e:1f:fc:
         c8:c1:68:67:16:53:46:e1:51:11:39:8e:48:3a:27:6a:47:3a:
         ab:27:de:ee
-----BEGIN CERTIFICATE-----
MIICQzCCASsCAQIwDQYJKoZIhvcNAQELBQAwYzELMAkGA1UEBhMCVVMxEzARBgNV
BAgMCkNhbGlmb3JuaWExFjAUBgNVBAcMDU1vdW50YWluIFZpZXcxEDAOBgNVBAoM
B1Rlc3QgQ0ExFTATBgNVBAMMDFRlc3QgUm9vdCBDQTAeFw0xOTAxMDEwMDAwMDBa
Fw0yMDAxMDEwMDAwMDBaMDcxGTAXBgNVBAMMEHRlc3QuZXhhbXBsZS5vcmcxDTAL
BgNVBAoMBFRlc3QxCzAJBgNVBAYTAlVTMFkwEwYHKoZIzj0CAQYIKoZIzj0DAQcD
QgAESKI1TlfxRXwdjR7z3mrQgQHASocUkswoEfq/pFHcdkihJEg5h3uLPmyBhGOy
qvVvvOPQF14UoxYYHyHIsDkpqTANBgkqhkiG9w0BAQsFAAOCAQEAbNOR7qDp47Z1
qzCLYLhJbX4EXmffFW8zIX5QrHAdlZvT5wIMF4jQpfa0ygivl5lfg4nX1wPKQsmq
p+/tQPPF1Hvud+R403397nrs/ys7ONLf0NjVP6gwJHsX/65R81sbRuKo81SliAkK
2GWjfoKWTCc5kq8kEnJYCEDIUT3XrH5LuaC4AshPf+bnTuYJ3MxUXxW7074oRWOk
Tj9poym11LgXCgEfgbFnhrhsusgwWCIsUXnwG3IzJVbiyORxj52ixWmaM0WO/FGS
TdS3WyW0X41Q7O2eN7U5pqLZvOI4qiNg+vwOBCQiTh/8yMFoZxZTRuFRETmOSDon
akc6qyfe7g==
-----END CERTIFICATE-----
