Certificate:
    Data:
        Version: 3 (0x2)
        Serial Number: 4 (0x4)
        Signature Algorithm: sha256WithRSAEncryption
        Issuer: C=US, ST=California, L=Mountain View, O=Test CA, CN=Test Root CA
        Validity
            Not Before: Jun  1 00:00:00 2019 GMT
            Not After : Aug 30 00:00:00 2019 GMT
        Subject: CN=test.example.org, O=Test, C=US
        Subject Public Key Info:
            Public Key Algorithm: id-ecPublicKey
                Public-Key: (384 bit)
                pub:
                    04:5f:7a:18:91:f2:c9:e1:ff:b6:2d:b3:e4:f2:ea:
                    d3:18:64:5f:a1:75:2c:97:52:4d:dc:f0:d5:68:cc:
                    b0:90:dd:be:98:e2:da:59:f3:11:34:81:26:81:f2:
                    53:8d:67:67:f9:f7:aa:46:69:9e:c9:f2:50:c6:73:
                    7f:0d:2a:6c:3e:bb:3f:6e:e2:72:c2:5e:1c:74:06:
                    8a:04:c9:0f:34:9d:b3:f9:cb:0c:53:ca:42:83:24:
                    7c:15:64:c8:ed:0d:e9
                ASN1 OID: secp384r1
                NIST CURVE: P-384
        X509v3 extensions:
            X509v3 Basic Constraints: 
                CA:FALSE
            1.3.6.1.4.1.11129.2.1.22: 
                ..
            X509v3 Key Usage: 
                Digital Signature, Non Repudiation, Key Encipherment
            X509v3 Subject Key Identifier: 
                8C:9E:71:9F:22:BD:E5:7B:91:7B:BE:A0:91:4C:DB:8A:B2:A9:D3:B1
            X509v3 Authority Key Identifier: 
                keyid:9B:26:0B:8A:98:A9:BB:1D:B9:1F:1C:E3:1A:40:33:ED:8E:17:88:AB

            X509v3 Subject Alternative Name: 
                DNS:test.example.org
    Signature Algorithm: sha256WithRSAEncryption
         30:4e:53:7d:dd:a6:00:16:c8:86:57:e3:79:1c:ef:54:7c:11:
         99:b5:ad:1f:15:74:4d:e9:d5:c9:e4:3b:59:f3:e0:3f:77:5a:
         22:e4:4d:4d:cd:e4:ab:08:bf:32:f9:71:90:aa:75:d8:6d:79:
         f1:10:8e:02:08:5f:b8:0e:e4:1e:4c:2f:93:ec:2e:d1:e5:e7:
         fc:c7:31:b3:1f:4f:e3:d7:26:3e:ad:f4:51:d6:3e:a4:7d:b1:
         90:5b:be:b6:da:b0:f5:b2:9c:88:ee:20:a2:fe:c2:cc:a6:02:
         8b:16:d5:93:d2:3e:71:4e:68:ef:c8:20:6c:5c:8b:ca:93:33:
         5c:46:6b:b6:83:48:ac:5e:eb:24:fe:b6:8e:a5:d2:5a:0d:b8:
         90:66:a5:e9:51:77:ef:b8:3f:c2:fa:43:67:72:38:71:cd:6a:
         60:c6:d8:99:e5:af:b4:44:82:b3:3e:77:b6:1f:56:31:ad:65:
         d6:08:0b:c9:48:29:4a:56:dc:ad:1b:e2:65:8c:3b:40:40:ca:
         53:df:96:3a:20:1d:f2:9a:34:48:34:89:cf:85:f7:d4:19:58:
         b8:e1:dc:65:fb:ad:3b:d9:79:c0:9b:ea:a8:08:88:e6:83:e2:
         6c:dd:4e:5c:00:98:35:e9:b6:1d:d2:b4:91:6e:5a:90:92:42:
         6f:87:8b:5b
-----BEGIN CERTIFICATE-----
MIIC8jCCAdqgAwIBAgIBBDANBgkqhkiG9w0BAQsFADBjMQswCQYDVQQGEwJVUzET
MBEGA1UECAwKQ2FsaWZvcm5pYTEWMBQGA1UEBwwNTW91bnRhaW4gVmlldzEQMA4G
A1UECgwHVGVzdCBDQTEVMBMGA1UEAwwMVGVzdCBSb290IENBMB4XDTE5MDYwMTAw
MDAwMFoXDTE5MDgzMDAwMDAwMFowNzEZMBcGA1UEAwwQdGVzdC5leGFtcGxlLm9y
ZzENMAsGA1UECgwEVGVzdDELMAkGA1UEBhMCVVMwdjAQBgcqhkjOPQIBBgUrgQQA
IgNiAARfehiR8snh/7Yts+Ty6tMYZF+hdSyXUk3c8NVozLCQ3b6Y4tpZ8xE0gSaB
8lONZ2f596pGaZ7J8lDGc38NKmw+uz9u4nLCXhx0BooEyQ80nbP5ywxTykKDJHwV
ZMjtDemjgYowgYcwCQYDVR0TBAIwADAQBgorBgEEAdZ5AgEWBAIFADALBgNVHQ8E
BAMCBeAwHQYDVR0OBBYEFIyecZ8iveV7kXu+oJFM24qyqdOxMB8GA1UdIwQYMBaA
FJsmC4qYqbsduR8c4xpAM+2OF4irMBsGA1UdEQQUMBKCEHRlc3QuZXhhbXBsZS5v
cmcwDQYJKoZIhvcNAQELBQADggEBADBOU33dpgAWyIZX43kc71R8EZm1rR8VdE3p
1cnkO1nz4D93WiLkTU3N5KsIvzL5cZCqddhtefEQjgIIX7gO5B5ML5PsLtHl5/zH
MbMfT+PXJj6t9FHWPqR9sZBbvrbasPWynIjuIKL+wsymAosW1ZPSPnFOaO/IIGxc
i8qTM1xGa7aDSKxe6yT+to6l0loNuJBmpelRd++4P8L6Q2dyOHHNamDG2Jnlr7RE
grM+d7YfVjGtZdYIC8lIKUpW3K0b4mWMO0BAylPfljogHfKaNEg0ic+F99QZWLjh
3GX7rTvZecCb6qgIiOaD4mzdTlwAmDXpth3StJFuWpCSQm+Hi1s=
-----END CERTIFICATE-----
