Certificate:
    Data:
        Version: 3 (0x2)
        Serial Number: 5 (0x5)
        Signature Algorithm: sha256WithRSAEncryption
        Issuer: C=US, ST=California, L=Mountain View, O=Test CA, CN=Test Root CA
        Validity
            Not Before: Jan  1 00:00:00 2019 GMT
            Not After : Jan  1 00:00:00 2020 GMT
        Subject: CN=test.example.org, O=Test, C=US
        Subject Public Key Info:
            Public Key Algorithm: id-ecPublicKey
                Public-Key: (384 bit)
                pub:
                    04:58:e0:92:19:10:0c:b7:55:8a:5d:03:f7:84:a1:
                    67:a9:80:57:65:5a:f1:f2:39:36:55:41:f7:12:f0:
                    8a:56:6f:9b:86:d6:bc:14:56:75:c8:4d:22:f3:27:
                    df:69:70:59:8f:72:8f:93:f0:9a:28:60:ce:b6:f6:
                    93:0f:1d:f1:82:a4:a8:bc:6e:a1:78:75:d9:a1:e9:
                    9b:95:01:fa:ec:28:22:c0:8f:58:b5:df:6d:8a:27:
                    31:2f:f0:3d:bf:5d:65
                ASN1 OID: secp384r1
                NIST CURVE: P-384
        X509v3 extensions:
            X509v3 Basic Constraints: 
                CA:FALSE
            1.3.6.1.4.1.11129.2.1.22: 
                ..
            X509v3 Key Usage: 
                Digital Signature, Non Repudiation, Key Encipherment
            X509v3 Subject Key Identifier: 
                5D:94:AB:AB:83:FC:94:ED:F3:18:E5:86:84:F8:47:DD:DE:6D:6A:20
            X509v3 Authority Key Identifier: 
                keyid:9B:26:0B:8A:98:A9:BB:1D:B9:1F:1C:E3:1A:40:33:ED:8E:17:88:AB

            X509v3 Subject Alternative Name: 
                DNS:test.example.org
    Signature Algorithm: sha256WithRSAEncryption
         45:77:27:ce:89:0a:c6:5c:fa:94:b1:cb:5c:40:03:40:67:0d:
         75:11:54:5b:94:55:d0:36:15:1c:fd:1e:0f:53:93:db:e9:89:
         9f:2a:ec:24:30:24:98:5f:1a:be:ff:b5:4e:f1:da:ce:ec:6a:
         84:ae:c7:b6:8d:ae:22:73:67:46:45:63:44:52:3f:01:44:20:
         36:d6:c7:c2:b4:ab:57:2d:2e:6a:02:64:4a:8e:30:ed:d1:bd:
         23:86:4a:b1:6d:36:aa:4c:00:97:c2:7c:37:f6:94:61:12:f4:
         8c:82:6f:aa:ca:33:2f:5c:85:4b:27:39:74:a9:ca:bf:f8:a1:
         7f:49:26:96:f8:72:75:79:ec:e7:e3:ed:01:6b:a8:27:05:1f:
         25:eb:dc:c0:58:3a:26:1d:74:80:3c:1e:cf:34:dd:4a:5b:cc:
         69:fd:09:de:5e:ba:ac:ec:c4:f7:f1:a4:49:5d:2c:b5:48:6c:
         63:9b:fa:b8:5e:2d:2f:64:98:5d:1c:37:df:32:fd:d0:ba:59:
         77:70:be:9c:59:12:be:01:74:d8:99:6c:27:9f:09:7d:0a:68:
         09:6e:19:c8:12:ff:fa:52:7d:fc:a5:4d:94:f2:ec:60:d1:61:
         f2:7d:0d:80:a2:60:68:95:0a:2d:73:37:77:00:9f:27:67:62:
         4f:77:ce:b9
-----BEGIN CERTIFICATE-----
MIIC8jCCAdqgAwIBAgIBBTANBgkqhkiG9w0BAQsFADBjMQswCQYDVQQGEwJVUzET
MBEGA1UECAwKQ2FsaWZvcm5pYTEWMBQGA1UEBwwNTW91bnRhaW4gVmlldzEQMA4G
A1UECgwHVGVzdCBDQTEVMBMGA1UEAwwMVGVzdCBSb290IENBMB4XDTE5MDEwMTAw
MDAwMFoXDTIwMDEwMTAwMDAwMFowNzEZMBcGA1UEAwwQdGVzdC5leGFtcGxlLm9y
ZzENMAsGA1UECgwEVGVzdDELMAkGA1UEBhMCVVMwdjAQBgcqhkjOPQIBBgUrgQQA
IgNiAARY4JIZEAy3VYpdA/eEoWepgFdlWvHyOTZVQfcS8IpWb5uG1rwUVnXITSLz
J99pcFmPco+T8JooYM629pMPHfGCpKi8bqF4ddmh6ZuVAfrsKCLAj1i1322KJzEv
8D2/XWWjgYowgYcwCQYDVR0TBAIwADAQBgorBgEEAdZ5AgEWBAIFADALBgNVHQ8E
BAMCBeAwHQYDVR0OBBYEFF2Uq6uD/JTt8xjlhoT4R93ebWogMB8GA1UdIwQYMBaA
FJsmC4qYqbsduR8c4xpAM+2OF4irMBsGA1UdEQQUMBKCEHRlc3QuZXhhbXBsZS5v
cmcwDQYJKoZIhvcNAQELBQADggEBAEV3J86JCsZc+pSxy1xAA0BnDXURVFuUVdA2
FRz9Hg9Tk9vpiZ8q7CQwJJhfGr7/tU7x2s7saoSux7aNriJzZ0ZFY0RSPwFEIDbW
x8K0q1ctLmoCZEqOMO3RvSOGSrFtNqpMAJfCfDf2lGES9IyCb6rKMy9chUsnOXSp
yr/4oX9JJpb4cnV57Ofj7QFrqCcFHyXr3MBYOiYddIA8Hs803UpbzGn9Cd5euqzs
xPfxpEldLLVIbGOb+rheLS9kmF0cN98y/dC6WXdwvpxZEr4BdNiZbCefCX0KaAlu
GcgS//pSffylTZTy7GDRYfJ9DYCiYGiVCi1zN3cAnydnYk93zrk=
-----END CERTIFICATE-----
