[Created by: ./generate-chains.py]

Generates certificate chains where the intermediate contains netscape server
gated crypto rather than serverAuth.

Certificate:
    Data:
        Version: 3 (0x2)
        Serial Number: 1 (0x1)
    Signature Algorithm: sha256WithRSAEncryption
        Issuer: CN=Intermediate
        Validity
            Not Before: Jan  1 12:00:00 2018 GMT
            Not After : Jan  1 12:00:00 2024 GMT
        Subject: CN=Target
        Subject Public Key Info:
            Public Key Algorithm: rsaEncryption
                Public-Key: (2048 bit)
                Modulus:
                    00:ae:2e:8b:18:8d:f7:76:2c:94:0c:3f:a0:b6:ea:
                    70:1f:5e:c8:48:c5:aa:ad:55:6b:bd:55:68:0d:8e:
                    ce:e5:99:27:c5:2c:b2:9a:29:a9:8f:8e:c3:c6:97:
                    89:6d:31:d7:a4:8f:d8:36:37:4f:33:c7:d6:42:03:
                    11:08:c4:7f:35:8c:ee:0f:1b:7a:31:74:04:aa:01:
                    d3:1e:8b:5b:01:9d:60:4b:9c:d1:8f:1e:ab:e5:dc:
                    8f:17:77:49:e3:f6:d5:82:a5:2f:0a:e8:dc:9f:96:
                    1e:2a:a1:41:d1:67:2c:9e:f3:7f:94:0c:6e:cf:5f:
                    55:52:37:05:d0:39:37:1a:6e:11:ed:db:fa:aa:92:
                    a7:4f:50:29:07:69:af:1d:a7:99:fa:e1:56:f0:03:
                    38:b0:ae:6b:e7:19:0b:dd:c3:07:31:8e:84:04:a5:
                    b4:eb:b8:bc:23:f3:40:b0:17:b4:ab:9e:3f:05:96:
                    89:fc:84:23:cc:d1:06:c2:e4:8b:c6:65:f5:24:eb:
                    72:31:bc:41:7d:3a:c9:55:08:0c:ee:a6:ae:1f:78:
                    17:f8:a7:9d:7b:b1:82:f5:ce:82:6b:a8:b2:c6:8a:
                    b9:be:a5:d8:39:f4:49:e2:4c:53:32:85:26:53:4d:
                    44:ce:d5:3b:a0:6b:e7:d9:02:a1:5a:ef:e1:a5:81:
                    a7:fb
                Exponent: 65537 (0x10001)
        X509v3 extensions:
            X509v3 Subject Key Identifier: 
                EB:B0:1C:BD:B7:68:B8:D1:B9:8A:C2:9F:5D:CF:DD:AF:F2:62:70:8A
            X509v3 Authority Key Identifier: 
                keyid:EE:C6:9A:65:CC:FB:CE:A0:3E:17:02:F9:68:12:86:B6:22:09:60:B4

            Authority Information Access: 
                CA Issuers - URI:http://url-for-aia/Intermediate.cer

            X509v3 CRL Distribution Points: 

                Full Name:
                  URI:http://url-for-crl/Intermediate.crl

            X509v3 Key Usage: critical
                Digital Signature, Key Encipherment
            X509v3 Extended Key Usage: 
                TLS Web Server Authentication, TLS Web Client Authentication
            X509v3 Subject Alternative Name: 
                DNS:test.example
    Signature Algorithm: sha256WithRSAEncryption
         06:6f:10:26:84:dc:74:6d:14:e3:7a:74:e8:c9:9d:48:a5:34:
         c9:40:79:82:9a:b1:b8:fa:3a:85:35:61:a4:3b:8e:03:7c:da:
         75:f2:7d:5f:36:2c:cb:3a:a6:49:52:23:4d:c7:25:88:c8:c8:
         87:62:9a:0a:80:23:4a:a4:22:1a:ef:84:53:dc:57:6c:e5:e9:
         63:dd:d9:db:e8:5f:2c:10:26:05:a8:6e:e9:b1:30:27:43:32:
         cf:89:b1:e8:b7:a5:bc:74:d7:82:42:99:17:9c:05:da:85:0c:
         48:81:cc:c6:ac:76:77:1a:3d:9e:36:00:16:4e:da:ff:0f:a7:
         d9:a8:cb:50:c1:e4:45:e4:4a:35:a0:d8:b2:ff:05:e6:09:81:
         77:9d:5e:88:eb:7b:9e:b3:e0:b9:09:90:4f:5c:96:47:d2:20:
         f5:91:55:75:22:5f:2f:f6:1d:99:80:c9:c0:89:b8:a4:1c:7e:
         08:de:c4:4c:48:09:dd:50:5f:ab:be:03:95:f5:6c:e1:a3:c3:
         84:5b:ac:28:8a:ca:76:d8:b3:1d:ff:39:ec:92:32:94:79:4c:
         f1:60:86:62:20:01:11:a2:4b:83:a9:7a:50:48:b4:54:67:53:
         35:17:54:1d:4e:af:d4:51:0d:f1:99:9c:8c:75:0c:95:16:e6:
         e7:55:89:72
-----BEGIN CERTIFICATE-----
MIIDpzCCAo+gAwIBAgIBATANBgkqhkiG9w0BAQsFADAXMRUwEwYDVQQDDAxJbnRl
cm1lZGlhdGUwHhcNMTgwMTAxMTIwMDAwWhcNMjQwMTAxMTIwMDAwWjARMQ8wDQYD
VQQDDAZUYXJnZXQwggEiMA0GCSqGSIb3DQEBAQUAA4IBDwAwggEKAoIBAQCuLosY
jfd2LJQMP6C26nAfXshIxaqtVWu9VWgNjs7lmSfFLLKaKamPjsPGl4ltMdekj9g2
N08zx9ZCAxEIxH81jO4PG3oxdASqAdMei1sBnWBLnNGPHqvl3I8Xd0nj9tWCpS8K
6Nyflh4qoUHRZyye83+UDG7PX1VSNwXQOTcabhHt2/qqkqdPUCkHaa8dp5n64Vbw
AziwrmvnGQvdwwcxjoQEpbTruLwj80CwF7Srnj8Flon8hCPM0QbC5IvGZfUk63Ix
vEF9OslVCAzupq4feBf4p517sYL1zoJrqLLGirm+pdg59EniTFMyhSZTTUTO1Tug
a+fZAqFa7+Glgaf7AgMBAAGjggECMIH/MB0GA1UdDgQWBBTrsBy9t2i40bmKwp9d
z92v8mJwijAfBgNVHSMEGDAWgBTuxpplzPvOoD4XAvloEoa2IglgtDA/BggrBgEF
BQcBAQQzMDEwLwYIKwYBBQUHMAKGI2h0dHA6Ly91cmwtZm9yLWFpYS9JbnRlcm1l
ZGlhdGUuY2VyMDQGA1UdHwQtMCswKaAnoCWGI2h0dHA6Ly91cmwtZm9yLWNybC9J
bnRlcm1lZGlhdGUuY3JsMA4GA1UdDwEB/wQEAwIFoDAdBgNVHSUEFjAUBggrBgEF
BQcDAQYIKwYBBQUHAwIwFwYDVR0RBBAwDoIMdGVzdC5leGFtcGxlMA0GCSqGSIb3
DQEBCwUAA4IBAQAGbxAmhNx0bRTjenToyZ1IpTTJQHmCmrG4+jqFNWGkO44DfNp1
8n1fNizLOqZJUiNNxyWIyMiHYpoKgCNKpCIa74RT3Fds5elj3dnb6F8sECYFqG7p
sTAnQzLPibHot6W8dNeCQpkXnAXahQxIgczGrHZ3Gj2eNgAWTtr/D6fZqMtQweRF
5Eo1oNiy/wXmCYF3nV6I63ues+C5CZBPXJZH0iD1kVV1Il8v9h2ZgMnAibikHH4I
3sRMSAndUF+rvgOV9Wzho8OEW6woisp22LMd/znskjKUeUzxYIZiIAERokuDqXpQ
SLRUZ1M1F1QdTq/UUQ3xmZyMdQyVFubnVYly
-----END CERTIFICATE-----

Certificate:
    Data:
        Version: 3 (0x2)
        Serial Number: 2 (0x2)
    Signature Algorithm: sha1WithRSAEncryption
        Issuer: CN=Root
        Validity
            Not Before: Jan  1 12:00:00 2018 GMT
            Not After : Jan  1 12:00:00 2024 GMT
        Subject: CN=Intermediate
        Subject Public Key Info:
            Public Key Algorithm: rsaEncryption
                Public-Key: (2048 bit)
                Modulus:
                    00:d1:41:40:6f:cb:25:05:d9:29:d0:a3:c7:fe:2f:
                    f0:53:ad:46:36:19:aa:b1:1f:3f:7a:a2:e0:fb:03:
                    2b:77:65:6a:79:eb:f3:a3:16:13:34:83:3b:42:de:
                    a2:bb:e2:bf:d8:d2:75:3d:48:38:86:bb:2a:7d:14:
                    a3:88:f7:7c:00:f4:0a:6b:6b:aa:9b:44:24:62:fe:
                    db:a3:42:55:15:67:2a:32:ff:b2:4d:80:93:d0:84:
                    ef:1b:dc:7c:ac:56:2d:54:08:02:f6:18:6e:b5:80:
                    a8:77:52:1f:b8:2c:09:6d:cc:f8:1c:04:91:62:6e:
                    1e:dd:1d:89:b2:f1:23:0b:4d:4c:6c:da:49:3d:61:
                    83:72:0f:66:36:12:3f:f3:ff:53:52:73:53:a1:ca:
                    38:bd:c3:48:bf:7a:2f:13:19:d7:c2:28:e1:6f:32:
                    00:5e:64:ac:4b:05:7a:77:62:57:55:a9:59:83:d5:
                    ed:a3:2e:28:34:71:79:2f:b9:c3:9e:df:b3:2a:b1:
                    59:cd:04:00:1d:8b:11:56:ae:c6:67:f6:4f:1d:58:
                    07:65:e0:b0:2f:ef:57:6d:de:c1:a0:7c:6e:38:a8:
                    45:26:21:96:e0:f6:ef:0e:28:cf:01:70:57:dc:20:
                    15:08:ad:e8:e3:98:74:8c:54:32:c1:28:17:e0:de:
                    a1:8b
                Exponent: 65537 (0x10001)
        X509v3 extensions:
            X509v3 Subject Key Identifier: 
                EE:C6:9A:65:CC:FB:CE:A0:3E:17:02:F9:68:12:86:B6:22:09:60:B4
            X509v3 Authority Key Identifier: 
                keyid:42:75:41:34:C5:59:9F:99:A3:9B:1C:0C:57:DB:5C:C7:C1:48:B7:91

            Authority Information Access: 
                CA Issuers - URI:http://url-for-aia/Root.cer

            X509v3 CRL Distribution Points: 

                Full Name:
                  URI:http://url-for-crl/Root.crl

            X509v3 Key Usage: critical
                Certificate Sign, CRL Sign
            X509v3 Basic Constraints: critical
                CA:TRUE
            X509v3 Extended Key Usage: 
                Netscape Server Gated Crypto
    Signature Algorithm: sha1WithRSAEncryption
         5f:c5:5a:a2:4c:1a:89:70:67:f5:0b:f7:03:bd:63:75:18:77:
         25:fb:ac:4f:0c:60:21:3d:b8:2c:26:88:5e:79:be:43:cf:aa:
         c1:37:af:c0:15:d6:29:31:42:88:f2:e8:83:98:fd:ba:13:92:
         c4:5b:d5:e8:3d:33:20:36:04:9c:8a:c5:60:9b:4e:a6:4d:a0:
         9b:bf:0a:2c:af:14:a3:b4:b7:62:2b:b8:d5:c3:f1:15:a4:64:
         bf:04:86:95:58:42:50:24:a2:81:15:37:c3:08:08:3f:18:f9:
         49:76:34:8e:27:e7:ed:5a:23:19:8e:b6:2d:af:2b:10:20:3a:
         80:62:7b:fa:93:d9:f8:bd:8e:68:d1:7f:41:31:17:7b:3d:17:
         22:d5:eb:51:c0:24:b5:06:dc:12:19:51:37:5d:41:e7:54:94:
         31:1a:fd:f2:e7:5b:10:b6:e8:df:b5:bf:5a:94:78:6a:9d:27:
         46:09:f8:de:54:ee:2b:40:cb:80:3c:5f:e1:f6:18:86:5a:48:
         ad:7d:34:69:35:17:64:c7:5a:da:c2:fe:9b:9e:c9:28:b6:15:
         61:25:43:28:b8:98:c6:94:bb:d0:8a:ef:8a:b6:d4:8c:ba:42:
         be:31:48:5a:28:df:d4:6e:a7:07:cf:71:06:31:4b:f3:15:f9:
         e0:ad:79:de
-----BEGIN CERTIFICATE-----
MIIDgzCCAmugAwIBAgIBAjANBgkqhkiG9w0BAQUFADAPMQ0wCwYDVQQDDARSb290
MB4XDTE4MDEwMTEyMDAwMFoXDTI0MDEwMTEyMDAwMFowFzEVMBMGA1UEAwwMSW50
ZXJtZWRpYXRlMIIBIjANBgkqhkiG9w0BAQEFAAOCAQ8AMIIBCgKCAQEA0UFAb8sl
Bdkp0KPH/i/wU61GNhmqsR8/eqLg+wMrd2VqeevzoxYTNIM7Qt6iu+K/2NJ1PUg4
hrsqfRSjiPd8APQKa2uqm0QkYv7bo0JVFWcqMv+yTYCT0ITvG9x8rFYtVAgC9hhu
tYCod1IfuCwJbcz4HASRYm4e3R2JsvEjC01MbNpJPWGDcg9mNhI/8/9TUnNToco4
vcNIv3ovExnXwijhbzIAXmSsSwV6d2JXValZg9Xtoy4oNHF5L7nDnt+zKrFZzQQA
HYsRVq7GZ/ZPHVgHZeCwL+9Xbd7BoHxuOKhFJiGW4PbvDijPAXBX3CAVCK3o45h0
jFQywSgX4N6hiwIDAQABo4HhMIHeMB0GA1UdDgQWBBTuxpplzPvOoD4XAvloEoa2
IglgtDAfBgNVHSMEGDAWgBRCdUE0xVmfmaObHAxX21zHwUi3kTA3BggrBgEFBQcB
AQQrMCkwJwYIKwYBBQUHMAKGG2h0dHA6Ly91cmwtZm9yLWFpYS9Sb290LmNlcjAs
BgNVHR8EJTAjMCGgH6AdhhtodHRwOi8vdXJsLWZvci1jcmwvUm9vdC5jcmwwDgYD
VR0PAQH/BAQDAgEGMA8GA1UdEwEB/wQFMAMBAf8wFAYDVR0lBA0wCwYJYIZIAYb4
QgQBMA0GCSqGSIb3DQEBBQUAA4IBAQBfxVqiTBqJcGf1C/cDvWN1GHcl+6xPDGAh
PbgsJoheeb5Dz6rBN6/AFdYpMUKI8uiDmP26E5LEW9XoPTMgNgScisVgm06mTaCb
vwosrxSjtLdiK7jVw/EVpGS/BIaVWEJQJKKBFTfDCAg/GPlJdjSOJ+ftWiMZjrYt
rysQIDqAYnv6k9n4vY5o0X9BMRd7PRci1etRwCS1BtwSGVE3XUHnVJQxGv3y51sQ
tujftb9alHhqnSdGCfjeVO4rQMuAPF/h9hiGWkitfTRpNRdkx1rawv6bnskothVh
JUMouJjGlLvQiu+KttSMukK+MUhaKN/UbqcHz3EGMUvzFfngrXne
-----END CERTIFICATE-----

Certificate:
    Data:
        Version: 3 (0x2)
        Serial Number: 1 (0x1)
    Signature Algorithm: sha256WithRSAEncryption
        Issuer: CN=Root
        Validity
            Not Before: Jan  1 12:00:00 2018 GMT
            Not After : Jan  1 12:00:00 2024 GMT
        Subject: CN=Root
        Subject Public Key Info:
            Public Key Algorithm: rsaEncryption
                Public-Key: (2048 bit)
                Modulus:
                    00:c3:96:66:c7:e7:fd:21:14:ec:df:4a:05:1a:8c:
                    22:da:8f:3e:b7:8e:ca:a2:de:d7:e3:08:05:cd:28:
                    1c:da:d4:99:ba:ad:de:92:07:44:18:55:e7:b5:41:
                    6b:38:64:18:06:ab:6c:b8:ad:3d:b8:4e:c8:fa:8c:
                    fc:58:2c:2c:a8:42:08:28:b4:85:2a:aa:57:e2:a8:
                    76:4a:6e:fe:38:2f:d1:14:c6:52:6f:05:a4:89:54:
                    c2:0f:f0:93:83:09:b7:55:56:94:7b:57:65:87:09:
                    dd:61:ea:1a:02:3c:24:a5:cc:2d:d3:7c:0a:dc:2e:
                    67:a2:7f:91:ad:b4:76:76:02:ac:7f:85:5f:61:86:
                    0c:60:15:a0:82:7f:85:16:f4:10:8d:49:27:e4:33:
                    58:75:55:6b:5a:ab:c7:d1:bd:3d:a8:3b:68:1b:b4:
                    de:68:89:c4:87:fe:87:04:d4:52:f3:8f:fa:2e:44:
                    79:c1:62:46:b7:88:4c:bb:75:61:fd:e6:c5:6a:fb:
                    a8:3b:ef:a7:e6:1a:1e:44:2d:61:a7:4e:63:5e:66:
                    b8:f7:85:60:74:8b:ea:20:82:84:84:71:f5:1d:c6:
                    0c:c2:ee:11:78:01:ae:44:5a:e3:7b:97:2e:01:d0:
                    18:91:77:01:23:7f:d2:21:73:f4:f3:9a:94:ad:93:
                    2e:a1
                Exponent: 65537 (0x10001)
        X509v3 extensions:
            X509v3 Subject Key Identifier: 
                42:75:41:34:C5:59:9F:99:A3:9B:1C:0C:57:DB:5C:C7:C1:48:B7:91
            X509v3 Authority Key Identifier: 
                keyid:42:75:41:34:C5:59:9F:99:A3:9B:1C:0C:57:DB:5C:C7:C1:48:B7:91

            Authority Information Access: 
                CA Issuers - URI:http://url-for-aia/Root.cer

            X509v3 CRL Distribution Points: 

                Full Name:
                  URI:http://url-for-crl/Root.crl

            X509v3 Key Usage: critical
                Certificate Sign, CRL Sign
            X509v3 Basic Constraints: critical
                CA:TRUE
    Signature Algorithm: sha256WithRSAEncryption
         43:e3:e1:a6:ab:7e:f6:7e:18:40:21:45:2d:f4:a6:01:25:92:
         c5:e6:1c:36:3d:b1:8e:e0:74:bc:ae:5c:6b:3a:47:00:5d:f2:
         5e:6b:48:4b:24:b3:18:38:2d:cc:95:58:6e:3b:34:23:56:9c:
         fa:98:f8:b3:de:16:c6:d4:55:71:b5:77:a1:b2:e8:d6:43:ca:
         b3:56:c1:76:0a:9c:67:17:08:7b:ca:05:01:21:79:04:a8:75:
         25:7c:59:44:a0:14:b0:75:0d:5c:0d:86:a2:48:6b:db:aa:ff:
         d9:04:e6:4d:1f:c2:cd:d4:d0:bc:e4:20:14:06:83:2f:d5:c7:
         93:48:1d:37:de:76:c4:31:d2:f3:cb:42:ae:13:19:d5:ae:bb:
         4c:ee:9b:75:43:0f:98:b1:78:9d:c0:99:53:c8:93:9b:ad:b2:
         84:bf:ea:3f:1e:10:91:6a:df:90:bb:7d:b9:3f:ce:0f:3a:e7:
         55:74:3d:5d:4d:02:30:67:55:4d:68:83:e1:cb:d0:c2:c5:8c:
         29:a7:fc:75:32:99:87:8f:44:dc:ae:95:df:4b:1e:a9:0a:4c:
         4b:cc:c5:9a:43:24:59:00:bc:2d:98:87:14:7c:8c:bf:87:95:
         06:3f:d7:a9:f3:07:89:81:58:a6:40:25:bd:9f:18:d4:67:07:
         78:37:3f:5d
-----BEGIN CERTIFICATE-----
MIIDZTCCAk2gAwIBAgIBATANBgkqhkiG9w0BAQsFADAPMQ0wCwYDVQQDDARSb290
MB4XDTE4MDEwMTEyMDAwMFoXDTI0MDEwMTEyMDAwMFowDzENMAsGA1UEAwwEUm9v
dDCCASIwDQYJKoZIhvcNAQEBBQADggEPADCCAQoCggEBAMOWZsfn/SEU7N9KBRqM
ItqPPreOyqLe1+MIBc0oHNrUmbqt3pIHRBhV57VBazhkGAarbLitPbhOyPqM/Fgs
LKhCCCi0hSqqV+Kodkpu/jgv0RTGUm8FpIlUwg/wk4MJt1VWlHtXZYcJ3WHqGgI8
JKXMLdN8CtwuZ6J/ka20dnYCrH+FX2GGDGAVoIJ/hRb0EI1JJ+QzWHVVa1qrx9G9
Pag7aBu03miJxIf+hwTUUvOP+i5EecFiRreITLt1Yf3mxWr7qDvvp+YaHkQtYadO
Y15muPeFYHSL6iCChIRx9R3GDMLuEXgBrkRa43uXLgHQGJF3ASN/0iFz9POalK2T
LqECAwEAAaOByzCByDAdBgNVHQ4EFgQUQnVBNMVZn5mjmxwMV9tcx8FIt5EwHwYD
VR0jBBgwFoAUQnVBNMVZn5mjmxwMV9tcx8FIt5EwNwYIKwYBBQUHAQEEKzApMCcG
CCsGAQUFBzAChhtodHRwOi8vdXJsLWZvci1haWEvUm9vdC5jZXIwLAYDVR0fBCUw
IzAhoB+gHYYbaHR0cDovL3VybC1mb3ItY3JsL1Jvb3QuY3JsMA4GA1UdDwEB/wQE
AwIBBjAPBgNVHRMBAf8EBTADAQH/MA0GCSqGSIb3DQEBCwUAA4IBAQBD4+Gmq372
fhhAIUUt9KYBJZLF5hw2PbGO4HS8rlxrOkcAXfJea0hLJLMYOC3MlVhuOzQjVpz6
mPiz3hbG1FVxtXehsujWQ8qzVsF2CpxnFwh7ygUBIXkEqHUlfFlEoBSwdQ1cDYai
SGvbqv/ZBOZNH8LN1NC85CAUBoMv1ceTSB033nbEMdLzy0KuExnVrrtM7pt1Qw+Y
sXidwJlTyJObrbKEv+o/HhCRat+Qu325P84POudVdD1dTQIwZ1VNaIPhy9DCxYwp
p/x1MpmHj0TcrpXfSx6pCkxLzMWaQyRZALwtmIcUfIy/h5UGP9ep8weJgVimQCW9
nxjUZwd4Nz9d
-----END CERTIFICATE-----
