[Created by: ./generate-chains.py]

Generates certificate chains where the intermediate contains netscape server
gated crypto rather than serverAuth.

Certificate:
    Data:
        Version: 3 (0x2)
        Serial Number: 2 (0x2)
    Signature Algorithm: sha256WithRSAEncryption
        Issuer: CN=Intermediate
        Validity
            Not Before: Jan  1 12:00:00 2018 GMT
            Not After : Jan  1 12:00:00 2024 GMT
        Subject: CN=Target
        Subject Public Key Info:
            Public Key Algorithm: rsaEncryption
                Public-Key: (2048 bit)
                Modulus:
                    00:c8:af:a5:d9:15:56:dd:ec:b1:41:dd:34:36:48:
                    ab:5a:3f:2e:6a:14:16:38:1f:c2:ad:27:64:f2:72:
                    54:a1:81:73:9c:fd:3a:37:2c:64:f9:e2:0a:bd:0f:
                    74:9a:70:ea:9c:6e:c9:64:e9:92:a4:bf:9a:30:2c:
                    9a:8f:4c:eb:12:1e:58:08:f5:6a:4b:72:e0:a8:a9:
                    22:81:ca:cd:7c:78:cd:24:9b:90:8a:7d:ac:79:cf:
                    40:a9:d0:f6:a4:78:ef:fd:c3:b3:9d:d3:ea:51:ee:
                    c7:ed:f5:2b:36:5c:50:11:be:44:a9:29:cd:d6:79:
                    bc:bd:5b:a5:46:d1:a7:86:a5:86:2a:73:f5:ba:f9:
                    f4:5e:9c:94:9e:95:81:ec:42:f9:83:f1:4e:a6:eb:
                    c9:a1:3c:e9:97:80:cb:ee:4d:06:45:75:a7:38:db:
                    f2:a9:17:12:46:f1:99:1f:40:48:89:a0:bd:07:46:
                    a5:ab:11:03:fb:a5:2c:a2:c9:bc:f7:07:e5:9f:ce:
                    24:26:3e:a1:a8:ac:fe:ad:09:64:00:d9:da:3c:c8:
                    09:c3:bc:c7:64:b9:93:c2:b9:39:4e:3c:a0:7c:9c:
                    14:fc:e5:bd:1f:1e:fc:4d:e8:e5:aa:9d:ff:33:ed:
                    f7:10:0e:72:da:81:79:e9:1e:f3:65:03:b0:13:77:
                    30:a5
                Exponent: 65537 (0x10001)
        X509v3 extensions:
            X509v3 Subject Key Identifier: 
                63:59:54:71:BD:5B:C7:56:B3:FE:AE:DA:EF:DE:59:E2:60:69:B3:2C
            X509v3 Authority Key Identifier: 
                keyid:34:04:CA:F4:40:13:44:0C:86:E8:1F:47:3F:F0:E8:23:D6:EE:02:09

            Authority Information Access: 
                CA Issuers - URI:http://url-for-aia/Intermediate.cer

            X509v3 CRL Distribution Points: 

                Full Name:
                  URI:http://url-for-crl/Intermediate.crl

            X509v3 Key Usage: critical
                Digital Signature, Key Encipherment
            X509v3 Extended Key Usage: 
                TLS Web Server Authentication, TLS Web Client Authentication
            X509v3 Subject Alternative Name: 
                DNS:test.example
    Signature Algorithm: sha256WithRSAEncryption
         98:7d:59:64:5b:4d:6e:0e:96:03:de:22:0f:9e:cd:c7:09:37:
         d6:4a:4f:c7:12:16:28:9f:f8:f1:13:be:ac:fa:21:e1:47:ab:
         07:a2:25:ad:69:4e:78:a5:3f:78:0f:0e:7f:56:ab:db:28:54:
         09:d6:aa:88:1b:10:df:f1:5f:c5:3e:ec:d1:d3:76:5c:66:44:
         5c:9a:bd:5f:5a:77:b6:fb:fa:51:bf:be:bd:4e:9a:d3:90:0f:
         92:44:1e:7b:6e:d1:04:9a:38:8b:eb:be:d9:65:4e:84:2a:1b:
         b5:96:3b:12:8a:da:a9:5f:a9:ec:d1:4d:cc:b2:1a:22:ce:da:
         83:7e:32:5c:92:be:8b:4b:d6:d5:32:33:a2:ff:8e:7c:17:d6:
         3f:c4:d9:1b:5c:d6:da:2f:0a:fd:1a:56:79:f4:e6:68:d7:ef:
         fa:c0:34:1f:13:84:61:95:93:1f:d8:44:54:a7:86:2c:a5:8a:
         de:ec:ec:17:c0:7c:2f:6c:c1:d6:ab:a2:cc:e4:b1:54:1f:32:
         07:cb:05:b8:0f:32:f2:99:a6:13:74:62:ce:fe:5b:74:c9:62:
         f4:db:a6:44:be:5f:5e:78:98:8c:b4:05:fa:20:55:f6:a4:4f:
         59:1f:6a:1e:41:83:61:28:22:b5:c5:ee:ab:b3:9b:c2:ae:bd:
         dd:bf:7b:ca
-----BEGIN CERTIFICATE-----
MIIDpzCCAo+gAwIBAgIBAjANBgkqhkiG9w0BAQsFADAXMRUwEwYDVQQDDAxJbnRl
cm1lZGlhdGUwHhcNMTgwMTAxMTIwMDAwWhcNMjQwMTAxMTIwMDAwWjARMQ8wDQYD
VQQDDAZUYXJnZXQwggEiMA0GCSqGSIb3DQEBAQUAA4IBDwAwggEKAoIBAQDIr6XZ
FVbd7LFB3TQ2SKtaPy5qFBY4H8KtJ2TyclShgXOc/To3LGT54gq9D3SacOqcbslk
6ZKkv5owLJqPTOsSHlgI9WpLcuCoqSKBys18eM0km5CKfax5z0Cp0PakeO/9w7Od
0+pR7sft9Ss2XFARvkSpKc3Weby9W6VG0aeGpYYqc/W6+fRenJSelYHsQvmD8U6m
68mhPOmXgMvuTQZFdac42/KpFxJG8ZkfQEiJoL0HRqWrEQP7pSyiybz3B+WfziQm
PqGorP6tCWQA2do8yAnDvMdkuZPCuTlOPKB8nBT85b0fHvxN6OWqnf8z7fcQDnLa
gXnpHvNlA7ATdzClAgMBAAGjggECMIH/MB0GA1UdDgQWBBRjWVRxvVvHVrP+rtrv
3lniYGmzLDAfBgNVHSMEGDAWgBQ0BMr0QBNEDIboH0c/8Ogj1u4CCTA/BggrBgEF
BQcBAQQzMDEwLwYIKwYBBQUHMAKGI2h0dHA6Ly91cmwtZm9yLWFpYS9JbnRlcm1l
ZGlhdGUuY2VyMDQGA1UdHwQtMCswKaAnoCWGI2h0dHA6Ly91cmwtZm9yLWNybC9J
bnRlcm1lZGlhdGUuY3JsMA4GA1UdDwEB/wQEAwIFoDAdBgNVHSUEFjAUBggrBgEF
BQcDAQYIKwYBBQUHAwIwFwYDVR0RBBAwDoIMdGVzdC5leGFtcGxlMA0GCSqGSIb3
DQEBCwUAA4IBAQCYfVlkW01uDpYD3iIPns3HCTfWSk/HEhYon/jxE76s+iHhR6sH
oiWtaU54pT94Dw5/VqvbKFQJ1qqIGxDf8V/FPuzR03ZcZkRcmr1fWne2+/pRv769
TprTkA+SRB57btEEmjiL677ZZU6EKhu1ljsSitqpX6ns0U3MshoiztqDfjJckr6L
S9bVMjOi/458F9Y/xNkbXNbaLwr9GlZ59OZo1+/6wDQfE4RhlZMf2ERUp4YspYre
7OwXwHwvbMHWq6LM5LFUHzIHywW4DzLymaYTdGLO/lt0yWL026ZEvl9eeJiMtAX6
IFX2pE9ZH2oeQYNhKCK1xe6rs5vCrr3dv3vK
-----END CERTIFICATE-----

Certificate:
    Data:
        Version: 3 (0x2)
        Serial Number: 4 (0x4)
    Signature Algorithm: sha256WithRSAEncryption
        Issuer: CN=Root
        Validity
            Not Before: Jan  1 12:00:00 2018 GMT
            Not After : Jan  1 12:00:00 2024 GMT
        Subject: CN=Intermediate
        Subject Public Key Info:
            Public Key Algorithm: rsaEncryption
                Public-Key: (2048 bit)
                Modulus:
                    00:9a:21:10:93:91:7b:75:0d:a8:b0:51:a1:b8:2c:
                    87:b9:1c:9f:63:63:7a:f5:03:a3:89:4c:5e:b5:03:
                    e9:50:32:c2:e2:30:68:9e:16:ec:ee:70:15:74:47:
                    0f:cd:ea:5d:61:28:1d:0b:3f:37:39:83:ae:f0:64:
                    05:83:15:e6:2d:cb:e9:69:1d:98:bd:3a:cf:25:f6:
                    21:a2:cf:e8:57:ac:bb:97:32:66:51:bb:c3:3f:4c:
                    f9:e8:ac:27:30:00:e5:e3:f5:64:f1:e4:f2:79:93:
                    6a:56:f6:99:28:81:f2:23:13:ac:97:e2:39:d0:80:
                    91:8e:f2:c5:30:cd:46:71:3c:88:ca:03:b5:74:a2:
                    dc:db:e1:ae:70:2a:42:b1:99:b8:d5:48:60:2f:1e:
                    da:d3:1f:27:8b:6c:12:40:3d:5d:eb:0d:e8:f0:e3:
                    f0:4a:8b:cd:74:62:e8:06:44:ca:d8:5e:2a:6d:09:
                    4d:7b:8e:47:1c:04:12:da:ea:e5:6f:6c:41:2c:23:
                    1d:39:83:d0:44:a5:7c:c6:13:0e:6c:73:2a:06:71:
                    4f:65:ba:b1:5e:db:d3:ec:ca:ae:40:5e:24:87:63:
                    2d:ae:4b:d5:f6:4c:25:fc:3f:d9:6e:96:65:c8:b2:
                    8b:1a:a3:ed:33:b4:3a:f3:cc:4a:c5:fc:66:81:3f:
                    89:59
                Exponent: 65537 (0x10001)
        X509v3 extensions:
            X509v3 Subject Key Identifier: 
                34:04:CA:F4:40:13:44:0C:86:E8:1F:47:3F:F0:E8:23:D6:EE:02:09
            X509v3 Authority Key Identifier: 
                keyid:4E:42:54:6A:32:D3:BE:9E:70:41:47:41:3E:90:BA:86:3F:D4:FD:6C

            Authority Information Access: 
                CA Issuers - URI:http://url-for-aia/Root.cer

            X509v3 CRL Distribution Points: 

                Full Name:
                  URI:http://url-for-crl/Root.crl

            X509v3 Key Usage: critical
                Certificate Sign, CRL Sign
            X509v3 Basic Constraints: critical
                CA:TRUE
            X509v3 Extended Key Usage: 
                Netscape Server Gated Crypto
    Signature Algorithm: sha256WithRSAEncryption
         44:9c:78:b7:b1:de:61:f3:63:e5:0e:ab:eb:2a:d7:61:79:0c:
         14:03:b2:87:0e:4e:eb:f4:8e:12:9a:24:16:fa:99:39:30:b3:
         63:c0:c6:52:bd:b5:7e:5c:2f:ae:41:d9:43:ed:e8:ea:b4:a6:
         dc:41:ca:1d:4b:e0:b3:f3:fe:f9:4f:6e:64:11:c9:ee:44:e8:
         21:a0:c1:d7:ca:b7:f6:aa:98:c4:3f:b0:34:28:fe:03:d9:79:
         09:f8:a6:c9:a7:23:06:d9:f0:2d:be:71:7c:3a:ac:11:d3:b7:
         5b:a2:d9:96:94:56:41:36:1e:f6:8a:5a:77:26:d4:57:c6:8d:
         94:06:b5:50:1c:a6:ed:59:e8:10:d8:56:96:c5:63:6b:ff:82:
         82:b1:2e:8b:2e:12:5e:fd:f8:3a:eb:55:6a:f3:11:d8:33:09:
         0a:91:ac:a3:f8:4e:8f:a5:04:31:d0:92:96:f6:22:e3:6c:b8:
         db:32:ce:d6:24:a3:a4:e1:18:e9:c1:c1:92:fb:86:04:bc:c7:
         21:06:0a:e1:06:57:db:4d:ad:ae:5a:a3:05:d9:0b:0e:81:2a:
         55:99:e0:78:96:66:13:20:5c:bf:a1:05:90:e7:58:7a:76:7d:
         9d:1d:b0:ad:d1:c9:a6:dc:c3:5d:cb:ff:1e:fd:1f:e8:6c:2f:
         76:84:91:90
-----BEGIN CERTIFICATE-----
MIIDgzCCAmugAwIBAgIBBDANBgkqhkiG9w0BAQsFADAPMQ0wCwYDVQQDDARSb290
MB4XDTE4MDEwMTEyMDAwMFoXDTI0MDEwMTEyMDAwMFowFzEVMBMGA1UEAwwMSW50
ZXJtZWRpYXRlMIIBIjANBgkqhkiG9w0BAQEFAAOCAQ8AMIIBCgKCAQEAmiEQk5F7
dQ2osFGhuCyHuRyfY2N69QOjiUxetQPpUDLC4jBonhbs7nAVdEcPzepdYSgdCz83
OYOu8GQFgxXmLcvpaR2YvTrPJfYhos/oV6y7lzJmUbvDP0z56KwnMADl4/Vk8eTy
eZNqVvaZKIHyIxOsl+I50ICRjvLFMM1GcTyIygO1dKLc2+GucCpCsZm41UhgLx7a
0x8ni2wSQD1d6w3o8OPwSovNdGLoBkTK2F4qbQlNe45HHAQS2urlb2xBLCMdOYPQ
RKV8xhMObHMqBnFPZbqxXtvT7MquQF4kh2MtrkvV9kwl/D/ZbpZlyLKLGqPtM7Q6
88xKxfxmgT+JWQIDAQABo4HhMIHeMB0GA1UdDgQWBBQ0BMr0QBNEDIboH0c/8Ogj
1u4CCTAfBgNVHSMEGDAWgBROQlRqMtO+nnBBR0E+kLqGP9T9bDA3BggrBgEFBQcB
AQQrMCkwJwYIKwYBBQUHMAKGG2h0dHA6Ly91cmwtZm9yLWFpYS9Sb290LmNlcjAs
BgNVHR8EJTAjMCGgH6AdhhtodHRwOi8vdXJsLWZvci1jcmwvUm9vdC5jcmwwDgYD
VR0PAQH/BAQDAgEGMA8GA1UdEwEB/wQFMAMBAf8wFAYDVR0lBA0wCwYJYIZIAYb4
QgQBMA0GCSqGSIb3DQEBCwUAA4IBAQBEnHi3sd5h82PlDqvrKtdheQwUA7KHDk7r
9I4SmiQW+pk5MLNjwMZSvbV+XC+uQdlD7ejqtKbcQcodS+Cz8/75T25kEcnuROgh
oMHXyrf2qpjEP7A0KP4D2XkJ+KbJpyMG2fAtvnF8OqwR07dbotmWlFZBNh72ilp3
JtRXxo2UBrVQHKbtWegQ2FaWxWNr/4KCsS6LLhJe/fg661Vq8xHYMwkKkayj+E6P
pQQx0JKW9iLjbLjbMs7WJKOk4RjpwcGS+4YEvMchBgrhBlfbTa2uWqMF2QsOgSpV
meB4lmYTIFy/oQWQ51h6dn2dHbCt0cmm3MNdy/8e/R/obC92hJGQ
-----END CERTIFICATE-----

Certificate:
    Data:
        Version: 3 (0x2)
        Serial Number: 3 (0x3)
    Signature Algorithm: sha256WithRSAEncryption
        Issuer: CN=Root
        Validity
            Not Before: Jan  1 12:00:00 2018 GMT
            Not After : Jan  1 12:00:00 2024 GMT
        Subject: CN=Root
        Subject Public Key Info:
            Public Key Algorithm: rsaEncryption
                Public-Key: (2048 bit)
                Modulus:
                    00:e2:b0:53:05:80:84:a4:62:d7:02:96:95:55:ad:
                    63:c9:cd:d7:46:41:1a:cb:b7:0d:6c:70:75:05:e6:
                    ea:a8:f6:64:dd:9e:b8:f7:a3:da:05:50:14:ad:0b:
                    fd:1f:8d:7f:d0:03:ce:ec:7d:de:f3:5e:eb:8b:f0:
                    db:98:70:cc:c2:c0:a9:f7:2c:e7:27:04:a5:79:10:
                    47:6d:a7:80:22:ba:0e:0b:28:e5:2a:f1:69:14:a2:
                    dd:a4:a8:ac:67:76:a0:db:8b:78:c0:0b:7e:2c:9c:
                    65:f6:e5:40:b7:c0:ca:b3:f0:1e:74:69:77:45:38:
                    e1:8c:de:c9:1f:fc:67:28:ee:22:ae:4d:3d:8c:6b:
                    63:62:9f:bf:ef:67:7d:e6:ee:a4:d7:41:c2:62:c5:
                    f2:3c:49:af:f9:44:74:b4:a7:26:f8:bd:ed:57:ec:
                    ed:16:2c:42:77:3d:85:69:e8:48:7e:d7:70:05:21:
                    b9:15:96:0b:5a:5d:ac:ee:64:46:1b:4c:eb:58:b0:
                    fd:48:fe:c1:02:e7:d0:c0:0b:52:aa:e7:51:9c:93:
                    91:46:05:ed:23:2e:c3:0b:0e:50:0e:6e:38:ac:31:
                    69:7d:70:d2:40:dd:7d:41:3e:08:31:78:c6:e3:57:
                    1d:c5:53:e7:91:6d:de:bc:de:3f:2e:72:de:e2:a0:
                    63:0b
                Exponent: 65537 (0x10001)
        X509v3 extensions:
            X509v3 Subject Key Identifier: 
                4E:42:54:6A:32:D3:BE:9E:70:41:47:41:3E:90:BA:86:3F:D4:FD:6C
            X509v3 Authority Key Identifier: 
                keyid:4E:42:54:6A:32:D3:BE:9E:70:41:47:41:3E:90:BA:86:3F:D4:FD:6C

            Authority Information Access: 
                CA Issuers - URI:http://url-for-aia/Root.cer

            X509v3 CRL Distribution Points: 

                Full Name:
                  URI:http://url-for-crl/Root.crl

            X509v3 Key Usage: critical
                Certificate Sign, CRL Sign
            X509v3 Basic Constraints: critical
                CA:TRUE
    Signature Algorithm: sha256WithRSAEncryption
         81:b3:d1:02:10:68:98:bc:a5:61:4e:f9:e7:ef:eb:7a:1b:b8:
         81:ba:1b:47:23:35:f6:eb:62:d5:a4:b9:48:a7:58:71:7f:b9:
         4d:3c:22:08:eb:a1:89:82:d6:39:2c:ee:5d:a8:59:56:7e:59:
         12:c9:2d:61:60:8a:9f:ae:90:53:ac:b4:5d:0e:3e:14:9f:da:
         ee:a6:42:bf:e2:00:dc:80:56:7f:7e:bd:16:13:41:26:dd:ff:
         c4:1d:94:71:fa:18:fb:50:9a:92:4e:ba:53:79:62:5b:8b:aa:
         26:f8:1d:c8:74:06:17:6c:aa:1a:2f:1e:ee:b2:32:81:56:51:
         60:25:d8:35:d9:b6:be:36:ba:11:cf:53:4f:23:c9:63:ca:d3:
         ad:d5:50:bf:9e:f3:fd:c9:a0:87:e8:33:3e:f4:53:62:ed:a6:
         aa:07:cc:d0:7b:4a:d1:c9:04:48:9b:2f:9f:58:d8:f6:21:0a:
         6e:eb:63:53:10:39:7b:b2:29:7f:79:0a:41:7f:03:b7:a1:8e:
         48:30:f4:37:9f:04:aa:97:e4:73:d0:89:00:0c:26:cc:48:86:
         c6:b9:b7:44:7a:73:8b:2f:0c:10:b2:f2:95:98:ee:51:6e:91:
         7e:96:03:75:4b:dd:ab:51:10:f9:21:f7:bc:59:e3:c5:5b:14:
         67:cc:b1:c2
-----BEGIN CERTIFICATE-----
MIIDZTCCAk2gAwIBAgIBAzANBgkqhkiG9w0BAQsFADAPMQ0wCwYDVQQDDARSb290
MB4XDTE4MDEwMTEyMDAwMFoXDTI0MDEwMTEyMDAwMFowDzENMAsGA1UEAwwEUm9v
dDCCASIwDQYJKoZIhvcNAQEBBQADggEPADCCAQoCggEBAOKwUwWAhKRi1wKWlVWt
Y8nN10ZBGsu3DWxwdQXm6qj2ZN2euPej2gVQFK0L/R+Nf9ADzux93vNe64vw25hw
zMLAqfcs5ycEpXkQR22ngCK6Dgso5SrxaRSi3aSorGd2oNuLeMALfiycZfblQLfA
yrPwHnRpd0U44YzeyR/8ZyjuIq5NPYxrY2Kfv+9nfebupNdBwmLF8jxJr/lEdLSn
Jvi97Vfs7RYsQnc9hWnoSH7XcAUhuRWWC1pdrO5kRhtM61iw/Uj+wQLn0MALUqrn
UZyTkUYF7SMuwwsOUA5uOKwxaX1w0kDdfUE+CDF4xuNXHcVT55Ft3rzePy5y3uKg
YwsCAwEAAaOByzCByDAdBgNVHQ4EFgQUTkJUajLTvp5wQUdBPpC6hj/U/WwwHwYD
VR0jBBgwFoAUTkJUajLTvp5wQUdBPpC6hj/U/WwwNwYIKwYBBQUHAQEEKzApMCcG
CCsGAQUFBzAChhtodHRwOi8vdXJsLWZvci1haWEvUm9vdC5jZXIwLAYDVR0fBCUw
IzAhoB+gHYYbaHR0cDovL3VybC1mb3ItY3JsL1Jvb3QuY3JsMA4GA1UdDwEB/wQE
AwIBBjAPBgNVHRMBAf8EBTADAQH/MA0GCSqGSIb3DQEBCwUAA4IBAQCBs9ECEGiY
vKVhTvnn7+t6G7iBuhtHIzX262LVpLlIp1hxf7lNPCII66GJgtY5LO5dqFlWflkS
yS1hYIqfrpBTrLRdDj4Un9rupkK/4gDcgFZ/fr0WE0Em3f/EHZRx+hj7UJqSTrpT
eWJbi6om+B3IdAYXbKoaLx7usjKBVlFgJdg12ba+NroRz1NPI8ljytOt1VC/nvP9
yaCH6DM+9FNi7aaqB8zQe0rRyQRImy+fWNj2IQpu62NTEDl7sil/eQpBfwO3oY5I
MPQ3nwSql+Rz0IkADCbMSIbGubdEenOLLwwQsvKVmO5RbpF+lgN1S92rURD5Ife8
WePFWxRnzLHC
-----END CERTIFICATE-----
