Certificate:
    Data:
        Version: 3 (0x2)
        Serial Number: 7 (0x7)
    Signature Algorithm: sha256WithRSAEncryption
        Issuer: CN=Root
        Validity
            Not Before: Jan  1 12:00:00 2015 GMT
            Not After : Jan  1 12:00:00 2021 GMT
        Subject: CN=O1
        Subject Public Key Info:
            Public Key Algorithm: rsaEncryption
                Public-Key: (2048 bit)
                Modulus:
                    00:d5:ac:80:14:b9:d2:78:ad:43:c8:51:69:3e:98:
                    7f:bd:a8:57:a3:65:28:19:6d:44:e5:6a:5d:f7:c2:
                    31:ed:4e:66:a9:f1:d2:9d:36:b6:b9:98:3f:d8:54:
                    d2:e9:77:3a:fb:9f:d5:c9:f9:c9:df:5e:b7:da:34:
                    42:f6:cb:e3:66:e0:b7:5a:82:9b:77:20:0f:b1:17:
                    1e:2a:70:62:d2:67:9b:a0:54:f2:1b:a4:9f:06:b7:
                    bb:af:5a:6f:55:b1:7e:f8:20:cb:ed:e4:55:d8:18:
                    cb:4f:0e:c3:c4:5d:13:fc:fd:d7:b1:1c:c5:58:81:
                    cf:e9:56:78:67:78:aa:fe:06:29:9e:34:3e:4b:fe:
                    7e:ec:22:16:15:d6:2b:c3:6e:17:23:42:1b:28:2e:
                    21:13:31:8b:8a:33:23:a2:67:f6:23:bc:f2:68:9b:
                    71:92:92:7f:23:09:53:96:67:3c:fe:c2:81:88:9f:
                    00:55:93:4d:b3:e7:02:01:13:48:4b:34:12:45:6e:
                    48:6a:88:21:33:ff:5a:03:49:56:a2:69:64:97:a4:
                    53:0e:90:73:84:c6:b8:28:b0:5b:c0:67:85:fd:9a:
                    25:f2:cf:0e:79:24:78:20:80:f0:2c:ae:46:8e:c5:
                    cf:29:be:7f:f5:7d:73:6d:aa:0b:10:59:4f:d6:46:
                    f1:bf
                Exponent: 65537 (0x10001)
        X509v3 extensions:
            X509v3 Subject Key Identifier: 
                9D:44:AA:2B:9B:4C:66:4C:20:C5:32:B2:EA:08:13:13:69:17:49:B1
            X509v3 Authority Key Identifier: 
                keyid:FF:8B:FC:A5:69:36:2F:62:3B:D4:1B:ED:58:2F:E9:77:3D:29:81:83

            Authority Information Access: 
                CA Issuers - URI:http://url-for-aia/Root.cer

            X509v3 CRL Distribution Points: 

                Full Name:
                  URI:http://url-for-crl/Root.crl

            X509v3 Key Usage: critical
                Certificate Sign, CRL Sign
            X509v3 Basic Constraints: critical
                CA:TRUE
    Signature Algorithm: sha256WithRSAEncryption
         6e:8f:9c:09:b3:53:32:b8:34:56:41:d4:ea:aa:bc:1e:9f:16:
         48:3f:3d:75:b7:96:f9:2d:17:e9:73:1a:fa:ff:de:98:f9:ce:
         01:e8:b8:00:ff:06:27:a1:16:a8:63:56:b3:79:98:94:6d:0c:
         af:9c:bf:1e:c4:a4:b8:1d:f2:fa:9d:a2:50:e7:5d:0d:ab:7e:
         78:df:94:58:06:37:96:13:be:39:f8:19:73:8d:21:cf:0c:64:
         68:ba:ce:f2:b6:19:3a:af:3d:1d:a6:55:bd:6e:a9:2b:fd:d2:
         8c:e7:b6:b0:d6:fa:61:49:0b:92:2b:11:73:aa:60:57:89:c3:
         0f:0c:c2:d1:a2:43:a2:1b:9c:4c:f6:af:dd:44:a9:b5:94:c5:
         bf:ab:6d:ba:ca:b8:91:a7:e3:14:5d:50:a3:89:95:0f:3b:df:
         f8:33:e1:49:28:19:82:84:37:fe:ba:ba:99:be:d3:10:4c:18:
         7a:86:92:da:16:00:18:ec:5b:ff:f0:ec:e0:72:da:e4:a9:8e:
         89:8c:d7:ec:68:b3:9a:43:da:78:84:47:37:d2:6d:a5:54:ba:
         20:6e:92:1e:72:f4:1a:d9:f3:38:9e:8a:e5:45:2b:1b:f8:97:
         98:bb:4c:6a:e3:57:30:b5:5d:34:0e:5d:d6:a3:4d:8e:37:fa:
         e3:4c:b0:70
-----BEGIN CERTIFICATE-----
MIIDYzCCAkugAwIBAgIBBzANBgkqhkiG9w0BAQsFADAPMQ0wCwYDVQQDDARSb290
MB4XDTE1MDEwMTEyMDAwMFoXDTIxMDEwMTEyMDAwMFowDTELMAkGA1UEAwwCTzEw
ggEiMA0GCSqGSIb3DQEBAQUAA4IBDwAwggEKAoIBAQDVrIAUudJ4rUPIUWk+mH+9
qFejZSgZbUTlal33wjHtTmap8dKdNra5mD/YVNLpdzr7n9XJ+cnfXrfaNEL2y+Nm
4Ldagpt3IA+xFx4qcGLSZ5ugVPIbpJ8Gt7uvWm9VsX74IMvt5FXYGMtPDsPEXRP8
/dexHMVYgc/pVnhneKr+BimeND5L/n7sIhYV1ivDbhcjQhsoLiETMYuKMyOiZ/Yj
vPJom3GSkn8jCVOWZzz+woGInwBVk02z5wIBE0hLNBJFbkhqiCEz/1oDSVaiaWSX
pFMOkHOExrgosFvAZ4X9miXyzw55JHgggPAsrkaOxc8pvn/1fXNtqgsQWU/WRvG/
AgMBAAGjgcswgcgwHQYDVR0OBBYEFJ1EqiubTGZMIMUysuoIExNpF0mxMB8GA1Ud
IwQYMBaAFP+L/KVpNi9iO9Qb7Vgv6Xc9KYGDMDcGCCsGAQUFBwEBBCswKTAnBggr
BgEFBQcwAoYbaHR0cDovL3VybC1mb3ItYWlhL1Jvb3QuY2VyMCwGA1UdHwQlMCMw
IaAfoB2GG2h0dHA6Ly91cmwtZm9yLWNybC9Sb290LmNybDAOBgNVHQ8BAf8EBAMC
AQYwDwYDVR0TAQH/BAUwAwEB/zANBgkqhkiG9w0BAQsFAAOCAQEAbo+cCbNTMrg0
VkHU6qq8Hp8WSD89dbeW+S0X6XMa+v/emPnOAei4AP8GJ6EWqGNWs3mYlG0Mr5y/
HsSkuB3y+p2iUOddDat+eN+UWAY3lhO+OfgZc40hzwxkaLrO8rYZOq89HaZVvW6p
K/3SjOe2sNb6YUkLkisRc6pgV4nDDwzC0aJDohucTPav3USptZTFv6ttusq4kafj
FF1Qo4mVDzvf+DPhSSgZgoQ3/rq6mb7TEEwYeoaS2hYAGOxb//Ds4HLa5KmOiYzX
7GizmkPaeIRHN9JtpVS6IG6SHnL0GtnzOJ6K5UUrG/iXmLtMauNXMLVdNA5d1qNN
jjf640ywcA==
-----END CERTIFICATE-----
