Certificate:
    Data:
        Version: 3 (0x2)
        Serial Number: 6 (0x6)
    Signature Algorithm: sha256WithRSAEncryption
        Issuer: CN=Root
        Validity
            Not Before: Jan  1 12:00:00 2015 GMT
            Not After : Jan  1 12:00:00 2021 GMT
        Subject: O=O1, O=O2
        Subject Public Key Info:
            Public Key Algorithm: rsaEncryption
                Public-Key: (2048 bit)
                Modulus:
                    00:d5:ac:80:14:b9:d2:78:ad:43:c8:51:69:3e:98:
                    7f:bd:a8:57:a3:65:28:19:6d:44:e5:6a:5d:f7:c2:
                    31:ed:4e:66:a9:f1:d2:9d:36:b6:b9:98:3f:d8:54:
                    d2:e9:77:3a:fb:9f:d5:c9:f9:c9:df:5e:b7:da:34:
                    42:f6:cb:e3:66:e0:b7:5a:82:9b:77:20:0f:b1:17:
                    1e:2a:70:62:d2:67:9b:a0:54:f2:1b:a4:9f:06:b7:
                    bb:af:5a:6f:55:b1:7e:f8:20:cb:ed:e4:55:d8:18:
                    cb:4f:0e:c3:c4:5d:13:fc:fd:d7:b1:1c:c5:58:81:
                    cf:e9:56:78:67:78:aa:fe:06:29:9e:34:3e:4b:fe:
                    7e:ec:22:16:15:d6:2b:c3:6e:17:23:42:1b:28:2e:
                    21:13:31:8b:8a:33:23:a2:67:f6:23:bc:f2:68:9b:
                    71:92:92:7f:23:09:53:96:67:3c:fe:c2:81:88:9f:
                    00:55:93:4d:b3:e7:02:01:13:48:4b:34:12:45:6e:
                    48:6a:88:21:33:ff:5a:03:49:56:a2:69:64:97:a4:
                    53:0e:90:73:84:c6:b8:28:b0:5b:c0:67:85:fd:9a:
                    25:f2:cf:0e:79:24:78:20:80:f0:2c:ae:46:8e:c5:
                    cf:29:be:7f:f5:7d:73:6d:aa:0b:10:59:4f:d6:46:
                    f1:bf
                Exponent: 65537 (0x10001)
        X509v3 extensions:
            X509v3 Subject Key Identifier: 
                9D:44:AA:2B:9B:4C:66:4C:20:C5:32:B2:EA:08:13:13:69:17:49:B1
            X509v3 Authority Key Identifier: 
                keyid:FF:8B:FC:A5:69:36:2F:62:3B:D4:1B:ED:58:2F:E9:77:3D:29:81:83

            Authority Information Access: 
                CA Issuers - URI:http://url-for-aia/Root.cer

            X509v3 CRL Distribution Points: 

                Full Name:
                  URI:http://url-for-crl/Root.crl

            X509v3 Key Usage: critical
                Certificate Sign, CRL Sign
            X509v3 Basic Constraints: critical
                CA:TRUE
    Signature Algorithm: sha256WithRSAEncryption
         c4:88:91:87:65:61:eb:c1:19:a7:69:2b:c6:d9:82:d3:a3:14:
         65:e1:5b:fd:a4:cf:63:6c:1a:a0:ad:52:13:d6:88:69:33:6f:
         be:91:df:34:e4:c1:2e:b0:27:b3:56:e1:4a:5a:50:34:68:4a:
         d7:bd:fb:b8:c1:3d:1e:05:71:c6:c5:4f:79:40:6e:73:ee:5d:
         11:81:d4:0c:c3:ac:ba:32:ea:bf:cf:34:6b:6c:e7:c9:40:c0:
         e0:e9:9d:33:2c:d7:dd:15:b2:67:9d:9c:8f:7d:8a:54:a6:a3:
         d0:3d:54:76:61:ef:98:e8:f9:3f:ce:4d:9c:29:4a:44:ca:91:
         f0:b6:18:2c:72:d3:12:b3:7e:e8:c2:93:d5:8c:7a:1e:7c:b2:
         08:ae:21:92:91:8e:1f:de:57:55:27:7d:a3:b8:e0:bd:4d:6b:
         a5:a3:f4:35:5d:b7:05:74:b2:9c:bc:e0:46:0c:c8:7f:45:db:
         73:03:d4:f7:93:9e:12:f4:25:4b:9f:b6:c8:85:3d:38:9d:da:
         36:69:d2:ce:4f:dd:4b:f2:a8:49:f5:74:b4:27:5d:a1:29:32:
         7d:0e:7f:5e:05:5d:bb:f1:04:6b:77:6f:70:b0:9a:50:62:6b:
         b5:6d:21:d8:3c:48:83:f4:cd:7f:39:f8:a3:67:ee:c2:22:96:
         15:49:3a:44
-----BEGIN CERTIFICATE-----
MIIDbjCCAlagAwIBAgIBBjANBgkqhkiG9w0BAQsFADAPMQ0wCwYDVQQDDARSb290
MB4XDTE1MDEwMTEyMDAwMFoXDTIxMDEwMTEyMDAwMFowGDEWMAkGA1UECgwCTzEw
CQYDVQQKDAJPMjCCASIwDQYJKoZIhvcNAQEBBQADggEPADCCAQoCggEBANWsgBS5
0nitQ8hRaT6Yf72oV6NlKBltROVqXffCMe1OZqnx0p02trmYP9hU0ul3Ovuf1cn5
yd9et9o0QvbL42bgt1qCm3cgD7EXHipwYtJnm6BU8huknwa3u69ab1Wxfvggy+3k
VdgYy08Ow8RdE/z917EcxViBz+lWeGd4qv4GKZ40Pkv+fuwiFhXWK8NuFyNCGygu
IRMxi4ozI6Jn9iO88mibcZKSfyMJU5ZnPP7CgYifAFWTTbPnAgETSEs0EkVuSGqI
ITP/WgNJVqJpZJekUw6Qc4TGuCiwW8Bnhf2aJfLPDnkkeCCA8CyuRo7Fzym+f/V9
c22qCxBZT9ZG8b8CAwEAAaOByzCByDAdBgNVHQ4EFgQUnUSqK5tMZkwgxTKy6ggT
E2kXSbEwHwYDVR0jBBgwFoAU/4v8pWk2L2I71BvtWC/pdz0pgYMwNwYIKwYBBQUH
AQEEKzApMCcGCCsGAQUFBzAChhtodHRwOi8vdXJsLWZvci1haWEvUm9vdC5jZXIw
LAYDVR0fBCUwIzAhoB+gHYYbaHR0cDovL3VybC1mb3ItY3JsL1Jvb3QuY3JsMA4G
A1UdDwEB/wQEAwIBBjAPBgNVHRMBAf8EBTADAQH/MA0GCSqGSIb3DQEBCwUAA4IB
AQDEiJGHZWHrwRmnaSvG2YLToxRl4Vv9pM9jbBqgrVIT1ohpM2++kd805MEusCez
VuFKWlA0aErXvfu4wT0eBXHGxU95QG5z7l0RgdQMw6y6Muq/zzRrbOfJQMDg6Z0z
LNfdFbJnnZyPfYpUpqPQPVR2Ye+Y6Pk/zk2cKUpEypHwthgsctMSs37owpPVjHoe
fLIIriGSkY4f3ldVJ32juOC9TWulo/Q1XbcFdLKcvOBGDMh/RdtzA9T3k54S9CVL
n7bIhT04ndo2adLOT91L8qhJ9XS0J12hKTJ9Dn9eBV278QRrd29wsJpQYmu1bSHY
PEiD9M1/OfijZ+7CIpYVSTpE
-----END CERTIFICATE-----
