Certificate:
    Data:
        Version: 3 (0x2)
        Serial Number: 5 (0x5)
    Signature Algorithm: sha256WithRSAEncryption
        Issuer: CN=Root
        Validity
            Not Before: Jan  1 12:00:00 2015 GMT
            Not After : Jan  1 12:00:00 2021 GMT
        Subject: O=\x00O\x001
        Subject Public Key Info:
            Public Key Algorithm: rsaEncryption
                Public-Key: (2048 bit)
                Modulus:
                    00:d5:ac:80:14:b9:d2:78:ad:43:c8:51:69:3e:98:
                    7f:bd:a8:57:a3:65:28:19:6d:44:e5:6a:5d:f7:c2:
                    31:ed:4e:66:a9:f1:d2:9d:36:b6:b9:98:3f:d8:54:
                    d2:e9:77:3a:fb:9f:d5:c9:f9:c9:df:5e:b7:da:34:
                    42:f6:cb:e3:66:e0:b7:5a:82:9b:77:20:0f:b1:17:
                    1e:2a:70:62:d2:67:9b:a0:54:f2:1b:a4:9f:06:b7:
                    bb:af:5a:6f:55:b1:7e:f8:20:cb:ed:e4:55:d8:18:
                    cb:4f:0e:c3:c4:5d:13:fc:fd:d7:b1:1c:c5:58:81:
                    cf:e9:56:78:67:78:aa:fe:06:29:9e:34:3e:4b:fe:
                    7e:ec:22:16:15:d6:2b:c3:6e:17:23:42:1b:28:2e:
                    21:13:31:8b:8a:33:23:a2:67:f6:23:bc:f2:68:9b:
                    71:92:92:7f:23:09:53:96:67:3c:fe:c2:81:88:9f:
                    00:55:93:4d:b3:e7:02:01:13:48:4b:34:12:45:6e:
                    48:6a:88:21:33:ff:5a:03:49:56:a2:69:64:97:a4:
                    53:0e:90:73:84:c6:b8:28:b0:5b:c0:67:85:fd:9a:
                    25:f2:cf:0e:79:24:78:20:80:f0:2c:ae:46:8e:c5:
                    cf:29:be:7f:f5:7d:73:6d:aa:0b:10:59:4f:d6:46:
                    f1:bf
                Exponent: 65537 (0x10001)
        X509v3 extensions:
            X509v3 Subject Key Identifier: 
                9D:44:AA:2B:9B:4C:66:4C:20:C5:32:B2:EA:08:13:13:69:17:49:B1
            X509v3 Authority Key Identifier: 
                keyid:FF:8B:FC:A5:69:36:2F:62:3B:D4:1B:ED:58:2F:E9:77:3D:29:81:83

            Authority Information Access: 
                CA Issuers - URI:http://url-for-aia/Root.cer

            X509v3 CRL Distribution Points: 

                Full Name:
                  URI:http://url-for-crl/Root.crl

            X509v3 Key Usage: critical
                Certificate Sign, CRL Sign
            X509v3 Basic Constraints: critical
                CA:TRUE
    Signature Algorithm: sha256WithRSAEncryption
         8b:c5:75:75:94:dd:8c:24:f7:e4:c5:fb:b3:06:5f:84:1c:29:
         b7:1f:3d:89:ef:5e:25:3e:cf:43:fb:ad:e1:84:d1:53:af:59:
         66:0e:f4:fd:f8:04:bc:2e:74:96:04:0e:af:10:8e:4c:d9:6d:
         2c:d9:f5:8e:b6:de:72:ff:54:ff:af:7d:41:f3:4b:f6:e0:e8:
         06:e8:c9:92:4e:0f:f2:9a:95:58:6f:a1:cf:2e:45:ca:77:f4:
         69:48:45:4e:0b:a9:cb:c9:25:da:84:33:a2:e5:7c:61:b6:aa:
         1f:cb:b1:f3:1a:30:b4:09:85:7c:34:b3:83:bd:9b:d5:40:8e:
         3c:62:56:e9:c3:f0:72:57:1d:00:98:2e:8a:00:75:fd:3a:a9:
         7f:63:80:64:d8:03:25:09:a7:89:ce:39:54:13:86:af:17:f1:
         f0:63:84:c1:e1:7f:67:f4:77:ee:eb:a8:bf:62:5e:df:51:14:
         e4:14:3e:53:eb:f9:75:c6:a6:c7:e8:9b:6f:bb:fe:c8:9c:4c:
         95:0b:22:8c:06:0f:a7:91:72:a6:ee:6d:bf:03:a2:05:de:68:
         e6:d3:00:b4:73:54:34:5f:f9:f3:8f:26:be:a6:6d:4f:37:23:
         2b:17:b6:04:a7:01:e9:39:88:36:79:a3:63:92:dd:22:25:54:
         11:01:84:7f
-----BEGIN CERTIFICATE-----
MIIDZTCCAk2gAwIBAgIBBTANBgkqhkiG9w0BAQsFADAPMQ0wCwYDVQQDDARSb290
MB4XDTE1MDEwMTEyMDAwMFoXDTIxMDEwMTEyMDAwMFowDzENMAsGA1UECh4EAE8A
MTCCASIwDQYJKoZIhvcNAQEBBQADggEPADCCAQoCggEBANWsgBS50nitQ8hRaT6Y
f72oV6NlKBltROVqXffCMe1OZqnx0p02trmYP9hU0ul3Ovuf1cn5yd9et9o0QvbL
42bgt1qCm3cgD7EXHipwYtJnm6BU8huknwa3u69ab1Wxfvggy+3kVdgYy08Ow8Rd
E/z917EcxViBz+lWeGd4qv4GKZ40Pkv+fuwiFhXWK8NuFyNCGyguIRMxi4ozI6Jn
9iO88mibcZKSfyMJU5ZnPP7CgYifAFWTTbPnAgETSEs0EkVuSGqIITP/WgNJVqJp
ZJekUw6Qc4TGuCiwW8Bnhf2aJfLPDnkkeCCA8CyuRo7Fzym+f/V9c22qCxBZT9ZG
8b8CAwEAAaOByzCByDAdBgNVHQ4EFgQUnUSqK5tMZkwgxTKy6ggTE2kXSbEwHwYD
VR0jBBgwFoAU/4v8pWk2L2I71BvtWC/pdz0pgYMwNwYIKwYBBQUHAQEEKzApMCcG
CCsGAQUFBzAChhtodHRwOi8vdXJsLWZvci1haWEvUm9vdC5jZXIwLAYDVR0fBCUw
IzAhoB+gHYYbaHR0cDovL3VybC1mb3ItY3JsL1Jvb3QuY3JsMA4GA1UdDwEB/wQE
AwIBBjAPBgNVHRMBAf8EBTADAQH/MA0GCSqGSIb3DQEBCwUAA4IBAQCLxXV1lN2M
JPfkxfuzBl+EHCm3Hz2J714lPs9D+63hhNFTr1lmDvT9+AS8LnSWBA6vEI5M2W0s
2fWOtt5y/1T/r31B80v24OgG6MmSTg/ympVYb6HPLkXKd/RpSEVOC6nLySXahDOi
5Xxhtqofy7HzGjC0CYV8NLODvZvVQI48Ylbpw/ByVx0AmC6KAHX9Oql/Y4Bk2AMl
CaeJzjlUE4avF/HwY4TB4X9n9Hfu66i/Yl7fURTkFD5T6/l1xqbH6Jtvu/7InEyV
CyKMBg+nkXKm7m2/A6IF3mjm0wC0c1Q0X/nzjya+pm1PNyMrF7YEpwHpOYg2eaNj
kt0iJVQRAYR/
-----END CERTIFICATE-----
