Certificate:
    Data:
        Version: 3 (0x2)
        Serial Number: 3 (0x3)
    Signature Algorithm: sha256WithRSAEncryption
        Issuer: CN=Root
        Validity
            Not Before: Jan  1 12:00:00 2015 GMT
            Not After : Jan  1 12:00:00 2021 GMT
        Subject: O=O2, O=O1
        Subject Public Key Info:
            Public Key Algorithm: rsaEncryption
                Public-Key: (2048 bit)
                Modulus:
                    00:d5:ac:80:14:b9:d2:78:ad:43:c8:51:69:3e:98:
                    7f:bd:a8:57:a3:65:28:19:6d:44:e5:6a:5d:f7:c2:
                    31:ed:4e:66:a9:f1:d2:9d:36:b6:b9:98:3f:d8:54:
                    d2:e9:77:3a:fb:9f:d5:c9:f9:c9:df:5e:b7:da:34:
                    42:f6:cb:e3:66:e0:b7:5a:82:9b:77:20:0f:b1:17:
                    1e:2a:70:62:d2:67:9b:a0:54:f2:1b:a4:9f:06:b7:
                    bb:af:5a:6f:55:b1:7e:f8:20:cb:ed:e4:55:d8:18:
                    cb:4f:0e:c3:c4:5d:13:fc:fd:d7:b1:1c:c5:58:81:
                    cf:e9:56:78:67:78:aa:fe:06:29:9e:34:3e:4b:fe:
                    7e:ec:22:16:15:d6:2b:c3:6e:17:23:42:1b:28:2e:
                    21:13:31:8b:8a:33:23:a2:67:f6:23:bc:f2:68:9b:
                    71:92:92:7f:23:09:53:96:67:3c:fe:c2:81:88:9f:
                    00:55:93:4d:b3:e7:02:01:13:48:4b:34:12:45:6e:
                    48:6a:88:21:33:ff:5a:03:49:56:a2:69:64:97:a4:
                    53:0e:90:73:84:c6:b8:28:b0:5b:c0:67:85:fd:9a:
                    25:f2:cf:0e:79:24:78:20:80:f0:2c:ae:46:8e:c5:
                    cf:29:be:7f:f5:7d:73:6d:aa:0b:10:59:4f:d6:46:
                    f1:bf
                Exponent: 65537 (0x10001)
        X509v3 extensions:
            X509v3 Subject Key Identifier: 
                9D:44:AA:2B:9B:4C:66:4C:20:C5:32:B2:EA:08:13:13:69:17:49:B1
            X509v3 Authority Key Identifier: 
                keyid:FF:8B:FC:A5:69:36:2F:62:3B:D4:1B:ED:58:2F:E9:77:3D:29:81:83

            Authority Information Access: 
                CA Issuers - URI:http://url-for-aia/Root.cer

            X509v3 CRL Distribution Points: 

                Full Name:
                  URI:http://url-for-crl/Root.crl

            X509v3 Key Usage: critical
                Certificate Sign, CRL Sign
            X509v3 Basic Constraints: critical
                CA:TRUE
    Signature Algorithm: sha256WithRSAEncryption
         1c:2a:00:f3:dc:1e:f2:14:2e:6c:5d:73:fe:64:8b:33:da:74:
         60:cc:aa:5a:86:a3:a1:35:53:f1:f1:66:47:50:db:42:30:cf:
         08:6f:fe:8f:f7:d9:f0:38:66:72:fa:b3:b0:a2:d7:00:11:03:
         b8:2e:fe:8d:6c:fa:7e:f3:d8:a7:d2:b3:74:b0:18:72:94:08:
         82:b5:c5:71:5b:89:92:6d:36:fe:60:c2:7a:dd:1e:dc:80:2a:
         8d:4a:e0:ad:6e:d7:a3:dd:37:40:49:6e:61:7e:ac:9e:43:bd:
         43:f5:8d:6c:9d:97:a7:68:97:85:dd:72:71:90:17:d3:ca:24:
         64:d0:12:ed:5f:e2:2f:20:7c:c7:13:6f:99:e6:d3:e5:a0:06:
         04:a7:bc:6e:86:88:aa:3e:84:02:a9:09:69:b2:ac:d3:8b:8a:
         44:30:a1:89:99:92:23:e5:32:d4:ec:7b:2d:3b:87:55:6c:84:
         e6:40:81:0f:3c:65:59:29:e0:b2:94:55:c2:81:41:21:fe:c3:
         4e:4c:76:22:29:75:02:9a:a1:f1:95:c4:3e:a3:36:e3:7a:c4:
         4d:6f:d3:38:a1:c6:b6:60:c7:4e:f1:dc:ec:9d:ab:af:d2:87:
         cd:5f:06:a6:3d:e0:1a:fa:3d:fb:68:48:3b:2f:c6:43:d6:81:
         e8:65:2c:c0
-----BEGIN CERTIFICATE-----
MIIDcDCCAligAwIBAgIBAzANBgkqhkiG9w0BAQsFADAPMQ0wCwYDVQQDDARSb290
MB4XDTE1MDEwMTEyMDAwMFoXDTIxMDEwMTEyMDAwMFowGjELMAkGA1UECgwCTzIx
CzAJBgNVBAoMAk8xMIIBIjANBgkqhkiG9w0BAQEFAAOCAQ8AMIIBCgKCAQEA1ayA
FLnSeK1DyFFpPph/vahXo2UoGW1E5Wpd98Ix7U5mqfHSnTa2uZg/2FTS6Xc6+5/V
yfnJ31632jRC9svjZuC3WoKbdyAPsRceKnBi0meboFTyG6SfBre7r1pvVbF++CDL
7eRV2BjLTw7DxF0T/P3XsRzFWIHP6VZ4Z3iq/gYpnjQ+S/5+7CIWFdYrw24XI0Ib
KC4hEzGLijMjomf2I7zyaJtxkpJ/IwlTlmc8/sKBiJ8AVZNNs+cCARNISzQSRW5I
aoghM/9aA0lWomlkl6RTDpBzhMa4KLBbwGeF/Zol8s8OeSR4IIDwLK5GjsXPKb5/
9X1zbaoLEFlP1kbxvwIDAQABo4HLMIHIMB0GA1UdDgQWBBSdRKorm0xmTCDFMrLq
CBMTaRdJsTAfBgNVHSMEGDAWgBT/i/ylaTYvYjvUG+1YL+l3PSmBgzA3BggrBgEF
BQcBAQQrMCkwJwYIKwYBBQUHMAKGG2h0dHA6Ly91cmwtZm9yLWFpYS9Sb290LmNl
cjAsBgNVHR8EJTAjMCGgH6AdhhtodHRwOi8vdXJsLWZvci1jcmwvUm9vdC5jcmww
DgYDVR0PAQH/BAQDAgEGMA8GA1UdEwEB/wQFMAMBAf8wDQYJKoZIhvcNAQELBQAD
ggEBABwqAPPcHvIULmxdc/5kizPadGDMqlqGo6E1U/HxZkdQ20Iwzwhv/o/32fA4
ZnL6s7Ci1wARA7gu/o1s+n7z2KfSs3SwGHKUCIK1xXFbiZJtNv5gwnrdHtyAKo1K
4K1u16PdN0BJbmF+rJ5DvUP1jWydl6dol4XdcnGQF9PKJGTQEu1f4i8gfMcTb5nm
0+WgBgSnvG6GiKo+hAKpCWmyrNOLikQwoYmZkiPlMtTsey07h1VshOZAgQ88ZVkp
4LKUVcKBQSH+w05MdiIpdQKaofGVxD6jNuN6xE1v0zihxrZgx07x3Oydq6/Sh81f
BqY94Br6PftoSDsvxkPWgehlLMA=
-----END CERTIFICATE-----
