Certificate:
    Data:
        Version: 3 (0x2)
        Serial Number: 2 (0x2)
    Signature Algorithm: sha256WithRSAEncryption
        Issuer: CN=Root
        Validity
            Not Before: Jan  1 12:00:00 2015 GMT
            Not After : Jan  1 12:00:00 2021 GMT
        Subject: O=O1, O=O2
        Subject Public Key Info:
            Public Key Algorithm: rsaEncryption
                Public-Key: (2048 bit)
                Modulus:
                    00:d5:ac:80:14:b9:d2:78:ad:43:c8:51:69:3e:98:
                    7f:bd:a8:57:a3:65:28:19:6d:44:e5:6a:5d:f7:c2:
                    31:ed:4e:66:a9:f1:d2:9d:36:b6:b9:98:3f:d8:54:
                    d2:e9:77:3a:fb:9f:d5:c9:f9:c9:df:5e:b7:da:34:
                    42:f6:cb:e3:66:e0:b7:5a:82:9b:77:20:0f:b1:17:
                    1e:2a:70:62:d2:67:9b:a0:54:f2:1b:a4:9f:06:b7:
                    bb:af:5a:6f:55:b1:7e:f8:20:cb:ed:e4:55:d8:18:
                    cb:4f:0e:c3:c4:5d:13:fc:fd:d7:b1:1c:c5:58:81:
                    cf:e9:56:78:67:78:aa:fe:06:29:9e:34:3e:4b:fe:
                    7e:ec:22:16:15:d6:2b:c3:6e:17:23:42:1b:28:2e:
                    21:13:31:8b:8a:33:23:a2:67:f6:23:bc:f2:68:9b:
                    71:92:92:7f:23:09:53:96:67:3c:fe:c2:81:88:9f:
                    00:55:93:4d:b3:e7:02:01:13:48:4b:34:12:45:6e:
                    48:6a:88:21:33:ff:5a:03:49:56:a2:69:64:97:a4:
                    53:0e:90:73:84:c6:b8:28:b0:5b:c0:67:85:fd:9a:
                    25:f2:cf:0e:79:24:78:20:80:f0:2c:ae:46:8e:c5:
                    cf:29:be:7f:f5:7d:73:6d:aa:0b:10:59:4f:d6:46:
                    f1:bf
                Exponent: 65537 (0x10001)
        X509v3 extensions:
            X509v3 Subject Key Identifier: 
                9D:44:AA:2B:9B:4C:66:4C:20:C5:32:B2:EA:08:13:13:69:17:49:B1
            X509v3 Authority Key Identifier: 
                keyid:FF:8B:FC:A5:69:36:2F:62:3B:D4:1B:ED:58:2F:E9:77:3D:29:81:83

            Authority Information Access: 
                CA Issuers - URI:http://url-for-aia/Root.cer

            X509v3 CRL Distribution Points: 

                Full Name:
                  URI:http://url-for-crl/Root.crl

            X509v3 Key Usage: critical
                Certificate Sign, CRL Sign
            X509v3 Basic Constraints: critical
                CA:TRUE
    Signature Algorithm: sha256WithRSAEncryption
         6c:a0:aa:88:e0:41:66:d8:72:4a:45:2e:55:07:c8:c6:0c:10:
         37:1f:94:07:fb:88:58:9f:75:55:4f:92:06:d9:53:73:2d:b0:
         7d:ae:d7:b1:e4:03:e6:67:ed:eb:ec:3b:1a:0e:d8:74:66:86:
         76:e1:b4:17:23:64:2f:34:11:ed:7e:21:be:0a:f9:7f:a5:ba:
         a8:dc:f5:1c:89:8e:d5:96:e5:db:64:a9:60:09:d3:be:b2:50:
         b7:4c:bb:1d:8a:26:33:af:3a:43:59:32:84:81:b2:7f:3c:fd:
         26:67:da:39:ca:e6:f1:6a:6f:ad:86:a7:4d:32:cc:5b:c0:f8:
         53:3e:e4:9e:9a:43:a7:4a:3d:e2:72:26:0a:4e:27:04:03:eb:
         76:f2:ae:c5:9d:f2:72:52:9d:41:0a:9c:ea:29:00:54:c8:36:
         5d:79:55:74:91:48:3d:cc:1e:66:fa:b2:88:2d:27:74:32:d3:
         ff:3f:87:e9:47:1f:84:ce:92:7e:a5:e2:9b:58:f2:90:25:9e:
         e9:6e:3d:f8:b5:6f:c4:c1:e5:e2:83:f4:eb:9a:1e:63:5f:46:
         55:72:af:46:88:a0:ff:62:f8:cd:fc:ef:8f:82:1b:f2:aa:a1:
         6f:cd:70:0a:77:9e:18:b1:d9:11:7f:d3:65:84:1a:06:2e:5d:
         67:8f:b1:aa
-----BEGIN CERTIFICATE-----
MIIDcDCCAligAwIBAgIBAjANBgkqhkiG9w0BAQsFADAPMQ0wCwYDVQQDDARSb290
MB4XDTE1MDEwMTEyMDAwMFoXDTIxMDEwMTEyMDAwMFowGjELMAkGA1UECgwCTzEx
CzAJBgNVBAoMAk8yMIIBIjANBgkqhkiG9w0BAQEFAAOCAQ8AMIIBCgKCAQEA1ayA
FLnSeK1DyFFpPph/vahXo2UoGW1E5Wpd98Ix7U5mqfHSnTa2uZg/2FTS6Xc6+5/V
yfnJ31632jRC9svjZuC3WoKbdyAPsRceKnBi0meboFTyG6SfBre7r1pvVbF++CDL
7eRV2BjLTw7DxF0T/P3XsRzFWIHP6VZ4Z3iq/gYpnjQ+S/5+7CIWFdYrw24XI0Ib
KC4hEzGLijMjomf2I7zyaJtxkpJ/IwlTlmc8/sKBiJ8AVZNNs+cCARNISzQSRW5I
aoghM/9aA0lWomlkl6RTDpBzhMa4KLBbwGeF/Zol8s8OeSR4IIDwLK5GjsXPKb5/
9X1zbaoLEFlP1kbxvwIDAQABo4HLMIHIMB0GA1UdDgQWBBSdRKorm0xmTCDFMrLq
CBMTaRdJsTAfBgNVHSMEGDAWgBT/i/ylaTYvYjvUG+1YL+l3PSmBgzA3BggrBgEF
BQcBAQQrMCkwJwYIKwYBBQUHMAKGG2h0dHA6Ly91cmwtZm9yLWFpYS9Sb290LmNl
cjAsBgNVHR8EJTAjMCGgH6AdhhtodHRwOi8vdXJsLWZvci1jcmwvUm9vdC5jcmww
DgYDVR0PAQH/BAQDAgEGMA8GA1UdEwEB/wQFMAMBAf8wDQYJKoZIhvcNAQELBQAD
ggEBAGygqojgQWbYckpFLlUHyMYMEDcflAf7iFifdVVPkgbZU3MtsH2u17HkA+Zn
7evsOxoO2HRmhnbhtBcjZC80Ee1+Ib4K+X+luqjc9RyJjtWW5dtkqWAJ076yULdM
ux2KJjOvOkNZMoSBsn88/SZn2jnK5vFqb62Gp00yzFvA+FM+5J6aQ6dKPeJyJgpO
JwQD63byrsWd8nJSnUEKnOopAFTINl15VXSRSD3MHmb6sogtJ3Qy0/8/h+lHH4TO
kn6l4ptY8pAlnuluPfi1b8TB5eKD9OuaHmNfRlVyr0aIoP9i+M3874+CG/KqoW/N
cAp3nhix2RF/02WEGgYuXWePsao=
-----END CERTIFICATE-----
