Certificate:
    Data:
        Version: 3 (0x2)
        Serial Number: 4 (0x4)
    Signature Algorithm: sha256WithRSAEncryption
        Issuer: CN=Root
        Validity
            Not Before: Jan  1 12:00:00 2015 GMT
            Not After : Jan  1 12:00:00 2021 GMT
        Subject: O=O3
        Subject Public Key Info:
            Public Key Algorithm: rsaEncryption
                Public-Key: (2048 bit)
                Modulus:
                    00:d5:ac:80:14:b9:d2:78:ad:43:c8:51:69:3e:98:
                    7f:bd:a8:57:a3:65:28:19:6d:44:e5:6a:5d:f7:c2:
                    31:ed:4e:66:a9:f1:d2:9d:36:b6:b9:98:3f:d8:54:
                    d2:e9:77:3a:fb:9f:d5:c9:f9:c9:df:5e:b7:da:34:
                    42:f6:cb:e3:66:e0:b7:5a:82:9b:77:20:0f:b1:17:
                    1e:2a:70:62:d2:67:9b:a0:54:f2:1b:a4:9f:06:b7:
                    bb:af:5a:6f:55:b1:7e:f8:20:cb:ed:e4:55:d8:18:
                    cb:4f:0e:c3:c4:5d:13:fc:fd:d7:b1:1c:c5:58:81:
                    cf:e9:56:78:67:78:aa:fe:06:29:9e:34:3e:4b:fe:
                    7e:ec:22:16:15:d6:2b:c3:6e:17:23:42:1b:28:2e:
                    21:13:31:8b:8a:33:23:a2:67:f6:23:bc:f2:68:9b:
                    71:92:92:7f:23:09:53:96:67:3c:fe:c2:81:88:9f:
                    00:55:93:4d:b3:e7:02:01:13:48:4b:34:12:45:6e:
                    48:6a:88:21:33:ff:5a:03:49:56:a2:69:64:97:a4:
                    53:0e:90:73:84:c6:b8:28:b0:5b:c0:67:85:fd:9a:
                    25:f2:cf:0e:79:24:78:20:80:f0:2c:ae:46:8e:c5:
                    cf:29:be:7f:f5:7d:73:6d:aa:0b:10:59:4f:d6:46:
                    f1:bf
                Exponent: 65537 (0x10001)
        X509v3 extensions:
            X509v3 Subject Key Identifier: 
                9D:44:AA:2B:9B:4C:66:4C:20:C5:32:B2:EA:08:13:13:69:17:49:B1
            X509v3 Authority Key Identifier: 
                keyid:FF:8B:FC:A5:69:36:2F:62:3B:D4:1B:ED:58:2F:E9:77:3D:29:81:83

            Authority Information Access: 
                CA Issuers - URI:http://url-for-aia/Root.cer

            X509v3 CRL Distribution Points: 

                Full Name:
                  URI:http://url-for-crl/Root.crl

            X509v3 Key Usage: critical
                Certificate Sign, CRL Sign
            X509v3 Basic Constraints: critical
                CA:TRUE
    Signature Algorithm: sha256WithRSAEncryption
         16:e4:f6:fc:13:d4:16:dc:42:5f:c4:9d:88:d6:c8:69:f4:86:
         f3:4e:de:f5:ff:e4:05:46:22:a4:eb:b1:ce:1d:d7:6f:46:04:
         d3:6c:e2:83:f7:be:a4:3e:c2:cc:51:ba:71:2e:6d:cd:8d:12:
         4e:be:36:60:5a:25:05:e9:d2:c6:8f:64:91:7a:b3:50:7c:dd:
         c4:b7:5f:c4:c5:6f:58:3f:fb:fd:33:07:b6:4e:a6:25:0e:7e:
         48:9b:2a:a8:05:54:e0:6a:27:cb:ea:3e:40:42:9f:3f:a8:5b:
         d2:62:17:f0:80:90:c2:dd:07:ff:5c:8f:08:37:c0:c5:41:78:
         dc:be:7c:50:55:9b:42:f7:da:aa:b0:17:f4:e9:ed:58:e3:28:
         a9:66:a8:df:72:cd:00:bc:8a:ff:a0:96:91:33:f3:72:28:ab:
         5e:72:e4:45:33:b8:c0:46:22:3d:96:be:3c:e5:2e:bf:72:0f:
         a2:30:d2:b2:15:8c:c7:69:8b:16:dc:f9:17:fe:a1:fb:8b:7c:
         0c:94:24:54:78:b6:e8:a1:e9:2d:4b:d4:13:6b:01:42:ea:bc:
         bc:ea:d1:5e:1b:c4:0b:a6:3c:df:2d:17:8b:2e:c6:44:ac:46:
         45:4e:28:c6:68:f4:34:a6:8b:a6:88:86:f5:e4:26:50:01:a0:
         1e:5e:72:66
-----BEGIN CERTIFICATE-----
MIIDYzCCAkugAwIBAgIBBDANBgkqhkiG9w0BAQsFADAPMQ0wCwYDVQQDDARSb290
MB4XDTE1MDEwMTEyMDAwMFoXDTIxMDEwMTEyMDAwMFowDTELMAkGA1UECgwCTzMw
ggEiMA0GCSqGSIb3DQEBAQUAA4IBDwAwggEKAoIBAQDVrIAUudJ4rUPIUWk+mH+9
qFejZSgZbUTlal33wjHtTmap8dKdNra5mD/YVNLpdzr7n9XJ+cnfXrfaNEL2y+Nm
4Ldagpt3IA+xFx4qcGLSZ5ugVPIbpJ8Gt7uvWm9VsX74IMvt5FXYGMtPDsPEXRP8
/dexHMVYgc/pVnhneKr+BimeND5L/n7sIhYV1ivDbhcjQhsoLiETMYuKMyOiZ/Yj
vPJom3GSkn8jCVOWZzz+woGInwBVk02z5wIBE0hLNBJFbkhqiCEz/1oDSVaiaWSX
pFMOkHOExrgosFvAZ4X9miXyzw55JHgggPAsrkaOxc8pvn/1fXNtqgsQWU/WRvG/
AgMBAAGjgcswgcgwHQYDVR0OBBYEFJ1EqiubTGZMIMUysuoIExNpF0mxMB8GA1Ud
IwQYMBaAFP+L/KVpNi9iO9Qb7Vgv6Xc9KYGDMDcGCCsGAQUFBwEBBCswKTAnBggr
BgEFBQcwAoYbaHR0cDovL3VybC1mb3ItYWlhL1Jvb3QuY2VyMCwGA1UdHwQlMCMw
IaAfoB2GG2h0dHA6Ly91cmwtZm9yLWNybC9Sb290LmNybDAOBgNVHQ8BAf8EBAMC
AQYwDwYDVR0TAQH/BAUwAwEB/zANBgkqhkiG9w0BAQsFAAOCAQEAFuT2/BPUFtxC
X8SdiNbIafSG807e9f/kBUYipOuxzh3Xb0YE02zig/e+pD7CzFG6cS5tzY0STr42
YFolBenSxo9kkXqzUHzdxLdfxMVvWD/7/TMHtk6mJQ5+SJsqqAVU4Gony+o+QEKf
P6hb0mIX8ICQwt0H/1yPCDfAxUF43L58UFWbQvfaqrAX9OntWOMoqWao33LNALyK
/6CWkTPzciirXnLkRTO4wEYiPZa+POUuv3IPojDSshWMx2mLFtz5F/6h+4t8DJQk
VHi26KHpLUvUE2sBQuq8vOrRXhvEC6Y83y0Xiy7GRKxGRU4oxmj0NKaLpoiG9eQm
UAGgHl5yZg==
-----END CERTIFICATE-----
