Certificate:
    Data:
        Version: 3 (0x2)
        Serial Number: 16 (0x10)
    Signature Algorithm: sha256WithRSAEncryption
        Issuer: CN=Root
        Validity
            Not Before: Jan  1 12:00:00 2015 GMT
            Not After : Jan  1 12:00:00 2021 GMT
        Subject: O=O1, CN=Leaf
        Subject Public Key Info:
            Public Key Algorithm: rsaEncryption
                Public-Key: (2048 bit)
                Modulus:
                    00:ef:91:eb:bb:0f:0d:aa:35:93:6d:ed:c4:67:bd:
                    0f:d3:5e:d0:da:8c:7a:83:30:e5:92:af:fa:2a:84:
                    66:97:f1:2d:93:96:40:49:b2:6a:b8:c3:8c:ea:21:
                    8b:c5:6a:d9:91:e9:05:6c:e2:2e:48:56:84:33:ef:
                    a4:1f:e2:32:ec:d1:9a:61:56:e4:66:1f:f5:ef:51:
                    09:a1:85:e6:cf:d5:ce:2e:64:a1:02:a9:bf:50:7e:
                    a0:ac:fc:6a:71:6a:61:4b:08:03:34:a6:5c:0a:29:
                    03:a7:23:4c:1e:90:15:ae:cb:97:ad:47:1b:18:8a:
                    c4:71:3b:a6:f4:34:ff:d4:a2:54:67:c2:ed:67:85:
                    29:e8:de:4a:41:d2:49:57:e9:18:43:ec:d9:17:47:
                    f4:71:68:fe:5c:ac:8f:55:12:dd:80:60:8f:b6:e6:
                    da:34:fa:fb:52:57:17:ad:49:26:76:5a:f0:c0:7a:
                    0a:a3:05:ca:74:68:fa:99:77:ca:59:98:28:0b:2b:
                    76:1c:51:0e:1c:d1:d3:4b:06:5e:03:f7:b6:d6:3c:
                    a0:bc:73:ec:e0:75:ae:04:3f:af:24:57:6a:ad:7e:
                    75:65:98:73:8d:9c:14:86:17:d0:27:5f:eb:3b:8d:
                    f3:28:9f:49:e4:2a:18:fb:a5:52:4e:97:46:d1:95:
                    6f:97
                Exponent: 65537 (0x10001)
        X509v3 extensions:
            X509v3 Subject Key Identifier: 
                54:7C:D9:94:2E:53:89:05:22:9C:6D:7C:CB:79:32:C4:33:1D:89:67
            X509v3 Authority Key Identifier: 
                keyid:FF:8B:FC:A5:69:36:2F:62:3B:D4:1B:ED:58:2F:E9:77:3D:29:81:83

            Authority Information Access: 
                CA Issuers - URI:http://url-for-aia/Root.cer

            X509v3 CRL Distribution Points: 

                Full Name:
                  URI:http://url-for-crl/Root.crl

            X509v3 Key Usage: critical
                Digital Signature, Key Encipherment
            X509v3 Extended Key Usage: 
                TLS Web Server Authentication, TLS Web Client Authentication
    Signature Algorithm: sha256WithRSAEncryption
         ca:ec:a3:62:ed:be:98:20:61:0c:43:a7:25:5d:80:e6:7b:02:
         c9:31:7b:ba:3f:5e:c1:d0:2a:d5:09:3c:68:a8:c7:ab:77:9c:
         f5:3d:7c:3d:3a:f3:22:ab:07:31:3d:08:10:6d:6b:5a:2d:74:
         a2:64:bb:b6:1b:c4:69:e8:5a:f7:35:20:86:a9:c5:53:ba:24:
         91:a2:06:13:bf:ea:88:c0:58:7d:5f:22:e7:aa:5f:a5:61:79:
         48:ac:6c:c3:f2:d1:cb:26:25:f8:5a:02:50:e4:49:3a:50:dc:
         97:eb:6d:f5:4d:1f:a8:52:78:56:00:96:8d:5b:3d:3e:4a:2c:
         c3:6a:eb:7e:93:34:c8:e1:6b:a5:13:44:1a:db:82:85:e5:22:
         d7:24:98:b9:2b:b6:1a:6b:59:8c:1f:cc:de:81:9c:54:48:85:
         4d:0b:68:00:bb:4c:69:32:eb:46:b2:cd:08:b6:90:17:4c:c6:
         d2:be:17:9c:1e:c2:c8:72:38:82:35:f4:ec:e5:56:8a:ce:17:
         0f:e7:56:26:76:32:43:cd:f7:5f:0e:f1:72:bf:1b:ab:4d:39:
         15:fe:b6:85:7f:71:29:4b:f6:c6:ff:6b:39:c1:b0:51:d9:07:
         e7:20:17:b8:de:69:83:8d:98:30:37:eb:fd:f7:25:26:f7:78:
         f7:da:9c:56
-----BEGIN CERTIFICATE-----
MIIDgDCCAmigAwIBAgIBEDANBgkqhkiG9w0BAQsFADAPMQ0wCwYDVQQDDARSb290
MB4XDTE1MDEwMTEyMDAwMFoXDTIxMDEwMTEyMDAwMFowHDELMAkGA1UECgwCTzEx
DTALBgNVBAMMBExlYWYwggEiMA0GCSqGSIb3DQEBAQUAA4IBDwAwggEKAoIBAQDv
keu7Dw2qNZNt7cRnvQ/TXtDajHqDMOWSr/oqhGaX8S2TlkBJsmq4w4zqIYvFatmR
6QVs4i5IVoQz76Qf4jLs0ZphVuRmH/XvUQmhhebP1c4uZKECqb9QfqCs/GpxamFL
CAM0plwKKQOnI0wekBWuy5etRxsYisRxO6b0NP/UolRnwu1nhSno3kpB0klX6RhD
7NkXR/RxaP5crI9VEt2AYI+25to0+vtSVxetSSZ2WvDAegqjBcp0aPqZd8pZmCgL
K3YcUQ4c0dNLBl4D97bWPKC8c+zgda4EP68kV2qtfnVlmHONnBSGF9AnX+s7jfMo
n0nkKhj7pVJOl0bRlW+XAgMBAAGjgdkwgdYwHQYDVR0OBBYEFFR82ZQuU4kFIpxt
fMt5MsQzHYlnMB8GA1UdIwQYMBaAFP+L/KVpNi9iO9Qb7Vgv6Xc9KYGDMDcGCCsG
AQUFBwEBBCswKTAnBggrBgEFBQcwAoYbaHR0cDovL3VybC1mb3ItYWlhL1Jvb3Qu
Y2VyMCwGA1UdHwQlMCMwIaAfoB2GG2h0dHA6Ly91cmwtZm9yLWNybC9Sb290LmNy
bDAOBgNVHQ8BAf8EBAMCBaAwHQYDVR0lBBYwFAYIKwYBBQUHAwEGCCsGAQUFBwMC
MA0GCSqGSIb3DQEBCwUAA4IBAQDK7KNi7b6YIGEMQ6clXYDmewLJMXu6P17B0CrV
CTxoqMerd5z1PXw9OvMiqwcxPQgQbWtaLXSiZLu2G8Rp6Fr3NSCGqcVTuiSRogYT
v+qIwFh9XyLnql+lYXlIrGzD8tHLJiX4WgJQ5Ek6UNyX6231TR+oUnhWAJaNWz0+
SizDaut+kzTI4WulE0Qa24KF5SLXJJi5K7Yaa1mMH8zegZxUSIVNC2gAu0xpMutG
ss0ItpAXTMbSvhecHsLIcjiCNfTs5VaKzhcP51YmdjJDzfdfDvFyvxurTTkV/raF
f3EpS/bG/2s5wbBR2QfnIBe43mmDjZgwN+v99yUm93j32pxW
-----END CERTIFICATE-----
