Certificate:
    Data:
        Version: 3 (0x2)
        Serial Number: 15 (0xf)
    Signature Algorithm: sha256WithRSAEncryption
        Issuer: CN=Root
        Validity
            Not Before: Jan  1 12:00:00 2015 GMT
            Not After : Jan  1 12:00:00 2021 GMT
        Subject: O=O1, O=O2, CN=Leaf
        Subject Public Key Info:
            Public Key Algorithm: rsaEncryption
                Public-Key: (2048 bit)
                Modulus:
                    00:ef:91:eb:bb:0f:0d:aa:35:93:6d:ed:c4:67:bd:
                    0f:d3:5e:d0:da:8c:7a:83:30:e5:92:af:fa:2a:84:
                    66:97:f1:2d:93:96:40:49:b2:6a:b8:c3:8c:ea:21:
                    8b:c5:6a:d9:91:e9:05:6c:e2:2e:48:56:84:33:ef:
                    a4:1f:e2:32:ec:d1:9a:61:56:e4:66:1f:f5:ef:51:
                    09:a1:85:e6:cf:d5:ce:2e:64:a1:02:a9:bf:50:7e:
                    a0:ac:fc:6a:71:6a:61:4b:08:03:34:a6:5c:0a:29:
                    03:a7:23:4c:1e:90:15:ae:cb:97:ad:47:1b:18:8a:
                    c4:71:3b:a6:f4:34:ff:d4:a2:54:67:c2:ed:67:85:
                    29:e8:de:4a:41:d2:49:57:e9:18:43:ec:d9:17:47:
                    f4:71:68:fe:5c:ac:8f:55:12:dd:80:60:8f:b6:e6:
                    da:34:fa:fb:52:57:17:ad:49:26:76:5a:f0:c0:7a:
                    0a:a3:05:ca:74:68:fa:99:77:ca:59:98:28:0b:2b:
                    76:1c:51:0e:1c:d1:d3:4b:06:5e:03:f7:b6:d6:3c:
                    a0:bc:73:ec:e0:75:ae:04:3f:af:24:57:6a:ad:7e:
                    75:65:98:73:8d:9c:14:86:17:d0:27:5f:eb:3b:8d:
                    f3:28:9f:49:e4:2a:18:fb:a5:52:4e:97:46:d1:95:
                    6f:97
                Exponent: 65537 (0x10001)
        X509v3 extensions:
            X509v3 Subject Key Identifier: 
                54:7C:D9:94:2E:53:89:05:22:9C:6D:7C:CB:79:32:C4:33:1D:89:67
            X509v3 Authority Key Identifier: 
                keyid:FF:8B:FC:A5:69:36:2F:62:3B:D4:1B:ED:58:2F:E9:77:3D:29:81:83

            Authority Information Access: 
                CA Issuers - URI:http://url-for-aia/Root.cer

            X509v3 CRL Distribution Points: 

                Full Name:
                  URI:http://url-for-crl/Root.crl

            X509v3 Key Usage: critical
                Digital Signature, Key Encipherment
            X509v3 Extended Key Usage: 
                TLS Web Server Authentication, TLS Web Client Authentication
    Signature Algorithm: sha256WithRSAEncryption
         72:41:d4:00:ae:2e:da:b0:1d:a1:f2:5e:91:6c:66:f1:ec:40:
         89:6c:99:fe:90:c6:31:62:e0:ae:8f:36:84:ed:ec:e1:8f:18:
         bd:bb:bc:f1:ed:63:0f:18:a4:1b:e2:37:13:1d:8d:7c:6d:71:
         8d:51:e9:13:3f:1c:7d:69:9c:e5:e4:37:5c:fe:b6:b8:90:b6:
         15:08:82:cb:6d:f6:88:b8:ce:f7:93:35:dd:ef:38:64:9b:cd:
         71:37:10:be:3b:63:22:58:26:9a:04:e2:4e:b7:b5:3f:87:f5:
         89:3e:b8:b8:52:3f:1f:69:24:4d:d2:7f:ba:b8:1a:23:82:92:
         c2:ad:5c:5b:80:91:9a:28:a2:1f:aa:db:21:2f:66:cf:83:6f:
         46:17:81:0c:53:0a:e7:f8:3b:7f:b7:92:3c:0c:ca:b8:56:bd:
         97:ba:de:8a:84:84:d3:35:4a:17:22:15:43:5c:4b:6f:9f:41:
         cc:b5:a4:2d:63:2e:b6:14:66:04:d5:a4:d5:e6:2d:a2:68:f5:
         95:df:f3:8c:91:6f:43:0c:03:6c:67:38:d7:53:4e:5f:fd:cf:
         d4:06:eb:0c:8f:d7:5c:f6:b0:9f:56:93:82:92:21:ae:88:1c:
         5a:8a:0c:43:66:be:50:39:5d:85:9a:45:58:cf:05:1a:49:03:
         b6:e7:f9:45
-----BEGIN CERTIFICATE-----
MIIDjTCCAnWgAwIBAgIBDzANBgkqhkiG9w0BAQsFADAPMQ0wCwYDVQQDDARSb290
MB4XDTE1MDEwMTEyMDAwMFoXDTIxMDEwMTEyMDAwMFowKTELMAkGA1UECgwCTzEx
CzAJBgNVBAoMAk8yMQ0wCwYDVQQDDARMZWFmMIIBIjANBgkqhkiG9w0BAQEFAAOC
AQ8AMIIBCgKCAQEA75Hruw8NqjWTbe3EZ70P017Q2ox6gzDlkq/6KoRml/Etk5ZA
SbJquMOM6iGLxWrZkekFbOIuSFaEM++kH+Iy7NGaYVbkZh/171EJoYXmz9XOLmSh
Aqm/UH6grPxqcWphSwgDNKZcCikDpyNMHpAVrsuXrUcbGIrEcTum9DT/1KJUZ8Lt
Z4Up6N5KQdJJV+kYQ+zZF0f0cWj+XKyPVRLdgGCPtubaNPr7UlcXrUkmdlrwwHoK
owXKdGj6mXfKWZgoCyt2HFEOHNHTSwZeA/e21jygvHPs4HWuBD+vJFdqrX51ZZhz
jZwUhhfQJ1/rO43zKJ9J5CoY+6VSTpdG0ZVvlwIDAQABo4HZMIHWMB0GA1UdDgQW
BBRUfNmULlOJBSKcbXzLeTLEMx2JZzAfBgNVHSMEGDAWgBT/i/ylaTYvYjvUG+1Y
L+l3PSmBgzA3BggrBgEFBQcBAQQrMCkwJwYIKwYBBQUHMAKGG2h0dHA6Ly91cmwt
Zm9yLWFpYS9Sb290LmNlcjAsBgNVHR8EJTAjMCGgH6AdhhtodHRwOi8vdXJsLWZv
ci1jcmwvUm9vdC5jcmwwDgYDVR0PAQH/BAQDAgWgMB0GA1UdJQQWMBQGCCsGAQUF
BwMBBggrBgEFBQcDAjANBgkqhkiG9w0BAQsFAAOCAQEAckHUAK4u2rAdofJekWxm
8exAiWyZ/pDGMWLgro82hO3s4Y8Yvbu88e1jDxikG+I3Ex2NfG1xjVHpEz8cfWmc
5eQ3XP62uJC2FQiCy232iLjO95M13e84ZJvNcTcQvjtjIlgmmgTiTre1P4f1iT64
uFI/H2kkTdJ/urgaI4KSwq1cW4CRmiiiH6rbIS9mz4NvRheBDFMK5/g7f7eSPAzK
uFa9l7reioSE0zVKFyIVQ1xLb59BzLWkLWMuthRmBNWk1eYtomj1ld/zjJFvQwwD
bGc411NOX/3P1AbrDI/XXPawn1aTgpIhrogcWooMQ2a+UDldhZpFWM8FGkkDtuf5
RQ==
-----END CERTIFICATE-----
