Certificate:
    Data:
        Version: 3 (0x2)
        Serial Number: 14 (0xe)
    Signature Algorithm: sha256WithRSAEncryption
        Issuer: CN=Root
        Validity
            Not Before: Jan  1 12:00:00 2015 GMT
            Not After : Jan  1 12:00:00 2021 GMT
        Subject: CN=O1
        Subject Public Key Info:
            Public Key Algorithm: rsaEncryption
                Public-Key: (2048 bit)
                Modulus:
                    00:ef:91:eb:bb:0f:0d:aa:35:93:6d:ed:c4:67:bd:
                    0f:d3:5e:d0:da:8c:7a:83:30:e5:92:af:fa:2a:84:
                    66:97:f1:2d:93:96:40:49:b2:6a:b8:c3:8c:ea:21:
                    8b:c5:6a:d9:91:e9:05:6c:e2:2e:48:56:84:33:ef:
                    a4:1f:e2:32:ec:d1:9a:61:56:e4:66:1f:f5:ef:51:
                    09:a1:85:e6:cf:d5:ce:2e:64:a1:02:a9:bf:50:7e:
                    a0:ac:fc:6a:71:6a:61:4b:08:03:34:a6:5c:0a:29:
                    03:a7:23:4c:1e:90:15:ae:cb:97:ad:47:1b:18:8a:
                    c4:71:3b:a6:f4:34:ff:d4:a2:54:67:c2:ed:67:85:
                    29:e8:de:4a:41:d2:49:57:e9:18:43:ec:d9:17:47:
                    f4:71:68:fe:5c:ac:8f:55:12:dd:80:60:8f:b6:e6:
                    da:34:fa:fb:52:57:17:ad:49:26:76:5a:f0:c0:7a:
                    0a:a3:05:ca:74:68:fa:99:77:ca:59:98:28:0b:2b:
                    76:1c:51:0e:1c:d1:d3:4b:06:5e:03:f7:b6:d6:3c:
                    a0:bc:73:ec:e0:75:ae:04:3f:af:24:57:6a:ad:7e:
                    75:65:98:73:8d:9c:14:86:17:d0:27:5f:eb:3b:8d:
                    f3:28:9f:49:e4:2a:18:fb:a5:52:4e:97:46:d1:95:
                    6f:97
                Exponent: 65537 (0x10001)
        X509v3 extensions:
            X509v3 Subject Key Identifier: 
                54:7C:D9:94:2E:53:89:05:22:9C:6D:7C:CB:79:32:C4:33:1D:89:67
            X509v3 Authority Key Identifier: 
                keyid:FF:8B:FC:A5:69:36:2F:62:3B:D4:1B:ED:58:2F:E9:77:3D:29:81:83

            Authority Information Access: 
                CA Issuers - URI:http://url-for-aia/Root.cer

            X509v3 CRL Distribution Points: 

                Full Name:
                  URI:http://url-for-crl/Root.crl

            X509v3 Key Usage: critical
                Digital Signature, Key Encipherment
            X509v3 Extended Key Usage: 
                TLS Web Server Authentication, TLS Web Client Authentication
    Signature Algorithm: sha256WithRSAEncryption
         3e:68:af:96:f2:72:37:b0:3e:19:5e:f7:e7:58:19:cf:e8:35:
         0c:52:8e:95:81:99:46:d2:99:52:ea:48:11:2c:e0:77:28:91:
         43:3b:fa:d0:2d:48:33:e0:9f:63:29:74:72:a5:3a:f3:df:ec:
         69:22:3f:3e:01:da:42:89:40:d3:2c:1e:eb:e7:77:85:ea:9d:
         cd:c8:37:f7:47:a6:01:3c:7d:de:c0:df:c5:31:93:df:5c:48:
         90:ae:0e:ee:fe:42:a4:53:94:3b:ce:e7:a8:79:ac:68:4d:d7:
         25:e1:4c:b5:cf:79:73:59:5f:88:92:61:63:91:97:6f:55:fe:
         d1:e4:84:8e:9f:89:c4:2b:f8:c2:e3:54:ac:60:24:55:d4:c2:
         75:53:50:71:7e:44:ba:ba:75:8f:4b:14:4c:c5:e8:97:33:3f:
         e7:29:19:cb:d8:a6:05:64:32:94:25:e3:ba:3c:93:a6:fb:3a:
         d6:48:06:94:b4:88:5e:03:32:b6:3c:18:b4:ce:47:ff:6f:2a:
         bc:c8:4b:a1:e7:e5:09:f7:e7:e5:48:7a:94:c1:43:a1:d3:80:
         8d:13:bd:7d:36:f9:81:b6:8e:23:19:e9:4b:1e:87:7a:9c:76:
         df:2e:4b:03:94:b1:11:15:8a:78:c0:f9:8e:8e:7d:df:db:20:
         b4:d0:cb:a4
-----BEGIN CERTIFICATE-----
MIIDcTCCAlmgAwIBAgIBDjANBgkqhkiG9w0BAQsFADAPMQ0wCwYDVQQDDARSb290
MB4XDTE1MDEwMTEyMDAwMFoXDTIxMDEwMTEyMDAwMFowDTELMAkGA1UEAwwCTzEw
ggEiMA0GCSqGSIb3DQEBAQUAA4IBDwAwggEKAoIBAQDvkeu7Dw2qNZNt7cRnvQ/T
XtDajHqDMOWSr/oqhGaX8S2TlkBJsmq4w4zqIYvFatmR6QVs4i5IVoQz76Qf4jLs
0ZphVuRmH/XvUQmhhebP1c4uZKECqb9QfqCs/GpxamFLCAM0plwKKQOnI0wekBWu
y5etRxsYisRxO6b0NP/UolRnwu1nhSno3kpB0klX6RhD7NkXR/RxaP5crI9VEt2A
YI+25to0+vtSVxetSSZ2WvDAegqjBcp0aPqZd8pZmCgLK3YcUQ4c0dNLBl4D97bW
PKC8c+zgda4EP68kV2qtfnVlmHONnBSGF9AnX+s7jfMon0nkKhj7pVJOl0bRlW+X
AgMBAAGjgdkwgdYwHQYDVR0OBBYEFFR82ZQuU4kFIpxtfMt5MsQzHYlnMB8GA1Ud
IwQYMBaAFP+L/KVpNi9iO9Qb7Vgv6Xc9KYGDMDcGCCsGAQUFBwEBBCswKTAnBggr
BgEFBQcwAoYbaHR0cDovL3VybC1mb3ItYWlhL1Jvb3QuY2VyMCwGA1UdHwQlMCMw
IaAfoB2GG2h0dHA6Ly91cmwtZm9yLWNybC9Sb290LmNybDAOBgNVHQ8BAf8EBAMC
BaAwHQYDVR0lBBYwFAYIKwYBBQUHAwEGCCsGAQUFBwMCMA0GCSqGSIb3DQEBCwUA
A4IBAQA+aK+W8nI3sD4ZXvfnWBnP6DUMUo6VgZlG0plS6kgRLOB3KJFDO/rQLUgz
4J9jKXRypTrz3+xpIj8+AdpCiUDTLB7r53eF6p3NyDf3R6YBPH3ewN/FMZPfXEiQ
rg7u/kKkU5Q7zueoeaxoTdcl4Uy1z3lzWV+IkmFjkZdvVf7R5ISOn4nEK/jC41Ss
YCRV1MJ1U1BxfkS6unWPSxRMxeiXMz/nKRnL2KYFZDKUJeO6PJOm+zrWSAaUtIhe
AzK2PBi0zkf/byq8yEuh5+UJ9+flSHqUwUOh04CNE719NvmBto4jGelLHod6nHbf
LksDlLERFYp4wPmOjn3f2yC00Muk
-----END CERTIFICATE-----
