Certificate:
    Data:
        Version: 3 (0x2)
        Serial Number: 11 (0xb)
    Signature Algorithm: sha256WithRSAEncryption
        Issuer: CN=Root
        Validity
            Not Before: Jan  1 12:00:00 2015 GMT
            Not After : Jan  1 12:00:00 2021 GMT
        Subject: CN=NC4
        Subject Public Key Info:
            Public Key Algorithm: rsaEncryption
                Public-Key: (2048 bit)
                Modulus:
                    00:d5:ac:80:14:b9:d2:78:ad:43:c8:51:69:3e:98:
                    7f:bd:a8:57:a3:65:28:19:6d:44:e5:6a:5d:f7:c2:
                    31:ed:4e:66:a9:f1:d2:9d:36:b6:b9:98:3f:d8:54:
                    d2:e9:77:3a:fb:9f:d5:c9:f9:c9:df:5e:b7:da:34:
                    42:f6:cb:e3:66:e0:b7:5a:82:9b:77:20:0f:b1:17:
                    1e:2a:70:62:d2:67:9b:a0:54:f2:1b:a4:9f:06:b7:
                    bb:af:5a:6f:55:b1:7e:f8:20:cb:ed:e4:55:d8:18:
                    cb:4f:0e:c3:c4:5d:13:fc:fd:d7:b1:1c:c5:58:81:
                    cf:e9:56:78:67:78:aa:fe:06:29:9e:34:3e:4b:fe:
                    7e:ec:22:16:15:d6:2b:c3:6e:17:23:42:1b:28:2e:
                    21:13:31:8b:8a:33:23:a2:67:f6:23:bc:f2:68:9b:
                    71:92:92:7f:23:09:53:96:67:3c:fe:c2:81:88:9f:
                    00:55:93:4d:b3:e7:02:01:13:48:4b:34:12:45:6e:
                    48:6a:88:21:33:ff:5a:03:49:56:a2:69:64:97:a4:
                    53:0e:90:73:84:c6:b8:28:b0:5b:c0:67:85:fd:9a:
                    25:f2:cf:0e:79:24:78:20:80:f0:2c:ae:46:8e:c5:
                    cf:29:be:7f:f5:7d:73:6d:aa:0b:10:59:4f:d6:46:
                    f1:bf
                Exponent: 65537 (0x10001)
        X509v3 extensions:
            X509v3 Subject Key Identifier: 
                9D:44:AA:2B:9B:4C:66:4C:20:C5:32:B2:EA:08:13:13:69:17:49:B1
            X509v3 Authority Key Identifier: 
                keyid:FF:8B:FC:A5:69:36:2F:62:3B:D4:1B:ED:58:2F:E9:77:3D:29:81:83

            Authority Information Access: 
                CA Issuers - URI:http://url-for-aia/Root.cer

            X509v3 CRL Distribution Points: 

                Full Name:
                  URI:http://url-for-crl/Root.crl

            X509v3 Key Usage: critical
                Certificate Sign, CRL Sign
            X509v3 Basic Constraints: critical
                CA:TRUE
            X509v3 Name Constraints: critical
                Excluded:
                  DirName:O = O1

    Signature Algorithm: sha256WithRSAEncryption
         b1:27:e9:b5:87:73:ef:2f:ec:e6:f5:2c:dc:9b:b7:27:b1:e8:
         66:f9:36:83:e6:b2:10:62:68:8d:17:6f:95:3b:db:03:4e:e0:
         2f:70:ce:27:17:c7:64:e4:fb:36:c6:3b:e8:a3:53:86:45:4f:
         76:ae:3b:65:1e:19:aa:c4:70:9c:31:9e:21:b7:ba:44:8c:70:
         2d:9e:a9:f3:07:9d:1b:21:53:fb:d8:08:91:ca:6b:28:12:32:
         cb:e2:fa:81:b2:72:da:78:a5:40:56:d4:7a:aa:3c:5c:9e:92:
         f4:af:a5:2f:fa:5e:b0:34:4f:73:39:ed:02:b3:cc:c7:13:0b:
         d9:d4:c2:dc:d1:3c:bf:05:b9:d1:59:e1:fd:c1:de:15:31:48:
         26:4e:93:26:bb:6f:d5:11:fc:3b:30:91:90:7f:97:fe:48:0a:
         57:65:b2:c4:ae:20:ee:ba:b1:19:25:f0:a7:99:ae:0d:c6:15:
         bf:2c:74:58:5e:b1:6b:8c:50:98:80:dc:d0:bb:e9:cb:2a:59:
         ef:11:f1:50:e3:a8:54:80:15:a4:de:22:f6:69:24:47:fb:2e:
         ee:56:c0:e2:80:7f:7a:bb:86:30:0f:a7:2e:f0:36:cc:f8:e8:
         d0:56:98:28:3a:94:d4:59:75:fd:8a:85:a5:e6:44:ff:3c:c3:
         c9:1f:a8:a4
-----BEGIN CERTIFICATE-----
MIIDhzCCAm+gAwIBAgIBCzANBgkqhkiG9w0BAQsFADAPMQ0wCwYDVQQDDARSb290
MB4XDTE1MDEwMTEyMDAwMFoXDTIxMDEwMTEyMDAwMFowDjEMMAoGA1UEAwwDTkM0
MIIBIjANBgkqhkiG9w0BAQEFAAOCAQ8AMIIBCgKCAQEA1ayAFLnSeK1DyFFpPph/
vahXo2UoGW1E5Wpd98Ix7U5mqfHSnTa2uZg/2FTS6Xc6+5/VyfnJ31632jRC9svj
ZuC3WoKbdyAPsRceKnBi0meboFTyG6SfBre7r1pvVbF++CDL7eRV2BjLTw7DxF0T
/P3XsRzFWIHP6VZ4Z3iq/gYpnjQ+S/5+7CIWFdYrw24XI0IbKC4hEzGLijMjomf2
I7zyaJtxkpJ/IwlTlmc8/sKBiJ8AVZNNs+cCARNISzQSRW5IaoghM/9aA0lWomlk
l6RTDpBzhMa4KLBbwGeF/Zol8s8OeSR4IIDwLK5GjsXPKb5/9X1zbaoLEFlP1kbx
vwIDAQABo4HuMIHrMB0GA1UdDgQWBBSdRKorm0xmTCDFMrLqCBMTaRdJsTAfBgNV
HSMEGDAWgBT/i/ylaTYvYjvUG+1YL+l3PSmBgzA3BggrBgEFBQcBAQQrMCkwJwYI
KwYBBQUHMAKGG2h0dHA6Ly91cmwtZm9yLWFpYS9Sb290LmNlcjAsBgNVHR8EJTAj
MCGgH6AdhhtodHRwOi8vdXJsLWZvci1jcmwvUm9vdC5jcmwwDgYDVR0PAQH/BAQD
AgEGMA8GA1UdEwEB/wQFMAMBAf8wIQYDVR0eAQH/BBcwFaETMBGkDzANMQswCQYD
VQQKDAJPMTANBgkqhkiG9w0BAQsFAAOCAQEAsSfptYdz7y/s5vUs3Ju3J7HoZvk2
g+ayEGJojRdvlTvbA07gL3DOJxfHZOT7NsY76KNThkVPdq47ZR4ZqsRwnDGeIbe6
RIxwLZ6p8wedGyFT+9gIkcprKBIyy+L6gbJy2nilQFbUeqo8XJ6S9K+lL/pesDRP
czntArPMxxML2dTC3NE8vwW50Vnh/cHeFTFIJk6TJrtv1RH8OzCRkH+X/kgKV2Wy
xK4g7rqxGSXwp5muDcYVvyx0WF6xa4xQmIDc0LvpyypZ7xHxUOOoVIAVpN4i9mkk
R/su7lbA4oB/eruGMA+nLvA2zPjo0FaYKDqU1Fl1/YqFpeZE/zzDyR+opA==
-----END CERTIFICATE-----
