Certificate:
    Data:
        Version: 3 (0x2)
        Serial Number: 8 (0x8)
    Signature Algorithm: sha256WithRSAEncryption
        Issuer: CN=Root
        Validity
            Not Before: Jan  1 12:00:00 2015 GMT
            Not After : Jan  1 12:00:00 2021 GMT
        Subject: CN=NC1
        Subject Public Key Info:
            Public Key Algorithm: rsaEncryption
                Public-Key: (2048 bit)
                Modulus:
                    00:d5:ac:80:14:b9:d2:78:ad:43:c8:51:69:3e:98:
                    7f:bd:a8:57:a3:65:28:19:6d:44:e5:6a:5d:f7:c2:
                    31:ed:4e:66:a9:f1:d2:9d:36:b6:b9:98:3f:d8:54:
                    d2:e9:77:3a:fb:9f:d5:c9:f9:c9:df:5e:b7:da:34:
                    42:f6:cb:e3:66:e0:b7:5a:82:9b:77:20:0f:b1:17:
                    1e:2a:70:62:d2:67:9b:a0:54:f2:1b:a4:9f:06:b7:
                    bb:af:5a:6f:55:b1:7e:f8:20:cb:ed:e4:55:d8:18:
                    cb:4f:0e:c3:c4:5d:13:fc:fd:d7:b1:1c:c5:58:81:
                    cf:e9:56:78:67:78:aa:fe:06:29:9e:34:3e:4b:fe:
                    7e:ec:22:16:15:d6:2b:c3:6e:17:23:42:1b:28:2e:
                    21:13:31:8b:8a:33:23:a2:67:f6:23:bc:f2:68:9b:
                    71:92:92:7f:23:09:53:96:67:3c:fe:c2:81:88:9f:
                    00:55:93:4d:b3:e7:02:01:13:48:4b:34:12:45:6e:
                    48:6a:88:21:33:ff:5a:03:49:56:a2:69:64:97:a4:
                    53:0e:90:73:84:c6:b8:28:b0:5b:c0:67:85:fd:9a:
                    25:f2:cf:0e:79:24:78:20:80:f0:2c:ae:46:8e:c5:
                    cf:29:be:7f:f5:7d:73:6d:aa:0b:10:59:4f:d6:46:
                    f1:bf
                Exponent: 65537 (0x10001)
        X509v3 extensions:
            X509v3 Subject Key Identifier: 
                9D:44:AA:2B:9B:4C:66:4C:20:C5:32:B2:EA:08:13:13:69:17:49:B1
            X509v3 Authority Key Identifier: 
                keyid:FF:8B:FC:A5:69:36:2F:62:3B:D4:1B:ED:58:2F:E9:77:3D:29:81:83

            Authority Information Access: 
                CA Issuers - URI:http://url-for-aia/Root.cer

            X509v3 CRL Distribution Points: 

                Full Name:
                  URI:http://url-for-crl/Root.crl

            X509v3 Key Usage: critical
                Certificate Sign, CRL Sign
            X509v3 Basic Constraints: critical
                CA:TRUE
            X509v3 Name Constraints: critical
                Permitted:
                  DirName:O = O1

    Signature Algorithm: sha256WithRSAEncryption
         54:86:68:b2:45:d5:99:30:3f:5b:5c:f6:97:d3:26:0c:f1:4f:
         46:39:37:85:be:cf:3a:b8:57:b4:7d:30:51:28:56:81:cc:3f:
         d6:17:ba:5a:00:1a:23:03:e4:67:7c:38:72:f9:7d:9d:e2:7b:
         73:a2:e8:36:39:84:89:1a:67:ff:a7:96:94:7f:4d:01:53:64:
         ef:04:31:88:82:eb:40:87:63:70:99:80:d2:07:72:a6:4d:c5:
         3a:64:2a:4a:c7:40:9e:1f:7c:75:17:78:51:d9:f5:2f:66:8e:
         83:f2:d7:2c:f5:46:01:9d:a3:c9:f2:29:91:2f:47:43:1e:7d:
         fd:83:f2:53:a6:de:b6:f0:9d:c1:26:c5:53:aa:d6:a9:47:13:
         71:e1:7b:ed:bd:7a:fc:98:1c:66:47:48:2d:7c:36:4d:f6:9f:
         11:f8:f2:fd:fe:5b:c4:c9:34:07:cc:15:5f:ca:26:e8:8f:eb:
         be:53:20:e9:c1:5f:b1:4e:36:87:fa:b8:c8:b9:f7:cf:16:16:
         88:a6:27:a8:54:0b:ba:10:6b:b7:03:ff:e1:e5:26:e1:87:f4:
         90:19:d6:ed:92:25:f4:9e:16:bd:c9:97:d5:fe:82:d8:29:8b:
         47:1c:71:97:84:39:a6:7b:25:e4:f9:9f:1b:c1:da:39:db:0b:
         e1:6e:3f:ce
-----BEGIN CERTIFICATE-----
MIIDhzCCAm+gAwIBAgIBCDANBgkqhkiG9w0BAQsFADAPMQ0wCwYDVQQDDARSb290
MB4XDTE1MDEwMTEyMDAwMFoXDTIxMDEwMTEyMDAwMFowDjEMMAoGA1UEAwwDTkMx
MIIBIjANBgkqhkiG9w0BAQEFAAOCAQ8AMIIBCgKCAQEA1ayAFLnSeK1DyFFpPph/
vahXo2UoGW1E5Wpd98Ix7U5mqfHSnTa2uZg/2FTS6Xc6+5/VyfnJ31632jRC9svj
ZuC3WoKbdyAPsRceKnBi0meboFTyG6SfBre7r1pvVbF++CDL7eRV2BjLTw7DxF0T
/P3XsRzFWIHP6VZ4Z3iq/gYpnjQ+S/5+7CIWFdYrw24XI0IbKC4hEzGLijMjomf2
I7zyaJtxkpJ/IwlTlmc8/sKBiJ8AVZNNs+cCARNISzQSRW5IaoghM/9aA0lWomlk
l6RTDpBzhMa4KLBbwGeF/Zol8s8OeSR4IIDwLK5GjsXPKb5/9X1zbaoLEFlP1kbx
vwIDAQABo4HuMIHrMB0GA1UdDgQWBBSdRKorm0xmTCDFMrLqCBMTaRdJsTAfBgNV
HSMEGDAWgBT/i/ylaTYvYjvUG+1YL+l3PSmBgzA3BggrBgEFBQcBAQQrMCkwJwYI
KwYBBQUHMAKGG2h0dHA6Ly91cmwtZm9yLWFpYS9Sb290LmNlcjAsBgNVHR8EJTAj
MCGgH6AdhhtodHRwOi8vdXJsLWZvci1jcmwvUm9vdC5jcmwwDgYDVR0PAQH/BAQD
AgEGMA8GA1UdEwEB/wQFMAMBAf8wIQYDVR0eAQH/BBcwFaATMBGkDzANMQswCQYD
VQQKDAJPMTANBgkqhkiG9w0BAQsFAAOCAQEAVIZoskXVmTA/W1z2l9MmDPFPRjk3
hb7POrhXtH0wUShWgcw/1he6WgAaIwPkZ3w4cvl9neJ7c6LoNjmEiRpn/6eWlH9N
AVNk7wQxiILrQIdjcJmA0gdypk3FOmQqSsdAnh98dRd4Udn1L2aOg/LXLPVGAZ2j
yfIpkS9HQx59/YPyU6betvCdwSbFU6rWqUcTceF77b16/JgcZkdILXw2TfafEfjy
/f5bxMk0B8wVX8om6I/rvlMg6cFfsU42h/q4yLn3zxYWiKYnqFQLuhBrtwP/4eUm
4Yf0kBnW7ZIl9J4WvcmX1f6C2CmLRxxxl4Q5pnsl5PmfG8HaOdsL4W4/zg==
-----END CERTIFICATE-----
