Certificate:
    Data:
        Version: 3 (0x2)
        Serial Number: 13 (0xd)
    Signature Algorithm: sha256WithRSAEncryption
        Issuer: CN=Root
        Validity
            Not Before: Jan  1 12:00:00 2015 GMT
            Not After : Jan  1 12:00:00 2021 GMT
        Subject: CN=NC6
        Subject Public Key Info:
            Public Key Algorithm: rsaEncryption
                Public-Key: (2048 bit)
                Modulus:
                    00:d5:ac:80:14:b9:d2:78:ad:43:c8:51:69:3e:98:
                    7f:bd:a8:57:a3:65:28:19:6d:44:e5:6a:5d:f7:c2:
                    31:ed:4e:66:a9:f1:d2:9d:36:b6:b9:98:3f:d8:54:
                    d2:e9:77:3a:fb:9f:d5:c9:f9:c9:df:5e:b7:da:34:
                    42:f6:cb:e3:66:e0:b7:5a:82:9b:77:20:0f:b1:17:
                    1e:2a:70:62:d2:67:9b:a0:54:f2:1b:a4:9f:06:b7:
                    bb:af:5a:6f:55:b1:7e:f8:20:cb:ed:e4:55:d8:18:
                    cb:4f:0e:c3:c4:5d:13:fc:fd:d7:b1:1c:c5:58:81:
                    cf:e9:56:78:67:78:aa:fe:06:29:9e:34:3e:4b:fe:
                    7e:ec:22:16:15:d6:2b:c3:6e:17:23:42:1b:28:2e:
                    21:13:31:8b:8a:33:23:a2:67:f6:23:bc:f2:68:9b:
                    71:92:92:7f:23:09:53:96:67:3c:fe:c2:81:88:9f:
                    00:55:93:4d:b3:e7:02:01:13:48:4b:34:12:45:6e:
                    48:6a:88:21:33:ff:5a:03:49:56:a2:69:64:97:a4:
                    53:0e:90:73:84:c6:b8:28:b0:5b:c0:67:85:fd:9a:
                    25:f2:cf:0e:79:24:78:20:80:f0:2c:ae:46:8e:c5:
                    cf:29:be:7f:f5:7d:73:6d:aa:0b:10:59:4f:d6:46:
                    f1:bf
                Exponent: 65537 (0x10001)
        X509v3 extensions:
            X509v3 Subject Key Identifier: 
                9D:44:AA:2B:9B:4C:66:4C:20:C5:32:B2:EA:08:13:13:69:17:49:B1
            X509v3 Authority Key Identifier: 
                keyid:FF:8B:FC:A5:69:36:2F:62:3B:D4:1B:ED:58:2F:E9:77:3D:29:81:83

            Authority Information Access: 
                CA Issuers - URI:http://url-for-aia/Root.cer

            X509v3 CRL Distribution Points: 

                Full Name:
                  URI:http://url-for-crl/Root.crl

            X509v3 Key Usage: critical
                Certificate Sign, CRL Sign
            X509v3 Basic Constraints: critical
                CA:TRUE
            X509v3 Name Constraints: critical
                Permitted:
                  DirName:O = O2
                  DirName:O = O1
                  DirName:O = O3

    Signature Algorithm: sha256WithRSAEncryption
         7d:73:3b:2d:62:e6:69:68:ef:6a:1d:e4:2c:7a:89:49:4d:a7:
         af:9f:5b:12:53:a6:58:4e:86:63:0d:fc:a2:2f:04:e9:c1:48:
         51:d2:67:04:10:80:80:24:96:4d:9b:ec:48:4a:17:89:61:44:
         2d:02:73:bd:ed:54:82:ad:50:f2:5b:ea:49:87:4b:7e:52:5c:
         0e:c3:33:b1:58:c4:7c:8f:26:32:cc:2e:97:d4:9e:59:5f:84:
         fd:53:84:70:95:cc:e4:62:32:ad:5b:79:6d:9e:6b:40:c7:dc:
         f2:25:87:63:cd:26:8d:32:e8:32:37:6a:38:04:84:7d:42:9e:
         37:9f:08:97:5e:c8:35:55:1f:5d:93:87:8d:ee:27:6a:19:dc:
         61:dd:b9:eb:83:48:96:6c:ba:27:48:31:d3:e8:df:68:95:de:
         a1:05:db:be:79:37:f2:23:e1:93:06:9d:ec:08:93:c6:e3:d7:
         86:10:27:68:c2:23:82:82:a2:5a:84:90:54:a9:a7:ac:38:db:
         ca:42:05:f5:04:2d:7c:f8:99:9c:06:2f:f2:23:2e:2b:f2:29:
         19:72:96:7a:74:d5:c6:09:c1:a0:e4:e5:88:6d:68:05:3a:72:
         ff:3c:cc:8c:63:91:61:56:3e:7f:6b:7f:fc:9b:73:9c:d0:38:
         7a:87:d0:06
-----BEGIN CERTIFICATE-----
MIIDrzCCApegAwIBAgIBDTANBgkqhkiG9w0BAQsFADAPMQ0wCwYDVQQDDARSb290
MB4XDTE1MDEwMTEyMDAwMFoXDTIxMDEwMTEyMDAwMFowDjEMMAoGA1UEAwwDTkM2
MIIBIjANBgkqhkiG9w0BAQEFAAOCAQ8AMIIBCgKCAQEA1ayAFLnSeK1DyFFpPph/
vahXo2UoGW1E5Wpd98Ix7U5mqfHSnTa2uZg/2FTS6Xc6+5/VyfnJ31632jRC9svj
ZuC3WoKbdyAPsRceKnBi0meboFTyG6SfBre7r1pvVbF++CDL7eRV2BjLTw7DxF0T
/P3XsRzFWIHP6VZ4Z3iq/gYpnjQ+S/5+7CIWFdYrw24XI0IbKC4hEzGLijMjomf2
I7zyaJtxkpJ/IwlTlmc8/sKBiJ8AVZNNs+cCARNISzQSRW5IaoghM/9aA0lWomlk
l6RTDpBzhMa4KLBbwGeF/Zol8s8OeSR4IIDwLK5GjsXPKb5/9X1zbaoLEFlP1kbx
vwIDAQABo4IBFTCCAREwHQYDVR0OBBYEFJ1EqiubTGZMIMUysuoIExNpF0mxMB8G
A1UdIwQYMBaAFP+L/KVpNi9iO9Qb7Vgv6Xc9KYGDMDcGCCsGAQUFBwEBBCswKTAn
BggrBgEFBQcwAoYbaHR0cDovL3VybC1mb3ItYWlhL1Jvb3QuY2VyMCwGA1UdHwQl
MCMwIaAfoB2GG2h0dHA6Ly91cmwtZm9yLWNybC9Sb290LmNybDAOBgNVHQ8BAf8E
BAMCAQYwDwYDVR0TAQH/BAUwAwEB/zBHBgNVHR4BAf8EPTA7oDkwEaQPMA0xCzAJ
BgNVBAoMAk8yMBGkDzANMQswCQYDVQQKDAJPMTARpA8wDTELMAkGA1UECgwCTzMw
DQYJKoZIhvcNAQELBQADggEBAH1zOy1i5mlo72od5Cx6iUlNp6+fWxJTplhOhmMN
/KIvBOnBSFHSZwQQgIAklk2b7EhKF4lhRC0Cc73tVIKtUPJb6kmHS35SXA7DM7FY
xHyPJjLMLpfUnllfhP1ThHCVzORiMq1beW2ea0DH3PIlh2PNJo0y6DI3ajgEhH1C
njefCJdeyDVVH12Th43uJ2oZ3GHdueuDSJZsuidIMdPo32iV3qEF2755N/Ij4ZMG
newIk8bj14YQJ2jCI4KColqEkFSpp6w428pCBfUELXz4mZwGL/IjLivyKRlylnp0
1cYJwaDk5YhtaAU6cv88zIxjkWFWPn9rf/ybc5zQOHqH0AY=
-----END CERTIFICATE-----
