Certificate:
    Data:
        Version: 3 (0x2)
        Serial Number: 12 (0xc)
    Signature Algorithm: sha256WithRSAEncryption
        Issuer: CN=Root
        Validity
            Not Before: Jan  1 12:00:00 2015 GMT
            Not After : Jan  1 12:00:00 2021 GMT
        Subject: CN=NC5
        Subject Public Key Info:
            Public Key Algorithm: rsaEncryption
                Public-Key: (2048 bit)
                Modulus:
                    00:d5:ac:80:14:b9:d2:78:ad:43:c8:51:69:3e:98:
                    7f:bd:a8:57:a3:65:28:19:6d:44:e5:6a:5d:f7:c2:
                    31:ed:4e:66:a9:f1:d2:9d:36:b6:b9:98:3f:d8:54:
                    d2:e9:77:3a:fb:9f:d5:c9:f9:c9:df:5e:b7:da:34:
                    42:f6:cb:e3:66:e0:b7:5a:82:9b:77:20:0f:b1:17:
                    1e:2a:70:62:d2:67:9b:a0:54:f2:1b:a4:9f:06:b7:
                    bb:af:5a:6f:55:b1:7e:f8:20:cb:ed:e4:55:d8:18:
                    cb:4f:0e:c3:c4:5d:13:fc:fd:d7:b1:1c:c5:58:81:
                    cf:e9:56:78:67:78:aa:fe:06:29:9e:34:3e:4b:fe:
                    7e:ec:22:16:15:d6:2b:c3:6e:17:23:42:1b:28:2e:
                    21:13:31:8b:8a:33:23:a2:67:f6:23:bc:f2:68:9b:
                    71:92:92:7f:23:09:53:96:67:3c:fe:c2:81:88:9f:
                    00:55:93:4d:b3:e7:02:01:13:48:4b:34:12:45:6e:
                    48:6a:88:21:33:ff:5a:03:49:56:a2:69:64:97:a4:
                    53:0e:90:73:84:c6:b8:28:b0:5b:c0:67:85:fd:9a:
                    25:f2:cf:0e:79:24:78:20:80:f0:2c:ae:46:8e:c5:
                    cf:29:be:7f:f5:7d:73:6d:aa:0b:10:59:4f:d6:46:
                    f1:bf
                Exponent: 65537 (0x10001)
        X509v3 extensions:
            X509v3 Subject Key Identifier: 
                9D:44:AA:2B:9B:4C:66:4C:20:C5:32:B2:EA:08:13:13:69:17:49:B1
            X509v3 Authority Key Identifier: 
                keyid:FF:8B:FC:A5:69:36:2F:62:3B:D4:1B:ED:58:2F:E9:77:3D:29:81:83

            Authority Information Access: 
                CA Issuers - URI:http://url-for-aia/Root.cer

            X509v3 CRL Distribution Points: 

                Full Name:
                  URI:http://url-for-crl/Root.crl

            X509v3 Key Usage: critical
                Certificate Sign, CRL Sign
            X509v3 Basic Constraints: critical
                CA:TRUE
            X509v3 Name Constraints: critical
                Permitted:
                  DNS:test.invalid

    Signature Algorithm: sha256WithRSAEncryption
         9e:89:c0:a4:72:98:ff:88:93:3e:16:d7:e0:0a:dc:95:d3:35:
         8e:4b:f8:f3:25:9a:64:6b:82:0a:47:ac:10:76:44:bb:ac:28:
         61:e0:28:67:58:d6:36:0e:66:da:19:d6:bd:2d:3b:f2:74:78:
         e2:a8:f4:4d:3d:f4:16:74:09:62:55:29:e8:d7:96:a0:b7:36:
         53:ba:a8:74:bb:13:74:5c:a9:90:b9:f4:06:56:57:ab:be:55:
         af:12:0a:1c:eb:13:4a:cc:37:d2:91:15:48:f9:70:0d:a4:c2:
         19:de:55:ec:8b:d3:be:84:38:5b:f4:01:e1:07:1e:44:c8:3d:
         74:d5:b0:9a:b8:70:e8:a7:33:6b:c6:2c:1b:f2:12:e3:c7:7f:
         26:e5:11:56:f2:04:c0:6d:e9:b7:a0:ac:3a:3d:fa:77:7b:ed:
         e7:fa:ef:99:de:a6:3c:8c:6c:da:96:56:9b:62:bc:11:5d:31:
         91:93:4a:43:9e:d1:89:c1:dc:62:7a:dd:24:18:91:b3:cd:28:
         74:e7:68:e5:54:15:9a:7a:9f:ef:2e:72:c7:e9:8c:71:5f:ed:
         b3:51:c0:29:49:4c:e1:0d:f5:73:fe:d2:14:2f:c9:07:df:7b:
         39:16:91:1a:3b:63:fd:f9:18:a9:69:f4:99:35:c9:4a:7b:ef:
         17:40:d2:d5
-----BEGIN CERTIFICATE-----
MIIDhDCCAmygAwIBAgIBDDANBgkqhkiG9w0BAQsFADAPMQ0wCwYDVQQDDARSb290
MB4XDTE1MDEwMTEyMDAwMFoXDTIxMDEwMTEyMDAwMFowDjEMMAoGA1UEAwwDTkM1
MIIBIjANBgkqhkiG9w0BAQEFAAOCAQ8AMIIBCgKCAQEA1ayAFLnSeK1DyFFpPph/
vahXo2UoGW1E5Wpd98Ix7U5mqfHSnTa2uZg/2FTS6Xc6+5/VyfnJ31632jRC9svj
ZuC3WoKbdyAPsRceKnBi0meboFTyG6SfBre7r1pvVbF++CDL7eRV2BjLTw7DxF0T
/P3XsRzFWIHP6VZ4Z3iq/gYpnjQ+S/5+7CIWFdYrw24XI0IbKC4hEzGLijMjomf2
I7zyaJtxkpJ/IwlTlmc8/sKBiJ8AVZNNs+cCARNISzQSRW5IaoghM/9aA0lWomlk
l6RTDpBzhMa4KLBbwGeF/Zol8s8OeSR4IIDwLK5GjsXPKb5/9X1zbaoLEFlP1kbx
vwIDAQABo4HrMIHoMB0GA1UdDgQWBBSdRKorm0xmTCDFMrLqCBMTaRdJsTAfBgNV
HSMEGDAWgBT/i/ylaTYvYjvUG+1YL+l3PSmBgzA3BggrBgEFBQcBAQQrMCkwJwYI
KwYBBQUHMAKGG2h0dHA6Ly91cmwtZm9yLWFpYS9Sb290LmNlcjAsBgNVHR8EJTAj
MCGgH6AdhhtodHRwOi8vdXJsLWZvci1jcmwvUm9vdC5jcmwwDgYDVR0PAQH/BAQD
AgEGMA8GA1UdEwEB/wQFMAMBAf8wHgYDVR0eAQH/BBQwEqAQMA6CDHRlc3QuaW52
YWxpZDANBgkqhkiG9w0BAQsFAAOCAQEAnonApHKY/4iTPhbX4ArcldM1jkv48yWa
ZGuCCkesEHZEu6woYeAoZ1jWNg5m2hnWvS078nR44qj0TT30FnQJYlUp6NeWoLc2
U7qodLsTdFypkLn0BlZXq75VrxIKHOsTSsw30pEVSPlwDaTCGd5V7IvTvoQ4W/QB
4QceRMg9dNWwmrhw6Kcza8YsG/IS48d/JuURVvIEwG3pt6CsOj36d3vt5/rvmd6m
PIxs2pZWm2K8EV0xkZNKQ57RicHcYnrdJBiRs80odOdo5VQVmnqf7y5yx+mMcV/t
s1HAKUlM4Q31c/7SFC/JB997ORaRGjtj/fkYqWn0mTXJSnvvF0DS1Q==
-----END CERTIFICATE-----
