Certificate:
    Data:
        Version: 3 (0x2)
        Serial Number: 9 (0x9)
    Signature Algorithm: sha256WithRSAEncryption
        Issuer: CN=Root
        Validity
            Not Before: Jan  1 12:00:00 2015 GMT
            Not After : Jan  1 12:00:00 2021 GMT
        Subject: CN=\x00N\x00C\x002
        Subject Public Key Info:
            Public Key Algorithm: rsaEncryption
                Public-Key: (2048 bit)
                Modulus:
                    00:d5:ac:80:14:b9:d2:78:ad:43:c8:51:69:3e:98:
                    7f:bd:a8:57:a3:65:28:19:6d:44:e5:6a:5d:f7:c2:
                    31:ed:4e:66:a9:f1:d2:9d:36:b6:b9:98:3f:d8:54:
                    d2:e9:77:3a:fb:9f:d5:c9:f9:c9:df:5e:b7:da:34:
                    42:f6:cb:e3:66:e0:b7:5a:82:9b:77:20:0f:b1:17:
                    1e:2a:70:62:d2:67:9b:a0:54:f2:1b:a4:9f:06:b7:
                    bb:af:5a:6f:55:b1:7e:f8:20:cb:ed:e4:55:d8:18:
                    cb:4f:0e:c3:c4:5d:13:fc:fd:d7:b1:1c:c5:58:81:
                    cf:e9:56:78:67:78:aa:fe:06:29:9e:34:3e:4b:fe:
                    7e:ec:22:16:15:d6:2b:c3:6e:17:23:42:1b:28:2e:
                    21:13:31:8b:8a:33:23:a2:67:f6:23:bc:f2:68:9b:
                    71:92:92:7f:23:09:53:96:67:3c:fe:c2:81:88:9f:
                    00:55:93:4d:b3:e7:02:01:13:48:4b:34:12:45:6e:
                    48:6a:88:21:33:ff:5a:03:49:56:a2:69:64:97:a4:
                    53:0e:90:73:84:c6:b8:28:b0:5b:c0:67:85:fd:9a:
                    25:f2:cf:0e:79:24:78:20:80:f0:2c:ae:46:8e:c5:
                    cf:29:be:7f:f5:7d:73:6d:aa:0b:10:59:4f:d6:46:
                    f1:bf
                Exponent: 65537 (0x10001)
        X509v3 extensions:
            X509v3 Subject Key Identifier: 
                9D:44:AA:2B:9B:4C:66:4C:20:C5:32:B2:EA:08:13:13:69:17:49:B1
            X509v3 Authority Key Identifier: 
                keyid:FF:8B:FC:A5:69:36:2F:62:3B:D4:1B:ED:58:2F:E9:77:3D:29:81:83

            Authority Information Access: 
                CA Issuers - URI:http://url-for-aia/Root.cer

            X509v3 CRL Distribution Points: 

                Full Name:
                  URI:http://url-for-crl/Root.crl

            X509v3 Key Usage: critical
                Certificate Sign, CRL Sign
            X509v3 Basic Constraints: critical
                CA:TRUE
    Signature Algorithm: sha256WithRSAEncryption
         8e:89:ad:c4:4d:31:16:ee:46:80:dc:1d:f9:24:15:dc:a5:91:
         14:90:17:cb:db:28:cc:86:b6:16:0d:80:10:f5:f7:06:bd:60:
         64:76:57:cf:da:c4:b0:51:79:2c:c3:d5:9c:ed:af:ad:90:5d:
         38:4d:aa:10:31:08:2f:b2:dc:fa:22:e6:50:b9:1d:18:d0:b7:
         fb:c7:fe:4e:84:56:95:64:88:ac:ed:5f:40:73:2e:ff:5d:74:
         a3:c5:93:cc:72:59:12:b6:0f:29:95:3f:0c:f1:86:6e:27:8c:
         52:cc:aa:4d:29:80:1d:1b:50:2c:39:af:e9:7b:8b:87:a5:bd:
         6f:6a:a4:a6:46:c2:da:28:45:66:4e:dc:b7:91:00:0e:76:b2:
         86:68:0e:c0:47:e4:bb:fc:19:38:4b:2c:7e:95:bb:41:4c:6d:
         55:ca:3e:fb:44:c0:8a:2f:b4:36:0b:ef:4e:ed:94:a1:45:d1:
         d0:1b:35:e7:aa:cf:4e:99:0e:b3:54:d6:a0:c2:b9:1c:2c:dc:
         42:e5:5c:cb:f5:e4:91:eb:73:11:af:55:78:1f:1a:fa:19:a4:
         8c:16:1c:c9:72:ea:1a:07:f1:1c:a8:db:1f:3c:03:13:0b:89:
         e6:80:22:70:25:d4:31:14:e5:28:32:bf:8f:9b:04:21:ea:d5:
         52:57:81:b4
-----BEGIN CERTIFICATE-----
MIIDZzCCAk+gAwIBAgIBCTANBgkqhkiG9w0BAQsFADAPMQ0wCwYDVQQDDARSb290
MB4XDTE1MDEwMTEyMDAwMFoXDTIxMDEwMTEyMDAwMFowETEPMA0GA1UEAx4GAE4A
QwAyMIIBIjANBgkqhkiG9w0BAQEFAAOCAQ8AMIIBCgKCAQEA1ayAFLnSeK1DyFFp
Pph/vahXo2UoGW1E5Wpd98Ix7U5mqfHSnTa2uZg/2FTS6Xc6+5/VyfnJ31632jRC
9svjZuC3WoKbdyAPsRceKnBi0meboFTyG6SfBre7r1pvVbF++CDL7eRV2BjLTw7D
xF0T/P3XsRzFWIHP6VZ4Z3iq/gYpnjQ+S/5+7CIWFdYrw24XI0IbKC4hEzGLijMj
omf2I7zyaJtxkpJ/IwlTlmc8/sKBiJ8AVZNNs+cCARNISzQSRW5IaoghM/9aA0lW
omlkl6RTDpBzhMa4KLBbwGeF/Zol8s8OeSR4IIDwLK5GjsXPKb5/9X1zbaoLEFlP
1kbxvwIDAQABo4HLMIHIMB0GA1UdDgQWBBSdRKorm0xmTCDFMrLqCBMTaRdJsTAf
BgNVHSMEGDAWgBT/i/ylaTYvYjvUG+1YL+l3PSmBgzA3BggrBgEFBQcBAQQrMCkw
JwYIKwYBBQUHMAKGG2h0dHA6Ly91cmwtZm9yLWFpYS9Sb290LmNlcjAsBgNVHR8E
JTAjMCGgH6AdhhtodHRwOi8vdXJsLWZvci1jcmwvUm9vdC5jcmwwDgYDVR0PAQH/
BAQDAgEGMA8GA1UdEwEB/wQFMAMBAf8wDQYJKoZIhvcNAQELBQADggEBAI6JrcRN
MRbuRoDcHfkkFdylkRSQF8vbKMyGthYNgBD19wa9YGR2V8/axLBReSzD1Zztr62Q
XThNqhAxCC+y3Poi5lC5HRjQt/vH/k6EVpVkiKztX0BzLv9ddKPFk8xyWRK2DymV
Pwzxhm4njFLMqk0pgB0bUCw5r+l7i4elvW9qpKZGwtooRWZO3LeRAA52soZoDsBH
5Lv8GThLLH6Vu0FMbVXKPvtEwIovtDYL707tlKFF0dAbNeeqz06ZDrNU1qDCuRws
3ELlXMv15JHrcxGvVXgfGvoZpIwWHMly6hoH8Ryo2x88AxMLieaAInAl1DEU5Sgy
v4+bBCHq1VJXgbQ=
-----END CERTIFICATE-----
