Certificate:
    Data:
        Version: 3 (0x2)
        Serial Number: 10 (0xa)
    Signature Algorithm: sha256WithRSAEncryption
        Issuer: CN=Root
        Validity
            Not Before: Jan  1 12:00:00 2015 GMT
            Not After : Jan  1 12:00:00 2021 GMT
        Subject: CN=NC3
        Subject Public Key Info:
            Public Key Algorithm: rsaEncryption
                Public-Key: (2048 bit)
                Modulus:
                    00:d5:ac:80:14:b9:d2:78:ad:43:c8:51:69:3e:98:
                    7f:bd:a8:57:a3:65:28:19:6d:44:e5:6a:5d:f7:c2:
                    31:ed:4e:66:a9:f1:d2:9d:36:b6:b9:98:3f:d8:54:
                    d2:e9:77:3a:fb:9f:d5:c9:f9:c9:df:5e:b7:da:34:
                    42:f6:cb:e3:66:e0:b7:5a:82:9b:77:20:0f:b1:17:
                    1e:2a:70:62:d2:67:9b:a0:54:f2:1b:a4:9f:06:b7:
                    bb:af:5a:6f:55:b1:7e:f8:20:cb:ed:e4:55:d8:18:
                    cb:4f:0e:c3:c4:5d:13:fc:fd:d7:b1:1c:c5:58:81:
                    cf:e9:56:78:67:78:aa:fe:06:29:9e:34:3e:4b:fe:
                    7e:ec:22:16:15:d6:2b:c3:6e:17:23:42:1b:28:2e:
                    21:13:31:8b:8a:33:23:a2:67:f6:23:bc:f2:68:9b:
                    71:92:92:7f:23:09:53:96:67:3c:fe:c2:81:88:9f:
                    00:55:93:4d:b3:e7:02:01:13:48:4b:34:12:45:6e:
                    48:6a:88:21:33:ff:5a:03:49:56:a2:69:64:97:a4:
                    53:0e:90:73:84:c6:b8:28:b0:5b:c0:67:85:fd:9a:
                    25:f2:cf:0e:79:24:78:20:80:f0:2c:ae:46:8e:c5:
                    cf:29:be:7f:f5:7d:73:6d:aa:0b:10:59:4f:d6:46:
                    f1:bf
                Exponent: 65537 (0x10001)
        X509v3 extensions:
            X509v3 Subject Key Identifier: 
                9D:44:AA:2B:9B:4C:66:4C:20:C5:32:B2:EA:08:13:13:69:17:49:B1
            X509v3 Authority Key Identifier: 
                keyid:FF:8B:FC:A5:69:36:2F:62:3B:D4:1B:ED:58:2F:E9:77:3D:29:81:83

            Authority Information Access: 
                CA Issuers - URI:http://url-for-aia/Root.cer

            X509v3 CRL Distribution Points: 

                Full Name:
                  URI:http://url-for-crl/Root.crl

            X509v3 Key Usage: critical
                Certificate Sign, CRL Sign
            X509v3 Basic Constraints: critical
                CA:TRUE
            X509v3 Name Constraints: critical
                Permitted:
                  DirName:CN = O1

    Signature Algorithm: sha256WithRSAEncryption
         75:fc:1b:72:ca:48:55:b8:e5:a0:fd:e6:3a:4a:e3:da:2b:df:
         69:94:30:4a:41:db:5a:fc:d2:35:38:4c:b6:09:e0:29:d0:b8:
         88:47:90:e8:fb:01:2d:2d:22:53:9a:f5:a3:63:8c:15:c9:ef:
         73:e6:b0:9a:e7:53:c9:a6:7d:f2:af:19:ef:11:a6:46:fa:ed:
         e4:93:18:71:ff:be:97:cd:22:f8:7a:44:65:de:2a:6b:c0:f4:
         81:d9:22:8f:a5:0c:54:22:5b:8c:9f:b8:ec:15:71:44:3d:0b:
         e3:11:1c:8c:5e:3b:13:4c:06:97:25:10:49:dc:30:a3:da:4c:
         22:ab:66:e2:54:a9:2d:4c:3c:9a:db:1b:2a:d0:13:e4:36:e0:
         6f:2a:be:e9:ae:9f:d0:48:72:14:2e:f4:bf:d3:04:f5:7e:23:
         b2:5b:62:a6:05:83:00:8d:b9:ae:dc:58:51:56:a5:36:13:14:
         98:ce:63:9e:65:4d:ac:12:15:50:a1:d2:92:99:bf:11:7f:54:
         b1:10:db:94:b5:78:7d:01:3d:11:4e:a8:4b:e5:c8:a7:ab:6b:
         b4:7e:3e:33:f9:dd:5c:43:1d:80:a5:58:e4:c5:38:ac:e7:98:
         1e:b6:46:6a:e1:04:9e:6c:17:f6:5c:15:1c:af:5f:5d:8a:3a:
         09:9d:8f:8c
-----BEGIN CERTIFICATE-----
MIIDhzCCAm+gAwIBAgIBCjANBgkqhkiG9w0BAQsFADAPMQ0wCwYDVQQDDARSb290
MB4XDTE1MDEwMTEyMDAwMFoXDTIxMDEwMTEyMDAwMFowDjEMMAoGA1UEAwwDTkMz
MIIBIjANBgkqhkiG9w0BAQEFAAOCAQ8AMIIBCgKCAQEA1ayAFLnSeK1DyFFpPph/
vahXo2UoGW1E5Wpd98Ix7U5mqfHSnTa2uZg/2FTS6Xc6+5/VyfnJ31632jRC9svj
ZuC3WoKbdyAPsRceKnBi0meboFTyG6SfBre7r1pvVbF++CDL7eRV2BjLTw7DxF0T
/P3XsRzFWIHP6VZ4Z3iq/gYpnjQ+S/5+7CIWFdYrw24XI0IbKC4hEzGLijMjomf2
I7zyaJtxkpJ/IwlTlmc8/sKBiJ8AVZNNs+cCARNISzQSRW5IaoghM/9aA0lWomlk
l6RTDpBzhMa4KLBbwGeF/Zol8s8OeSR4IIDwLK5GjsXPKb5/9X1zbaoLEFlP1kbx
vwIDAQABo4HuMIHrMB0GA1UdDgQWBBSdRKorm0xmTCDFMrLqCBMTaRdJsTAfBgNV
HSMEGDAWgBT/i/ylaTYvYjvUG+1YL+l3PSmBgzA3BggrBgEFBQcBAQQrMCkwJwYI
KwYBBQUHMAKGG2h0dHA6Ly91cmwtZm9yLWFpYS9Sb290LmNlcjAsBgNVHR8EJTAj
MCGgH6AdhhtodHRwOi8vdXJsLWZvci1jcmwvUm9vdC5jcmwwDgYDVR0PAQH/BAQD
AgEGMA8GA1UdEwEB/wQFMAMBAf8wIQYDVR0eAQH/BBcwFaATMBGkDzANMQswCQYD
VQQDDAJPMTANBgkqhkiG9w0BAQsFAAOCAQEAdfwbcspIVbjloP3mOkrj2ivfaZQw
SkHbWvzSNThMtgngKdC4iEeQ6PsBLS0iU5r1o2OMFcnvc+awmudTyaZ98q8Z7xGm
Rvrt5JMYcf++l80i+HpEZd4qa8D0gdkij6UMVCJbjJ+47BVxRD0L4xEcjF47E0wG
lyUQSdwwo9pMIqtm4lSpLUw8mtsbKtAT5Dbgbyq+6a6f0EhyFC70v9ME9X4jslti
pgWDAI25rtxYUValNhMUmM5jnmVNrBIVUKHSkpm/EX9UsRDblLV4fQE9EU6oS+XI
p6trtH4+M/ndXEMdgKVY5MU4rOeYHrZGauEEnmwX9lwVHK9fXYo6CZ2PjA==
-----END CERTIFICATE-----
