Certificate:
    Data:
        Version: 3 (0x2)
        Serial Number: 1 (0x1)
    Signature Algorithm: sha256WithRSAEncryption
        Issuer: CN=Root
        Validity
            Not Before: Jan  1 12:00:00 2015 GMT
            Not After : Jan  1 12:00:00 2021 GMT
        Subject: CN=Root
        Subject Public Key Info:
            Public Key Algorithm: rsaEncryption
                Public-Key: (2048 bit)
                Modulus:
                    00:d6:58:29:fc:69:44:34:39:a5:91:06:35:ac:de:
                    31:2a:f7:6f:f0:1a:c7:21:6e:83:cb:d2:5d:06:c1:
                    9f:52:4d:ee:46:07:35:10:28:b5:5c:68:29:87:22:
                    8e:c6:f7:7d:ed:89:05:28:9c:d1:6a:80:c6:44:fb:
                    5c:bc:09:0c:37:f1:25:b7:3c:f9:01:84:72:03:dd:
                    3b:02:5a:cb:5f:65:00:27:8c:ec:25:8b:2b:b0:8b:
                    9b:60:3f:b6:b9:ba:53:68:88:3c:30:46:32:fa:d9:
                    a9:ce:aa:55:b5:ca:3e:51:e7:98:5e:d1:1b:0c:75:
                    d1:a0:7e:1f:44:ff:b4:62:c4:b4:d3:d9:5d:6d:71:
                    b2:c1:0a:59:b4:fc:60:74:4f:a3:df:64:7d:66:5e:
                    4b:2a:9e:4e:e0:16:c5:aa:a3:0c:b9:60:a3:38:70:
                    93:cc:ce:43:4b:6e:2b:60:b5:1f:c1:ff:ee:85:be:
                    62:db:63:47:87:e1:3e:a2:4b:57:d6:ce:6e:f8:ce:
                    7d:d3:8f:db:e1:2d:0a:57:39:0f:dd:6e:dd:4c:8a:
                    05:7b:c9:97:e4:9e:0a:ff:99:c2:41:29:7a:06:b9:
                    3c:f1:02:fe:3b:85:b5:ef:4a:ae:85:8c:75:66:62:
                    72:0f:37:b4:aa:80:d5:21:43:70:04:e4:3e:00:f4:
                    af:39
                Exponent: 65537 (0x10001)
        X509v3 extensions:
            X509v3 Subject Key Identifier: 
                FF:8B:FC:A5:69:36:2F:62:3B:D4:1B:ED:58:2F:E9:77:3D:29:81:83
            X509v3 Authority Key Identifier: 
                keyid:FF:8B:FC:A5:69:36:2F:62:3B:D4:1B:ED:58:2F:E9:77:3D:29:81:83

            Authority Information Access: 
                CA Issuers - URI:http://url-for-aia/Root.cer

            X509v3 CRL Distribution Points: 

                Full Name:
                  URI:http://url-for-crl/Root.crl

            X509v3 Key Usage: critical
                Certificate Sign, CRL Sign
            X509v3 Basic Constraints: critical
                CA:TRUE
    Signature Algorithm: sha256WithRSAEncryption
         9a:2b:db:bf:99:c1:cc:a9:33:40:8f:5b:c9:a1:a5:6b:77:16:
         f2:33:37:3a:40:a4:bd:59:cb:1c:b0:f1:a8:83:2b:e9:de:8e:
         6d:29:1c:d3:e6:e6:b9:ae:44:5c:0b:4b:84:9b:43:9f:23:6b:
         90:11:56:09:76:8a:3f:55:f5:21:31:c0:cd:f6:f3:97:e6:d1:
         d7:d2:e7:8b:d4:df:94:0d:95:3e:63:95:99:d9:b6:e8:87:af:
         84:11:05:46:52:04:4b:b1:a7:e1:a5:b4:a0:ad:0f:2f:96:b4:
         01:12:8e:c9:ba:40:ff:3b:6f:a6:43:bf:0b:ab:a0:9e:c7:fc:
         c6:f9:0b:c0:a6:4d:cc:f7:5f:d2:cd:09:17:82:5d:c9:c6:d7:
         d7:f4:19:1a:dd:8f:66:2c:92:19:98:b4:49:f7:54:01:5c:29:
         21:91:d3:a8:4b:c4:95:0d:4f:db:a4:09:e0:99:0b:9f:c4:ef:
         dd:fa:45:7a:13:a4:26:19:71:91:c7:61:e9:30:c8:0f:6a:de:
         a1:9d:c8:fe:1d:ee:bc:27:03:bc:c2:39:fb:f2:fa:c8:55:dc:
         dd:e9:c5:a8:2c:15:c0:5e:7d:42:b7:a0:01:80:30:7a:55:fe:
         77:9b:94:52:05:10:5b:df:60:88:2f:38:21:8a:d5:b0:1e:21:
         30:c4:29:8f
-----BEGIN CERTIFICATE-----
MIIDZTCCAk2gAwIBAgIBATANBgkqhkiG9w0BAQsFADAPMQ0wCwYDVQQDDARSb290
MB4XDTE1MDEwMTEyMDAwMFoXDTIxMDEwMTEyMDAwMFowDzENMAsGA1UEAwwEUm9v
dDCCASIwDQYJKoZIhvcNAQEBBQADggEPADCCAQoCggEBANZYKfxpRDQ5pZEGNaze
MSr3b/AaxyFug8vSXQbBn1JN7kYHNRAotVxoKYcijsb3fe2JBSic0WqAxkT7XLwJ
DDfxJbc8+QGEcgPdOwJay19lACeM7CWLK7CLm2A/trm6U2iIPDBGMvrZqc6qVbXK
PlHnmF7RGwx10aB+H0T/tGLEtNPZXW1xssEKWbT8YHRPo99kfWZeSyqeTuAWxaqj
DLlgozhwk8zOQ0tuK2C1H8H/7oW+YttjR4fhPqJLV9bObvjOfdOP2+EtClc5D91u
3UyKBXvJl+SeCv+ZwkEpega5PPEC/juFte9KroWMdWZicg83tKqA1SFDcATkPgD0
rzkCAwEAAaOByzCByDAdBgNVHQ4EFgQU/4v8pWk2L2I71BvtWC/pdz0pgYMwHwYD
VR0jBBgwFoAU/4v8pWk2L2I71BvtWC/pdz0pgYMwNwYIKwYBBQUHAQEEKzApMCcG
CCsGAQUFBzAChhtodHRwOi8vdXJsLWZvci1haWEvUm9vdC5jZXIwLAYDVR0fBCUw
IzAhoB+gHYYbaHR0cDovL3VybC1mb3ItY3JsL1Jvb3QuY3JsMA4GA1UdDwEB/wQE
AwIBBjAPBgNVHRMBAf8EBTADAQH/MA0GCSqGSIb3DQEBCwUAA4IBAQCaK9u/mcHM
qTNAj1vJoaVrdxbyMzc6QKS9WcscsPGogyvp3o5tKRzT5ua5rkRcC0uEm0OfI2uQ
EVYJdoo/VfUhMcDN9vOX5tHX0ueL1N+UDZU+Y5WZ2bboh6+EEQVGUgRLsafhpbSg
rQ8vlrQBEo7JukD/O2+mQ78Lq6Cex/zG+QvApk3M91/SzQkXgl3JxtfX9Bka3Y9m
LJIZmLRJ91QBXCkhkdOoS8SVDU/bpAngmQufxO/d+kV6E6QmGXGRx2HpMMgPat6h
ncj+He68JwO8wjn78vrIVdzd6cWoLBXAXn1Ct6ABgDB6Vf53m5RSBRBb32CILzgh
itWwHiEwxCmP
-----END CERTIFICATE-----
