Has a status of MALFORMED_REQUEST

$ openssl ocsp -resp_text -respin <([OCSP RESPONSE])
Responder Error: malformedrequest (1)
-----BEGIN OCSP RESPONSE-----
MAMKAQE=
-----END OCSP RESPONSE-----

$ openssl x509 -text < [CA CERTIFICATE]
Certificate:
    Data:
        Version: 3 (0x2)
        Serial Number: 0 (0x0)
    Signature Algorithm: sha1WithRSAEncryption
        Issuer: CN=Test CA
        Validity
            Not Before: Jan  1 00:00:00 2017 GMT
            Not After : Jan  1 00:00:00 2018 GMT
        Subject: CN=Test CA
        Subject Public Key Info:
            Public Key Algorithm: rsaEncryption
                Public-Key: (1024 bit)
                Modulus:
                    00:d4:aa:31:f4:1a:0d:9c:8d:de:4f:1b:34:72:2b:
                    63:23:a4:87:4f:55:b2:b0:c0:cb:27:89:18:77:2e:
                    0e:d3:11:90:3e:62:23:b5:ab:34:6d:5f:7a:34:56:
                    dd:65:86:ed:07:c2:3b:73:fc:e9:7d:a8:64:ce:9b:
                    8a:09:e1:ed:08:7d:04:5f:b1:cf:3d:fd:ff:37:35:
                    d3:c2:fe:02:ab:d8:f6:1f:a5:58:9e:4e:43:b4:e7:
                    8d:f9:6c:4c:71:14:32:5d:86:1d:ea:1a:3d:34:ad:
                    b4:1a:a0:13:c0:7c:cb:8e:f2:f3:d1:ec:fd:5f:ad:
                    db:13:c9:2e:9c:3a:39:02:a3
                Exponent: 65537 (0x10001)
    Signature Algorithm: sha1WithRSAEncryption
         5e:9b:eb:b0:e8:7d:c6:e8:24:e3:b3:8f:3f:cd:4e:80:3e:77:
         58:c5:60:bc:40:e0:16:e2:17:ce:81:fd:0f:19:36:56:c5:a3:
         df:49:5f:b7:a1:4c:44:d0:3e:06:e2:42:57:b7:be:fd:b7:bb:
         31:79:db:eb:ed:a3:c5:66:36:45:cb:4b:ba:6c:8d:53:89:98:
         c5:e0:ee:48:ef:97:ce:4d:14:33:bf:24:61:29:b9:7d:4e:7e:
         cf:14:cc:c9:fa:0b:9e:68:34:9c:34:79:08:36:e0:ed:4f:a1:
         9a:ac:c2:73:d3:2c:67:0e:23:5e:e0:9f:7f:05:ed:9a:b0:e1:
         b7:93
-----BEGIN CA CERTIFICATE-----
MIIBnDCCAQWgAwIBAgIBADANBgkqhkiG9w0BAQUFADASMRAwDgYDVQQDEwdUZXN0IENBMCIYDzI
wMTcwMTAxMDAwMDAwWhgPMjAxODAxMDEwMDAwMDBaMBIxEDAOBgNVBAMTB1Rlc3QgQ0EwgZ8wDQ
YJKoZIhvcNAQEBBQADgY0AMIGJAoGBANSqMfQaDZyN3k8bNHIrYyOkh09VsrDAyyeJGHcuDtMRk
D5iI7WrNG1fejRW3WWG7QfCO3P86X2oZM6bignh7Qh9BF+xzz39/zc108L+AqvY9h+lWJ5OQ7Tn
jflsTHEUMl2GHeoaPTSttBqgE8B8y47y89Hs/V+t2xPJLpw6OQKjAgMBAAEwDQYJKoZIhvcNAQE
FBQADgYEAXpvrsOh9xugk47OPP81OgD53WMVgvEDgFuIXzoH9Dxk2VsWj30lft6FMRNA+BuJCV7
e+/be7MXnb6+2jxWY2RctLumyNU4mYxeDuSO+Xzk0UM78kYSm5fU5+zxTMyfoLnmg0nDR5CDbg7
U+hmqzCc9MsZw4jXuCffwXtmrDht5M=
-----END CA CERTIFICATE-----

$ openssl x509 -text < [CERTIFICATE]
Certificate:
    Data:
        Version: 3 (0x2)
        Serial Number: 3 (0x3)
    Signature Algorithm: sha1WithRSAEncryption
        Issuer: CN=Test CA
        Validity
            Not Before: Jan  1 00:00:00 2017 GMT
            Not After : Jan  1 00:00:00 2018 GMT
        Subject: CN=Test Cert
        Subject Public Key Info:
            Public Key Algorithm: rsaEncryption
                Public-Key: (1024 bit)
                Modulus:
                    00:ad:b1:4c:76:1c:d3:13:a5:62:e3:c9:2a:a0:18:
                    88:8a:10:5b:37:0f:32:24:33:0b:db:9d:8c:96:e5:
                    4d:c2:d5:ca:47:1f:19:a5:c8:27:b4:42:bf:fe:ad:
                    96:8e:a0:73:50:2e:f2:35:d7:d1:9f:ba:41:59:8b:
                    83:3d:2c:ab:68:7f:73:df:18:f1:ff:f4:3b:9c:68:
                    d9:8a:f0:df:c0:97:5c:e8:43:5f:14:fd:59:52:c2:
                    91:62:5e:e9:e8:a8:22:07:b9:5b:b4:46:60:b4:ee:
                    62:29:0e:df:35:4c:41:e0:5c:89:9e:9c:b3:d8:fb:
                    6d:c3:02:61:31:a4:e8:86:af
                Exponent: 65537 (0x10001)
    Signature Algorithm: sha1WithRSAEncryption
         90:f6:92:8b:41:fd:9e:29:8f:54:1e:c2:98:25:7e:19:ed:8e:
         9e:37:9a:ae:ce:83:5e:56:7e:48:be:75:d4:5c:61:ce:07:a7:
         0c:44:ed:ed:66:10:20:2e:ac:3e:93:2f:42:62:76:a1:07:eb:
         07:63:c3:e7:58:26:0b:67:72:31:d1:2c:b0:b5:fd:1b:ee:b5:
         d0:11:99:55:06:02:17:8c:e5:f7:46:12:56:26:3f:6b:46:58:
         a6:c6:02:2f:b8:bc:8d:ca:bd:57:f3:ce:8e:a4:a6:ad:80:4e:
         34:3f:3c:76:1e:d0:75:39:2c:2c:e7:fc:8b:83:d0:21:1d:04:
         62:51
-----BEGIN CERTIFICATE-----
MIIBnjCCAQegAwIBAgIBAzANBgkqhkiG9w0BAQUFADASMRAwDgYDVQQDEwdUZXN0IENBMCIYDzI
wMTcwMTAxMDAwMDAwWhgPMjAxODAxMDEwMDAwMDBaMBQxEjAQBgNVBAMTCVRlc3QgQ2VydDCBnz
ANBgkqhkiG9w0BAQEFAAOBjQAwgYkCgYEArbFMdhzTE6Vi48kqoBiIihBbNw8yJDML252MluVNw
tXKRx8ZpcgntEK//q2WjqBzUC7yNdfRn7pBWYuDPSyraH9z3xjx//Q7nGjZivDfwJdc6ENfFP1Z
UsKRYl7p6KgiB7lbtEZgtO5iKQ7fNUxB4FyJnpyz2PttwwJhMaTohq8CAwEAATANBgkqhkiG9w0
BAQUFAAOBgQCQ9pKLQf2eKY9UHsKYJX4Z7Y6eN5quzoNeVn5IvnXUXGHOB6cMRO3tZhAgLqw+ky
9CYnahB+sHY8PnWCYLZ3Ix0Sywtf0b7rXQEZlVBgIXjOX3RhJWJj9rRlimxgIvuLyNyr1X886Op
KatgE40Pzx2HtB1OSws5/yLg9AhHQRiUQ==
-----END CERTIFICATE-----

$ openssl asn1parse -i < [OCSP REQUEST]
    0:d=0  hl=2 l=  66 cons: SEQUENCE          
    2:d=1  hl=2 l=  64 cons:  SEQUENCE          
    4:d=2  hl=2 l=  62 cons:   SEQUENCE          
    6:d=3  hl=2 l=  60 cons:    SEQUENCE          
    8:d=4  hl=2 l=  58 cons:     SEQUENCE          
   10:d=5  hl=2 l=   9 cons:      SEQUENCE          
   12:d=6  hl=2 l=   5 prim:       OBJECT            :sha1
   19:d=6  hl=2 l=   0 prim:       NULL              
   21:d=5  hl=2 l=  20 prim:      OCTET STRING      [HEX DUMP]:02FF75DA24DE8ADD150FAB689DCCE6E6636D0901
   43:d=5  hl=2 l=  20 prim:      OCTET STRING      [HEX DUMP]:4661D5C5F8D956FD3D871758F8A42950F5BCF498
   65:d=5  hl=2 l=   1 prim:      INTEGER           :03
-----BEGIN OCSP REQUEST-----
MEIwQDA+MDwwOjAJBgUrDgMCGgUABBQC/3XaJN6K3RUPq2idzObmY20JAQQURmHVxfjZVv09hxd
Y+KQpUPW89JgCAQM=
-----END OCSP REQUEST-----
