[Created by: generate-basic-constraints-pathlen-0-self-issued.py]

Certificate chain with 2 intermediates. The first intermediate has a basic
constraints path length of 0. The second one is self-issued so does not count
against the path length.

Certificate:
    Data:
        Version: 3 (0x2)
        Serial Number: 1 (0x1)
    Signature Algorithm: sha256WithRSAEncryption
        Issuer: CN=Intermediate
        Validity
            Not Before: Jan  1 12:00:00 2015 GMT
            Not After : Jan  1 12:00:00 2016 GMT
        Subject: CN=Target
        Subject Public Key Info:
            Public Key Algorithm: rsaEncryption
                Public-Key: (2048 bit)
                Modulus:
                    00:ce:da:bc:23:ea:7f:3b:c7:c0:83:35:31:8c:8a:
                    d4:32:e0:e8:ff:6e:80:4c:38:d5:60:3c:cf:dc:bb:
                    6a:76:d6:7a:4b:03:29:21:5b:4c:51:8d:2d:82:7c:
                    65:8f:c0:ca:c4:07:57:63:29:81:19:63:06:09:4d:
                    91:c0:22:c6:29:ec:79:e7:e5:f1:aa:22:52:0b:73:
                    8d:60:ef:47:bb:f6:b7:7a:5a:87:c0:d4:2c:ac:95:
                    a2:17:6f:31:19:cc:92:ca:ca:b0:e3:74:b3:a5:26:
                    06:fd:ba:28:3d:1a:69:9d:d3:b5:da:f5:98:22:ed:
                    da:60:29:92:ec:df:76:98:7b:2b:4b:47:ca:65:32:
                    09:24:4c:27:be:3c:94:c1:45:f6:f7:67:72:62:62:
                    60:e4:82:fe:74:fe:b1:7b:bd:4c:24:36:7d:0c:4d:
                    1d:b1:91:58:6b:01:ba:89:3a:e3:60:86:e4:68:1e:
                    7a:28:7c:4c:a4:c2:50:73:fa:2e:21:62:71:36:6b:
                    82:50:c2:12:3c:f0:70:83:ed:98:7c:f0:16:08:81:
                    d8:b3:4e:85:4b:31:a5:ce:ed:89:82:01:4f:c6:ca:
                    b3:29:0d:fb:e7:54:79:84:51:d6:ef:ef:98:6c:c6:
                    66:8c:2c:d5:33:9d:37:37:8d:f2:f2:36:66:ac:1d:
                    f1:01
                Exponent: 65537 (0x10001)
        X509v3 extensions:
            X509v3 Subject Key Identifier: 
                A4:2C:1E:6A:EA:E4:DB:1A:EA:98:3A:F3:38:7B:5D:F4:8F:24:DA:3A
            X509v3 Authority Key Identifier: 
                keyid:8C:6F:A0:45:A9:77:60:30:97:AA:87:1F:96:34:1D:3B:7A:C6:40:5E

            Authority Information Access: 
                CA Issuers - URI:http://url-for-aia/Intermediate.cer

            X509v3 CRL Distribution Points: 

                Full Name:
                  URI:http://url-for-crl/Intermediate.crl

            X509v3 Key Usage: critical
                Digital Signature, Key Encipherment
            X509v3 Extended Key Usage: 
                TLS Web Server Authentication, TLS Web Client Authentication
    Signature Algorithm: sha256WithRSAEncryption
         51:ba:35:03:2c:20:55:1a:24:3e:11:c6:13:29:e3:98:58:fa:
         09:b7:3b:47:45:4a:32:c5:85:3a:64:d9:d3:ff:f8:fb:f8:eb:
         1d:88:22:29:b9:38:31:8f:de:12:da:c9:c3:93:de:5a:4e:25:
         89:11:8b:a9:0c:3a:1f:ce:0b:8a:0b:ec:e4:e6:4b:b6:c9:ae:
         63:0e:89:72:64:ee:9c:fd:1a:88:59:49:96:0c:0f:14:db:be:
         5e:37:02:2e:af:f0:da:04:c0:29:e5:3a:96:b2:a4:6b:cc:a6:
         be:63:5a:d2:61:58:23:96:fe:15:a5:2a:46:15:5d:13:76:0a:
         07:59:b9:ed:41:79:db:c7:1b:a9:6d:99:d1:3e:1c:93:97:c8:
         b7:40:6e:4b:d0:31:d6:7b:e3:9d:c8:f9:04:0d:1c:d7:f8:d4:
         a8:85:ba:be:90:95:7c:b3:d7:85:74:14:fd:50:6e:93:80:96:
         fe:09:24:83:b7:f8:f2:08:bc:c2:1a:b3:92:af:0e:a9:d6:32:
         0f:a0:86:fc:f7:95:6d:5b:07:a6:83:0d:2b:67:05:c1:2f:90:
         a0:b0:02:ba:57:64:10:97:52:d8:67:ff:39:c0:3c:d0:c7:90:
         76:2f:e0:42:37:ec:50:85:55:78:1e:34:88:63:4f:73:d0:7b:
         7d:d1:20:85
-----BEGIN CERTIFICATE-----
MIIDjTCCAnWgAwIBAgIBATANBgkqhkiG9w0BAQsFADAXMRUwEwYDVQQDDAxJbnRl
cm1lZGlhdGUwHhcNMTUwMTAxMTIwMDAwWhcNMTYwMTAxMTIwMDAwWjARMQ8wDQYD
VQQDDAZUYXJnZXQwggEiMA0GCSqGSIb3DQEBAQUAA4IBDwAwggEKAoIBAQDO2rwj
6n87x8CDNTGMitQy4Oj/boBMONVgPM/cu2p21npLAykhW0xRjS2CfGWPwMrEB1dj
KYEZYwYJTZHAIsYp7Hnn5fGqIlILc41g70e79rd6WofA1CyslaIXbzEZzJLKyrDj
dLOlJgb9uig9Gmmd07Xa9Zgi7dpgKZLs33aYeytLR8plMgkkTCe+PJTBRfb3Z3Ji
YmDkgv50/rF7vUwkNn0MTR2xkVhrAbqJOuNghuRoHnoofEykwlBz+i4hYnE2a4JQ
whI88HCD7Zh88BYIgdizToVLMaXO7YmCAU/GyrMpDfvnVHmEUdbv75hsxmaMLNUz
nTc3jfLyNmasHfEBAgMBAAGjgekwgeYwHQYDVR0OBBYEFKQsHmrq5Nsa6pg68zh7
XfSPJNo6MB8GA1UdIwQYMBaAFIxvoEWpd2Awl6qHH5Y0HTt6xkBeMD8GCCsGAQUF
BwEBBDMwMTAvBggrBgEFBQcwAoYjaHR0cDovL3VybC1mb3ItYWlhL0ludGVybWVk
aWF0ZS5jZXIwNAYDVR0fBC0wKzApoCegJYYjaHR0cDovL3VybC1mb3ItY3JsL0lu
dGVybWVkaWF0ZS5jcmwwDgYDVR0PAQH/BAQDAgWgMB0GA1UdJQQWMBQGCCsGAQUF
BwMBBggrBgEFBQcDAjANBgkqhkiG9w0BAQsFAAOCAQEAUbo1AywgVRokPhHGEynj
mFj6Cbc7R0VKMsWFOmTZ0//4+/jrHYgiKbk4MY/eEtrJw5PeWk4liRGLqQw6H84L
igvs5OZLtsmuYw6JcmTunP0aiFlJlgwPFNu+XjcCLq/w2gTAKeU6lrKka8ymvmNa
0mFYI5b+FaUqRhVdE3YKB1m57UF528cbqW2Z0T4ck5fIt0BuS9Ax1nvjncj5BA0c
1/jUqIW6vpCVfLPXhXQU/VBuk4CW/gkkg7f48gi8whqzkq8OqdYyD6CG/PeVbVsH
poMNK2cFwS+QoLACuldkEJdS2Gf/OcA80MeQdi/gQjfsUIVVeB40iGNPc9B7fdEg
hQ==
-----END CERTIFICATE-----

Certificate:
    Data:
        Version: 3 (0x2)
        Serial Number: 1 (0x1)
    Signature Algorithm: sha256WithRSAEncryption
        Issuer: CN=Intermediate
        Validity
            Not Before: Jan  1 12:00:00 2015 GMT
            Not After : Jan  1 12:00:00 2016 GMT
        Subject: CN=Intermediate
        Subject Public Key Info:
            Public Key Algorithm: rsaEncryption
                Public-Key: (2048 bit)
                Modulus:
                    00:b6:ad:89:87:ed:48:f8:65:a1:8e:48:22:2d:af:
                    1e:0c:0b:e0:4c:5c:7a:0d:25:c1:a4:91:9a:b3:cc:
                    1f:78:07:40:c7:05:97:71:d2:94:bc:ce:0c:27:b2:
                    c9:57:7a:44:49:32:26:02:72:c6:f3:f7:18:ca:35:
                    2c:25:ba:17:a4:a4:68:92:ea:68:d8:50:17:21:65:
                    2e:94:db:56:47:96:53:c8:d3:96:c0:34:55:12:8d:
                    a1:0c:2d:dd:f9:3c:34:78:5a:ee:32:63:e3:34:8c:
                    44:4c:67:c4:c4:31:42:35:ba:07:6e:70:c3:9e:73:
                    da:dc:08:1c:2f:d4:c6:32:42:62:67:55:ac:f4:4a:
                    a1:29:cf:ba:c3:2a:74:b3:e6:eb:a8:df:c8:79:0e:
                    86:55:1d:dd:c4:61:63:f1:39:ca:ae:0b:a0:d4:81:
                    69:69:6b:ca:72:9a:79:9b:eb:d0:b4:0a:63:b5:ec:
                    dc:a0:ce:5f:10:e3:e7:1c:f5:71:3e:01:8e:09:fc:
                    cc:80:92:ed:92:7e:68:ac:2d:9f:49:63:56:0e:61:
                    a6:44:75:99:14:68:97:24:42:a1:16:47:1d:c9:42:
                    1f:74:d2:f3:7e:11:4b:b0:7b:73:5f:20:5d:3a:e4:
                    74:71:34:25:d3:2d:77:9c:5f:06:4d:f7:15:fc:74:
                    24:a1
                Exponent: 65537 (0x10001)
        X509v3 extensions:
            X509v3 Subject Key Identifier: 
                8C:6F:A0:45:A9:77:60:30:97:AA:87:1F:96:34:1D:3B:7A:C6:40:5E
            X509v3 Authority Key Identifier: 
                keyid:BD:54:1F:A6:8B:24:E6:BD:59:FD:50:9F:2B:A8:54:7F:F2:7B:B1:3E

            Authority Information Access: 
                CA Issuers - URI:http://url-for-aia/Intermediate.cer

            X509v3 CRL Distribution Points: 

                Full Name:
                  URI:http://url-for-crl/Intermediate.crl

            X509v3 Key Usage: critical
                Certificate Sign, CRL Sign
            X509v3 Basic Constraints: critical
                CA:TRUE, pathlen:0
    Signature Algorithm: sha256WithRSAEncryption
         8b:7a:66:86:f1:9f:ae:f1:75:5b:70:2c:c7:d9:97:29:08:f7:
         b8:8a:6b:98:b8:81:eb:e9:99:bc:63:55:ab:b1:09:7b:06:f2:
         39:be:5c:7d:2f:ab:30:9b:11:dc:79:d3:67:e0:20:70:9f:01:
         2c:da:35:59:e1:2b:f6:1d:15:94:cd:12:db:99:05:89:69:a8:
         03:09:99:1b:e4:42:3d:55:f5:0d:92:78:1d:4b:99:0f:c4:ca:
         3a:bb:c5:33:d4:5c:bd:8e:24:81:db:51:1d:22:6f:1b:89:3d:
         ea:a0:7d:e0:b3:ee:9b:eb:c4:48:b3:ad:7d:68:4a:a6:64:ec:
         08:d4:0d:28:3a:65:9e:cc:e4:42:35:95:48:87:e4:85:01:57:
         6e:f2:60:cf:50:1e:ca:7f:d8:c4:fa:60:ee:b0:94:52:2e:b6:
         e6:e4:45:d0:b6:8c:e1:c0:34:7c:6f:ee:ad:a2:a3:e0:a1:fa:
         2e:5f:27:b5:c2:26:20:46:19:b7:a8:5a:c1:1d:8f:ab:42:1e:
         40:cf:ab:4c:ce:10:54:55:d3:10:af:32:14:80:b7:34:bb:72:
         96:97:df:40:a7:70:f2:be:47:43:be:83:2f:a9:47:e8:ce:50:
         ee:e4:8e:a1:ff:fd:28:13:7d:ba:7e:ca:35:5d:67:e3:8e:0e:
         31:0f:b4:8f
-----BEGIN CERTIFICATE-----
MIIDiDCCAnCgAwIBAgIBATANBgkqhkiG9w0BAQsFADAXMRUwEwYDVQQDDAxJbnRl
cm1lZGlhdGUwHhcNMTUwMTAxMTIwMDAwWhcNMTYwMTAxMTIwMDAwWjAXMRUwEwYD
VQQDDAxJbnRlcm1lZGlhdGUwggEiMA0GCSqGSIb3DQEBAQUAA4IBDwAwggEKAoIB
AQC2rYmH7Uj4ZaGOSCItrx4MC+BMXHoNJcGkkZqzzB94B0DHBZdx0pS8zgwnsslX
ekRJMiYCcsbz9xjKNSwluhekpGiS6mjYUBchZS6U21ZHllPI05bANFUSjaEMLd35
PDR4Wu4yY+M0jERMZ8TEMUI1ugducMOec9rcCBwv1MYyQmJnVaz0SqEpz7rDKnSz
5uuo38h5DoZVHd3EYWPxOcquC6DUgWlpa8pymnmb69C0CmO17Nygzl8Q4+cc9XE+
AY4J/MyAku2SfmisLZ9JY1YOYaZEdZkUaJckQqEWRx3JQh900vN+EUuwe3NfIF06
5HRxNCXTLXecXwZN9xX8dCShAgMBAAGjgd4wgdswHQYDVR0OBBYEFIxvoEWpd2Aw
l6qHH5Y0HTt6xkBeMB8GA1UdIwQYMBaAFL1UH6aLJOa9Wf1QnyuoVH/ye7E+MD8G
CCsGAQUFBwEBBDMwMTAvBggrBgEFBQcwAoYjaHR0cDovL3VybC1mb3ItYWlhL0lu
dGVybWVkaWF0ZS5jZXIwNAYDVR0fBC0wKzApoCegJYYjaHR0cDovL3VybC1mb3It
Y3JsL0ludGVybWVkaWF0ZS5jcmwwDgYDVR0PAQH/BAQDAgEGMBIGA1UdEwEB/wQI
MAYBAf8CAQAwDQYJKoZIhvcNAQELBQADggEBAIt6Zobxn67xdVtwLMfZlykI97iK
a5i4gevpmbxjVauxCXsG8jm+XH0vqzCbEdx502fgIHCfASzaNVnhK/YdFZTNEtuZ
BYlpqAMJmRvkQj1V9Q2SeB1LmQ/Eyjq7xTPUXL2OJIHbUR0ibxuJPeqgfeCz7pvr
xEizrX1oSqZk7AjUDSg6ZZ7M5EI1lUiH5IUBV27yYM9QHsp/2MT6YO6wlFIutubk
RdC2jOHANHxv7q2io+Ch+i5fJ7XCJiBGGbeoWsEdj6tCHkDPq0zOEFRV0xCvMhSA
tzS7cpaX30CncPK+R0O+gy+pR+jOUO7kjqH//SgTfbp+yjVdZ+OODjEPtI8=
-----END CERTIFICATE-----

Certificate:
    Data:
        Version: 3 (0x2)
        Serial Number: 2 (0x2)
    Signature Algorithm: sha256WithRSAEncryption
        Issuer: CN=Root
        Validity
            Not Before: Jan  1 12:00:00 2015 GMT
            Not After : Jan  1 12:00:00 2016 GMT
        Subject: CN=Intermediate
        Subject Public Key Info:
            Public Key Algorithm: rsaEncryption
                Public-Key: (2048 bit)
                Modulus:
                    00:9e:e2:7c:00:e0:00:2f:08:6e:14:3a:5f:e0:de:
                    0a:c0:4d:af:11:e7:87:5b:6a:b8:d9:0e:c0:86:bb:
                    f2:aa:2f:7d:c0:81:ee:58:36:2b:e7:61:57:45:4b:
                    2c:0d:12:71:f2:ce:ee:bb:28:30:40:fc:d9:f4:9b:
                    91:72:0b:99:e0:af:83:84:18:f1:17:c9:fb:ca:56:
                    67:89:08:05:39:13:a2:48:7f:95:33:3d:ae:b9:c2:
                    9d:4a:94:7c:b5:f0:b3:0c:a7:ba:ac:78:a3:06:7b:
                    2a:11:00:02:bf:b5:05:c4:82:70:c4:57:6e:4f:19:
                    51:84:0e:f5:26:04:f9:4d:64:7b:59:97:b1:97:a1:
                    28:f0:86:07:5b:53:5d:42:fb:ee:c0:a8:9b:ce:f2:
                    f4:eb:e5:9e:fa:81:a1:c0:5c:46:b5:80:a5:9a:8d:
                    31:7d:0b:c3:b9:cb:1d:92:62:66:42:fd:e9:d1:f2:
                    45:e2:a5:aa:ea:f8:01:2b:16:7f:1c:38:c2:8c:66:
                    24:0c:d3:83:c6:da:b5:17:a5:1f:bd:47:73:53:68:
                    5b:7b:d5:b4:25:b7:48:3c:c5:25:42:5f:e9:84:90:
                    64:e9:e2:cb:27:0a:43:d8:f0:36:16:39:db:46:e5:
                    fa:8f:67:db:ba:d6:2c:05:a4:43:dd:1b:d7:29:ac:
                    f1:63
                Exponent: 65537 (0x10001)
        X509v3 extensions:
            X509v3 Subject Key Identifier: 
                BD:54:1F:A6:8B:24:E6:BD:59:FD:50:9F:2B:A8:54:7F:F2:7B:B1:3E
            X509v3 Authority Key Identifier: 
                keyid:1A:ED:F5:14:E8:2E:82:B7:0E:5A:25:9D:2F:88:BE:43:75:E1:76:F9

            Authority Information Access: 
                CA Issuers - URI:http://url-for-aia/Root.cer

            X509v3 CRL Distribution Points: 

                Full Name:
                  URI:http://url-for-crl/Root.crl

            X509v3 Key Usage: critical
                Certificate Sign, CRL Sign
            X509v3 Basic Constraints: critical
                CA:TRUE, pathlen:0
    Signature Algorithm: sha256WithRSAEncryption
         cc:05:72:82:a4:23:cc:ad:29:af:c0:b7:b5:25:d8:0d:a0:7e:
         6e:38:bd:7d:5a:6e:39:a9:c0:1c:c6:21:89:74:b1:83:9e:46:
         55:5a:e7:c5:ae:d7:e0:6f:c5:f5:95:a2:17:69:02:30:8a:9b:
         46:6e:43:b4:ba:2c:34:5b:55:fc:12:90:38:2b:16:94:56:10:
         4a:09:14:e3:77:ca:12:aa:12:30:60:06:ac:7a:fa:92:ed:1f:
         d7:b3:08:83:c4:e7:a8:00:f0:fc:02:aa:9e:0d:f1:fa:0e:3a:
         17:05:9f:a0:2d:45:d3:78:2b:49:93:fa:c0:2b:e4:e2:77:07:
         e5:8c:00:a4:89:c0:25:17:6d:3a:a9:4b:db:f5:f6:d6:e3:4f:
         5f:50:1d:3c:d9:00:69:9c:b5:ee:3f:cc:8b:ae:61:8d:c4:57:
         d4:76:f0:97:2f:0c:a2:13:1a:29:1b:98:05:56:89:f8:55:b9:
         56:d2:11:d2:b7:dc:aa:24:88:a9:6c:2c:af:9e:85:8a:b1:c5:
         4d:8f:6f:36:b6:b7:60:cc:42:ee:fc:14:75:3c:25:b2:99:fb:
         36:86:54:f5:27:df:06:09:32:94:c9:84:43:83:6e:09:14:2d:
         61:2c:d5:8e:7f:ae:a0:21:ed:f4:52:ec:2c:a8:98:dc:85:1e:
         30:61:23:b5
-----BEGIN CERTIFICATE-----
MIIDcDCCAligAwIBAgIBAjANBgkqhkiG9w0BAQsFADAPMQ0wCwYDVQQDDARSb290
MB4XDTE1MDEwMTEyMDAwMFoXDTE2MDEwMTEyMDAwMFowFzEVMBMGA1UEAwwMSW50
ZXJtZWRpYXRlMIIBIjANBgkqhkiG9w0BAQEFAAOCAQ8AMIIBCgKCAQEAnuJ8AOAA
LwhuFDpf4N4KwE2vEeeHW2q42Q7Ahrvyqi99wIHuWDYr52FXRUssDRJx8s7uuygw
QPzZ9JuRcguZ4K+DhBjxF8n7ylZniQgFOROiSH+VMz2uucKdSpR8tfCzDKe6rHij
BnsqEQACv7UFxIJwxFduTxlRhA71JgT5TWR7WZexl6Eo8IYHW1NdQvvuwKibzvL0
6+We+oGhwFxGtYClmo0xfQvDucsdkmJmQv3p0fJF4qWq6vgBKxZ/HDjCjGYkDNOD
xtq1F6UfvUdzU2hbe9W0JbdIPMUlQl/phJBk6eLLJwpD2PA2FjnbRuX6j2fbutYs
BaRD3RvXKazxYwIDAQABo4HOMIHLMB0GA1UdDgQWBBS9VB+miyTmvVn9UJ8rqFR/
8nuxPjAfBgNVHSMEGDAWgBQa7fUU6C6Ctw5aJZ0viL5DdeF2+TA3BggrBgEFBQcB
AQQrMCkwJwYIKwYBBQUHMAKGG2h0dHA6Ly91cmwtZm9yLWFpYS9Sb290LmNlcjAs
BgNVHR8EJTAjMCGgH6AdhhtodHRwOi8vdXJsLWZvci1jcmwvUm9vdC5jcmwwDgYD
VR0PAQH/BAQDAgEGMBIGA1UdEwEB/wQIMAYBAf8CAQAwDQYJKoZIhvcNAQELBQAD
ggEBAMwFcoKkI8ytKa/At7Ul2A2gfm44vX1abjmpwBzGIYl0sYOeRlVa58Wu1+Bv
xfWVohdpAjCKm0ZuQ7S6LDRbVfwSkDgrFpRWEEoJFON3yhKqEjBgBqx6+pLtH9ez
CIPE56gA8PwCqp4N8foOOhcFn6AtRdN4K0mT+sAr5OJ3B+WMAKSJwCUXbTqpS9v1
9tbjT19QHTzZAGmcte4/zIuuYY3EV9R28JcvDKITGikbmAVWifhVuVbSEdK33Kok
iKlsLK+ehYqxxU2Pbza2t2DMQu78FHU8JbKZ+zaGVPUn3wYJMpTJhEODbgkULWEs
1Y5/rqAh7fRS7CyomNyFHjBhI7U=
-----END CERTIFICATE-----

Certificate:
    Data:
        Version: 3 (0x2)
        Serial Number: 1 (0x1)
    Signature Algorithm: sha256WithRSAEncryption
        Issuer: CN=Root
        Validity
            Not Before: Jan  1 12:00:00 2015 GMT
            Not After : Jan  1 12:00:00 2016 GMT
        Subject: CN=Root
        Subject Public Key Info:
            Public Key Algorithm: rsaEncryption
                Public-Key: (2048 bit)
                Modulus:
                    00:e3:4b:ce:a5:cb:b1:d2:1e:51:45:de:74:b2:98:
                    c6:35:8a:93:f3:07:cf:90:e9:e2:13:d4:2d:da:6d:
                    1f:17:ba:d4:24:8f:f1:ba:3e:62:75:1f:6f:23:69:
                    e3:eb:c6:b3:37:e2:fa:7a:70:a9:f2:c1:ae:b5:bf:
                    3d:12:b5:66:05:24:8e:0f:85:a4:4f:b9:bb:d0:d4:
                    7a:86:fd:57:be:fa:c3:dc:bc:db:ba:04:19:b4:4d:
                    3e:30:a0:cd:6e:07:a6:31:d5:e0:47:c4:c9:d3:2e:
                    91:78:3a:22:3a:4e:7d:8a:d3:94:90:1f:57:b8:c3:
                    f3:6d:44:06:28:99:d4:eb:7e:98:3a:2d:3b:49:04:
                    54:41:0c:50:ff:8b:ea:5e:31:a7:b1:c0:76:cd:22:
                    09:e6:6c:d8:19:fb:34:eb:50:c5:f5:0f:76:86:6a:
                    d5:ce:75:bd:5f:fc:8f:e3:97:6d:20:fb:d5:c0:0e:
                    cd:18:fd:7c:f9:43:c8:74:24:2f:dc:82:57:b6:4e:
                    6b:a3:d2:77:17:28:27:42:9e:b1:94:49:24:a5:84:
                    34:fc:4b:9a:0b:84:cc:08:52:08:18:23:ee:72:02:
                    95:64:e9:4f:f6:f0:09:c5:8d:a4:84:21:99:e8:9a:
                    d3:df:d5:c3:2d:3c:ee:0c:11:22:eb:a7:7d:6c:32:
                    05:31
                Exponent: 65537 (0x10001)
        X509v3 extensions:
            X509v3 Subject Key Identifier: 
                1A:ED:F5:14:E8:2E:82:B7:0E:5A:25:9D:2F:88:BE:43:75:E1:76:F9
            X509v3 Authority Key Identifier: 
                keyid:1A:ED:F5:14:E8:2E:82:B7:0E:5A:25:9D:2F:88:BE:43:75:E1:76:F9

            Authority Information Access: 
                CA Issuers - URI:http://url-for-aia/Root.cer

            X509v3 CRL Distribution Points: 

                Full Name:
                  URI:http://url-for-crl/Root.crl

            X509v3 Key Usage: critical
                Certificate Sign, CRL Sign
            X509v3 Basic Constraints: critical
                CA:TRUE
    Signature Algorithm: sha256WithRSAEncryption
         02:89:3f:e5:42:09:a5:9a:63:2f:54:2d:67:51:ab:bf:e0:9e:
         5c:76:a0:fb:19:f2:49:74:c6:65:ac:46:48:de:b8:52:58:60:
         ee:6f:0b:04:dd:b8:b1:89:a1:cb:db:1e:28:5f:20:fb:d3:ef:
         8f:5c:28:a5:02:f6:13:7e:20:9a:e9:cd:9a:91:b0:00:2f:3c:
         6c:3e:84:3b:b2:33:4f:8b:b3:3f:62:6d:d5:f9:89:f5:c3:63:
         37:52:7b:4f:a3:20:e4:eb:25:bb:c0:a0:f9:d1:e8:d0:fa:53:
         55:d4:1f:2c:d5:e2:2e:b0:fe:4c:95:c9:9c:0d:99:24:af:b5:
         f7:c8:ff:dc:f4:63:bd:bd:65:97:a1:b9:26:d8:51:d6:96:65:
         f7:c7:6a:32:ec:23:59:37:8c:53:30:d6:f6:93:70:76:c3:8a:
         3d:5e:74:13:59:36:d7:0d:18:75:06:e5:1f:fc:c0:aa:b4:c8:
         93:0a:4c:f0:fc:d0:e9:1e:23:7e:6e:17:86:c7:1f:8e:a3:5a:
         12:82:8f:35:a3:d2:69:b2:f8:9d:7a:88:75:e6:84:05:ea:34:
         1e:e0:0c:bc:e9:6e:f3:37:eb:5d:08:a2:fb:d8:d2:69:5d:f8:
         ab:8a:4b:23:0c:9e:6a:44:83:16:7a:94:65:b3:dd:61:1c:28:
         31:1f:75:f1
-----BEGIN TRUSTED_CERTIFICATE-----
MIIDZTCCAk2gAwIBAgIBATANBgkqhkiG9w0BAQsFADAPMQ0wCwYDVQQDDARSb290
MB4XDTE1MDEwMTEyMDAwMFoXDTE2MDEwMTEyMDAwMFowDzENMAsGA1UEAwwEUm9v
dDCCASIwDQYJKoZIhvcNAQEBBQADggEPADCCAQoCggEBAONLzqXLsdIeUUXedLKY
xjWKk/MHz5Dp4hPULdptHxe61CSP8bo+YnUfbyNp4+vGszfi+npwqfLBrrW/PRK1
ZgUkjg+FpE+5u9DUeob9V776w9y827oEGbRNPjCgzW4HpjHV4EfEydMukXg6IjpO
fYrTlJAfV7jD821EBiiZ1Ot+mDotO0kEVEEMUP+L6l4xp7HAds0iCeZs2Bn7NOtQ
xfUPdoZq1c51vV/8j+OXbSD71cAOzRj9fPlDyHQkL9yCV7ZOa6PSdxcoJ0KesZRJ
JKWENPxLmguEzAhSCBgj7nIClWTpT/bwCcWNpIQhmeia09/Vwy087gwRIuunfWwy
BTECAwEAAaOByzCByDAdBgNVHQ4EFgQUGu31FOgugrcOWiWdL4i+Q3XhdvkwHwYD
VR0jBBgwFoAUGu31FOgugrcOWiWdL4i+Q3XhdvkwNwYIKwYBBQUHAQEEKzApMCcG
CCsGAQUFBzAChhtodHRwOi8vdXJsLWZvci1haWEvUm9vdC5jZXIwLAYDVR0fBCUw
IzAhoB+gHYYbaHR0cDovL3VybC1mb3ItY3JsL1Jvb3QuY3JsMA4GA1UdDwEB/wQE
AwIBBjAPBgNVHRMBAf8EBTADAQH/MA0GCSqGSIb3DQEBCwUAA4IBAQACiT/lQgml
mmMvVC1nUau/4J5cdqD7GfJJdMZlrEZI3rhSWGDubwsE3bixiaHL2x4oXyD70++P
XCilAvYTfiCa6c2akbAALzxsPoQ7sjNPi7M/Ym3V+Yn1w2M3UntPoyDk6yW7wKD5
0ejQ+lNV1B8s1eIusP5MlcmcDZkkr7X3yP/c9GO9vWWXobkm2FHWlmX3x2oy7CNZ
N4xTMNb2k3B2w4o9XnQTWTbXDRh1BuUf/MCqtMiTCkzw/NDpHiN+bheGxx+Oo1oS
go81o9Jpsvideoh15oQF6jQe4Ay86W7zN+tdCKL72NJpXfiriksjDJ5qRIMWepRl
s91hHCgxH3Xx
-----END TRUSTED_CERTIFICATE-----

-----BEGIN TIME-----
MTUwMzAyMTIwMDAwWg==
-----END TIME-----

-----BEGIN VERIFY_RESULT-----
U1VDQ0VTUw==
-----END VERIFY_RESULT-----
