[Created by: ./generate-key-rollover.py]

A certificate tree with two self-signed root certificates(oldroot, newroot),
and a third root certificate (newrootrollover) which has the same key as newroot
but is signed by oldroot, all with the same subject and issuer.
There are two intermediates with the same key, subject and issuer
(oldintermediate signed by oldroot, and newintermediate signed by newroot).
The target certificate is signed by the intermediate key.


In graphical form:

   oldroot-------->newrootrollover  newroot
      |                      |        |
      v                      v        v
oldintermediate           newintermediate
      |                          |
      +------------+-------------+
                   |
                   v
                 target


Several chains are output:
  key-rollover-oldchain.pem:
    target<-oldintermediate<-oldroot
  key-rollover-rolloverchain.pem:
    target<-newintermediate<-newrootrollover<-oldroot
  key-rollover-longrolloverchain.pem:
    target<-newintermediate<-newroot<-newrootrollover<-oldroot
  key-rollover-newchain.pem:
    target<-newintermediate<-newroot

All of these chains should verify successfully.


Certificate:
    Data:
        Version: 3 (0x2)
        Serial Number: 1 (0x1)
    Signature Algorithm: sha256WithRSAEncryption
        Issuer: CN=Intermediate
        Validity
            Not Before: Jan  1 12:00:00 2015 GMT
            Not After : Jan  1 12:00:00 2016 GMT
        Subject: CN=Target
        Subject Public Key Info:
            Public Key Algorithm: rsaEncryption
                Public-Key: (2048 bit)
                Modulus:
                    00:be:12:1c:48:e4:73:1f:5c:d2:54:a9:7b:58:1c:
                    37:73:c2:49:26:3e:ed:b5:6b:55:17:c9:4c:52:34:
                    ce:d9:76:86:32:74:74:ae:11:b2:99:1b:51:a0:33:
                    48:34:2f:b9:d3:2b:06:c2:5c:29:53:35:ce:7c:a6:
                    67:b2:6a:d4:33:c3:13:62:30:a1:53:5f:45:78:5b:
                    bb:47:ad:07:a4:98:9a:e9:e3:b1:3b:e6:33:c2:c1:
                    5c:95:d7:c8:b9:a6:72:27:7a:79:da:c4:c8:5a:1a:
                    3e:5e:5e:a6:62:64:c6:72:86:b1:78:98:5b:63:27:
                    70:15:04:6b:b1:0f:11:9c:4d:3b:5c:e7:8d:c0:be:
                    d5:84:46:6c:bd:11:1e:21:c1:82:9c:d0:aa:2d:2f:
                    f8:2a:e9:3b:e4:35:15:6d:c7:4a:dd:a8:65:69:b8:
                    16:a1:8a:04:a2:44:68:40:b6:99:ae:61:df:9f:6c:
                    40:ef:79:c9:a3:6d:e4:2d:07:01:68:f1:21:4e:0e:
                    28:a7:fd:2f:ad:ee:7d:65:cf:36:fd:4f:1b:ba:10:
                    8e:86:fd:ec:37:67:0c:20:71:66:48:64:f3:82:af:
                    f5:e1:73:c9:09:36:03:3f:c2:47:7a:f2:33:b9:f9:
                    9f:53:9b:24:5e:c3:cc:05:d9:a9:ed:d7:b2:2a:c5:
                    b7:39
                Exponent: 65537 (0x10001)
        X509v3 extensions:
            X509v3 Subject Key Identifier: 
                C9:45:0B:2A:F2:D8:8D:2A:D7:CE:AF:56:BF:82:B0:84:0C:C8:2E:F4
            X509v3 Authority Key Identifier: 
                keyid:B1:39:79:13:35:D0:03:6B:E9:C4:63:2B:CC:D6:61:C3:82:EC:14:C1

            Authority Information Access: 
                CA Issuers - URI:http://url-for-aia/Intermediate.cer

            X509v3 CRL Distribution Points: 

                Full Name:
                  URI:http://url-for-crl/Intermediate.crl

            X509v3 Key Usage: critical
                Digital Signature, Key Encipherment
            X509v3 Extended Key Usage: 
                TLS Web Server Authentication, TLS Web Client Authentication
    Signature Algorithm: sha256WithRSAEncryption
         63:66:9e:6c:34:8c:5d:74:ae:90:25:55:ae:86:49:b9:3d:fd:
         27:bc:4f:69:7b:70:cb:25:0e:a3:8c:7a:7d:9c:4f:0b:7c:f2:
         85:a5:ea:82:d2:37:c2:74:a2:ae:a8:bf:62:f4:5f:d4:c6:41:
         45:0c:cc:27:53:aa:8f:66:58:e9:b0:de:ae:98:14:bd:92:df:
         9b:0f:f2:c5:3b:d2:bc:1c:3e:80:b4:09:0f:c1:9f:d6:3a:29:
         52:71:b6:1a:92:95:5a:18:dc:b4:30:dc:61:61:93:54:d1:55:
         83:92:5d:c0:c7:dc:ab:d7:08:dd:8a:44:cf:92:f9:4d:86:25:
         aa:ac:52:f6:0e:17:99:0b:31:d2:75:5e:33:f9:f5:b6:77:42:
         07:62:a9:53:cc:f3:79:84:57:d9:14:3f:ab:4c:8b:ae:c7:9f:
         cf:7a:1f:bf:7e:1d:44:bd:76:b4:cd:8d:c8:1d:75:f7:3b:b5:
         bc:35:8b:3f:29:b1:cb:67:a4:17:af:a4:ca:9f:2b:e7:15:66:
         e4:c8:c1:7c:08:78:9e:5d:4b:c3:c6:58:66:96:42:e8:e6:40:
         fd:dc:24:ce:3b:58:11:38:40:0e:fc:a9:c0:2c:0f:e5:cc:bb:
         02:32:31:b9:bc:6f:2d:1d:f6:2b:7c:d3:f8:24:f6:60:38:8a:
         1f:dd:e1:50
-----BEGIN CERTIFICATE-----
MIIDjTCCAnWgAwIBAgIBATANBgkqhkiG9w0BAQsFADAXMRUwEwYDVQQDDAxJbnRl
cm1lZGlhdGUwHhcNMTUwMTAxMTIwMDAwWhcNMTYwMTAxMTIwMDAwWjARMQ8wDQYD
VQQDDAZUYXJnZXQwggEiMA0GCSqGSIb3DQEBAQUAA4IBDwAwggEKAoIBAQC+EhxI
5HMfXNJUqXtYHDdzwkkmPu21a1UXyUxSNM7ZdoYydHSuEbKZG1GgM0g0L7nTKwbC
XClTNc58pmeyatQzwxNiMKFTX0V4W7tHrQekmJrp47E75jPCwVyV18i5pnInenna
xMhaGj5eXqZiZMZyhrF4mFtjJ3AVBGuxDxGcTTtc543AvtWERmy9ER4hwYKc0Kot
L/gq6TvkNRVtx0rdqGVpuBahigSiRGhAtpmuYd+fbEDvecmjbeQtBwFo8SFODiin
/S+t7n1lzzb9Txu6EI6G/ew3ZwwgcWZIZPOCr/Xhc8kJNgM/wkd68jO5+Z9TmyRe
w8wF2ant17Iqxbc5AgMBAAGjgekwgeYwHQYDVR0OBBYEFMlFCyry2I0q186vVr+C
sIQMyC70MB8GA1UdIwQYMBaAFLE5eRM10ANr6cRjK8zWYcOC7BTBMD8GCCsGAQUF
BwEBBDMwMTAvBggrBgEFBQcwAoYjaHR0cDovL3VybC1mb3ItYWlhL0ludGVybWVk
aWF0ZS5jZXIwNAYDVR0fBC0wKzApoCegJYYjaHR0cDovL3VybC1mb3ItY3JsL0lu
dGVybWVkaWF0ZS5jcmwwDgYDVR0PAQH/BAQDAgWgMB0GA1UdJQQWMBQGCCsGAQUF
BwMBBggrBgEFBQcDAjANBgkqhkiG9w0BAQsFAAOCAQEAY2aebDSMXXSukCVVroZJ
uT39J7xPaXtwyyUOo4x6fZxPC3zyhaXqgtI3wnSirqi/YvRf1MZBRQzMJ1Oqj2ZY
6bDerpgUvZLfmw/yxTvSvBw+gLQJD8Gf1jopUnG2GpKVWhjctDDcYWGTVNFVg5Jd
wMfcq9cI3YpEz5L5TYYlqqxS9g4XmQsx0nVeM/n1tndCB2KpU8zzeYRX2RQ/q0yL
rsefz3ofv34dRL12tM2NyB119zu1vDWLPymxy2ekF6+kyp8r5xVm5MjBfAh4nl1L
w8ZYZpZC6OZA/dwkzjtYEThADvypwCwP5cy7AjIxubxvLR32K3zT+CT2YDiKH93h
UA==
-----END CERTIFICATE-----

Certificate:
    Data:
        Version: 3 (0x2)
        Serial Number: 2 (0x2)
    Signature Algorithm: sha256WithRSAEncryption
        Issuer: CN=Root
        Validity
            Not Before: Jan  1 12:00:00 2015 GMT
            Not After : Jan  1 12:00:00 2016 GMT
        Subject: CN=Intermediate
        Subject Public Key Info:
            Public Key Algorithm: rsaEncryption
                Public-Key: (2048 bit)
                Modulus:
                    00:9c:d0:2e:3b:06:d6:ea:65:bd:dd:b2:d3:e8:88:
                    ea:08:73:01:42:ac:ca:38:28:17:32:93:5e:16:a8:
                    c1:79:44:9a:db:24:08:ba:81:52:63:9c:b4:ed:57:
                    d4:b2:ac:54:64:3b:70:39:7e:37:da:11:e1:8c:ba:
                    09:bc:1a:9b:e7:fe:6d:75:f8:71:31:f0:ca:52:89:
                    2a:9e:d5:53:db:b8:c0:76:cf:bf:58:58:e1:bb:81:
                    de:62:bb:06:58:1f:9b:64:03:75:7d:ee:76:6f:39:
                    47:cb:8e:34:32:07:83:89:b0:83:2a:78:d0:ac:e2:
                    86:0a:a8:ab:3b:97:81:de:9d:36:b4:03:b7:d5:06:
                    05:53:d7:80:03:44:86:53:72:db:7a:5f:c5:20:dd:
                    c7:44:58:3b:40:7f:0e:39:bc:be:0d:ca:6a:f6:82:
                    a2:97:a2:17:79:51:6f:42:5d:0d:6a:b7:a0:de:5f:
                    6a:00:be:e7:5a:b7:91:e9:fc:77:fd:75:88:8d:52:
                    76:3d:0e:91:4b:c7:db:96:a4:5f:39:59:55:62:65:
                    3b:15:7a:bc:7b:09:9f:3e:75:d9:9e:c5:00:b3:19:
                    d4:26:7e:eb:db:62:07:c2:f5:b6:4e:87:2d:eb:56:
                    8b:5a:68:6c:85:2f:b4:3e:1d:dd:5d:31:49:98:8b:
                    06:55
                Exponent: 65537 (0x10001)
        X509v3 extensions:
            X509v3 Subject Key Identifier: 
                B1:39:79:13:35:D0:03:6B:E9:C4:63:2B:CC:D6:61:C3:82:EC:14:C1
            X509v3 Authority Key Identifier: 
                keyid:02:CE:F6:AC:1A:39:1E:85:E8:72:D1:8A:C6:1D:E8:7A:8F:9D:15:6B

            Authority Information Access: 
                CA Issuers - URI:http://url-for-aia/Root.cer

            X509v3 CRL Distribution Points: 

                Full Name:
                  URI:http://url-for-crl/Root.crl

            X509v3 Key Usage: critical
                Certificate Sign, CRL Sign
            X509v3 Basic Constraints: critical
                CA:TRUE
    Signature Algorithm: sha256WithRSAEncryption
         56:90:dd:ae:50:4b:18:56:7f:e9:1c:e4:29:7c:60:7e:87:27:
         b5:cd:2b:00:67:2b:f7:a2:32:db:38:92:18:46:00:22:c4:2d:
         1f:ff:32:5f:62:69:30:db:c8:aa:63:68:6a:0f:db:2d:13:15:
         8f:74:22:54:67:fb:95:19:35:49:66:1e:a1:65:67:3c:71:02:
         85:34:f7:3b:20:51:03:e9:a1:b9:7d:9b:3b:21:d4:7a:28:6e:
         bd:01:50:a6:7e:2b:a0:bc:ad:d5:55:63:3d:04:f3:f0:aa:c3:
         4e:b3:aa:b8:68:89:a0:8c:b7:9e:38:37:81:2c:01:57:93:7c:
         3f:aa:54:2e:35:66:a4:c0:81:ca:06:5c:c6:ab:72:f4:38:08:
         cd:60:40:53:42:48:71:0a:e7:f5:82:3c:bb:51:89:a4:8b:1e:
         c9:44:4c:7f:10:7d:d3:f4:60:04:07:36:b2:44:82:b2:0a:3c:
         e9:82:55:4a:37:cf:47:b6:d3:ea:e5:fc:b8:49:4c:6b:77:a6:
         42:29:1c:1f:97:78:18:f7:88:da:52:42:87:19:e4:13:0d:91:
         73:cc:98:6a:22:70:e2:5c:54:d0:96:b7:94:37:3c:0f:f6:9a:
         e3:02:fb:95:63:5a:87:d4:0d:16:16:bd:95:fa:88:c3:a8:e4:
         d0:91:dd:be
-----BEGIN CERTIFICATE-----
MIIDbTCCAlWgAwIBAgIBAjANBgkqhkiG9w0BAQsFADAPMQ0wCwYDVQQDDARSb290
MB4XDTE1MDEwMTEyMDAwMFoXDTE2MDEwMTEyMDAwMFowFzEVMBMGA1UEAwwMSW50
ZXJtZWRpYXRlMIIBIjANBgkqhkiG9w0BAQEFAAOCAQ8AMIIBCgKCAQEAnNAuOwbW
6mW93bLT6IjqCHMBQqzKOCgXMpNeFqjBeUSa2yQIuoFSY5y07VfUsqxUZDtwOX43
2hHhjLoJvBqb5/5tdfhxMfDKUokqntVT27jAds+/WFjhu4HeYrsGWB+bZAN1fe52
bzlHy440MgeDibCDKnjQrOKGCqirO5eB3p02tAO31QYFU9eAA0SGU3Lbel/FIN3H
RFg7QH8OOby+Dcpq9oKil6IXeVFvQl0Nareg3l9qAL7nWreR6fx3/XWIjVJ2PQ6R
S8fblqRfOVlVYmU7FXq8ewmfPnXZnsUAsxnUJn7r22IHwvW2Toct61aLWmhshS+0
Ph3dXTFJmIsGVQIDAQABo4HLMIHIMB0GA1UdDgQWBBSxOXkTNdADa+nEYyvM1mHD
guwUwTAfBgNVHSMEGDAWgBQCzvasGjkehehy0YrGHeh6j50VazA3BggrBgEFBQcB
AQQrMCkwJwYIKwYBBQUHMAKGG2h0dHA6Ly91cmwtZm9yLWFpYS9Sb290LmNlcjAs
BgNVHR8EJTAjMCGgH6AdhhtodHRwOi8vdXJsLWZvci1jcmwvUm9vdC5jcmwwDgYD
VR0PAQH/BAQDAgEGMA8GA1UdEwEB/wQFMAMBAf8wDQYJKoZIhvcNAQELBQADggEB
AFaQ3a5QSxhWf+kc5Cl8YH6HJ7XNKwBnK/eiMts4khhGACLELR//Ml9iaTDbyKpj
aGoP2y0TFY90IlRn+5UZNUlmHqFlZzxxAoU09zsgUQPpobl9mzsh1Hoobr0BUKZ+
K6C8rdVVYz0E8/Cqw06zqrhoiaCMt544N4EsAVeTfD+qVC41ZqTAgcoGXMarcvQ4
CM1gQFNCSHEK5/WCPLtRiaSLHslETH8QfdP0YAQHNrJEgrIKPOmCVUo3z0e20+rl
/LhJTGt3pkIpHB+XeBj3iNpSQocZ5BMNkXPMmGoicOJcVNCWt5Q3PA/2muMC+5Vj
WofUDRYWvZX6iMOo5NCR3b4=
-----END CERTIFICATE-----

Certificate:
    Data:
        Version: 3 (0x2)
        Serial Number: 1 (0x1)
    Signature Algorithm: sha256WithRSAEncryption
        Issuer: CN=Root
        Validity
            Not Before: Jan  1 12:00:00 2015 GMT
            Not After : Jan  1 12:00:00 2016 GMT
        Subject: CN=Root
        Subject Public Key Info:
            Public Key Algorithm: rsaEncryption
                Public-Key: (2048 bit)
                Modulus:
                    00:a6:44:ec:a7:15:00:1f:89:ac:91:f8:ec:7b:03:
                    46:0b:53:15:ed:23:40:35:94:f3:96:80:27:d3:4a:
                    84:92:68:c9:0c:e0:14:32:c7:31:67:49:29:58:77:
                    ea:ce:8a:72:5b:93:b1:a0:a8:e5:84:c6:52:9d:5a:
                    c0:41:bf:98:5f:18:5d:aa:d1:65:79:fb:e9:b0:84:
                    92:9d:2c:58:bc:f1:c4:29:59:ed:bc:ac:85:ce:d7:
                    0e:aa:08:e8:2d:90:25:cb:91:9d:7d:91:74:42:a0:
                    ae:77:d2:11:7b:57:49:04:24:c0:94:f4:20:54:60:
                    d9:1b:76:76:0b:2c:23:3c:67:90:8c:06:ed:4e:df:
                    ac:24:22:26:f7:26:8f:5a:d2:5b:79:8a:6f:6e:53:
                    27:60:10:cb:c7:b4:9f:60:2d:8f:32:69:4b:01:d1:
                    f0:6d:69:1a:22:14:06:66:63:97:e8:fc:79:41:8d:
                    15:44:44:d1:43:2a:37:5e:77:e4:06:e6:a9:85:13:
                    e9:24:63:9d:09:d0:f5:13:d5:ba:59:2e:1c:d2:70:
                    06:b1:80:f7:57:d7:30:f7:14:f3:18:06:7f:84:38:
                    b6:81:46:9f:a2:36:87:0e:5f:1a:45:38:b7:20:16:
                    b7:c6:e1:91:3b:0e:0c:ab:b7:4e:3d:a4:6d:66:d8:
                    85:fb
                Exponent: 65537 (0x10001)
        X509v3 extensions:
            X509v3 Subject Key Identifier: 
                02:CE:F6:AC:1A:39:1E:85:E8:72:D1:8A:C6:1D:E8:7A:8F:9D:15:6B
            X509v3 Authority Key Identifier: 
                keyid:02:CE:F6:AC:1A:39:1E:85:E8:72:D1:8A:C6:1D:E8:7A:8F:9D:15:6B

            Authority Information Access: 
                CA Issuers - URI:http://url-for-aia/Root.cer

            X509v3 CRL Distribution Points: 

                Full Name:
                  URI:http://url-for-crl/Root.crl

            X509v3 Key Usage: critical
                Certificate Sign, CRL Sign
            X509v3 Basic Constraints: critical
                CA:TRUE
    Signature Algorithm: sha256WithRSAEncryption
         0e:00:56:5c:72:31:88:bd:95:13:f7:64:96:1c:63:c2:1c:11:
         60:04:d2:c3:5f:7c:a2:d7:d1:33:6d:51:6b:77:61:78:a8:70:
         2e:50:97:5d:c1:e8:9b:dd:c6:61:a7:d3:e1:2c:83:07:85:5c:
         c9:d7:1e:22:c2:5f:76:83:19:d7:de:4a:5e:82:0f:43:80:45:
         02:d7:d0:3d:ca:c3:c0:fc:04:c8:f6:89:32:d7:47:c6:bf:1f:
         c6:bd:71:e1:07:00:90:12:ec:61:63:1b:6c:e9:58:2c:fc:4c:
         a9:8f:58:e1:b1:6e:a5:ca:4d:be:7e:32:16:74:5f:fd:35:e4:
         37:aa:1a:c5:33:21:20:8a:3e:1c:af:da:f3:c7:a2:22:d3:93:
         6c:5e:ac:0a:65:d5:db:e4:8b:11:5e:ca:eb:8f:da:c4:5d:2f:
         7a:98:e8:3c:d1:89:15:05:02:86:ef:eb:17:18:81:28:ca:d6:
         58:87:bd:d4:e2:50:41:92:d9:7f:b1:f7:53:8f:f3:cc:f3:1e:
         1d:e4:5a:c2:60:1b:17:42:78:53:e9:2d:5d:bb:f9:21:50:ff:
         87:53:be:5f:e6:d4:8f:25:7f:d7:83:d7:f8:4d:c1:7c:7a:40:
         0b:11:f1:d9:c6:eb:97:45:00:d6:6b:84:1c:4f:fc:8e:1f:5b:
         b5:3d:60:0c
-----BEGIN TRUSTED_CERTIFICATE-----
MIIDZTCCAk2gAwIBAgIBATANBgkqhkiG9w0BAQsFADAPMQ0wCwYDVQQDDARSb290
MB4XDTE1MDEwMTEyMDAwMFoXDTE2MDEwMTEyMDAwMFowDzENMAsGA1UEAwwEUm9v
dDCCASIwDQYJKoZIhvcNAQEBBQADggEPADCCAQoCggEBAKZE7KcVAB+JrJH47HsD
RgtTFe0jQDWU85aAJ9NKhJJoyQzgFDLHMWdJKVh36s6KcluTsaCo5YTGUp1awEG/
mF8YXarRZXn76bCEkp0sWLzxxClZ7byshc7XDqoI6C2QJcuRnX2RdEKgrnfSEXtX
SQQkwJT0IFRg2Rt2dgssIzxnkIwG7U7frCQiJvcmj1rSW3mKb25TJ2AQy8e0n2At
jzJpSwHR8G1pGiIUBmZjl+j8eUGNFURE0UMqN1535AbmqYUT6SRjnQnQ9RPVulku
HNJwBrGA91fXMPcU8xgGf4Q4toFGn6I2hw5fGkU4tyAWt8bhkTsODKu3Tj2kbWbY
hfsCAwEAAaOByzCByDAdBgNVHQ4EFgQUAs72rBo5HoXoctGKxh3oeo+dFWswHwYD
VR0jBBgwFoAUAs72rBo5HoXoctGKxh3oeo+dFWswNwYIKwYBBQUHAQEEKzApMCcG
CCsGAQUFBzAChhtodHRwOi8vdXJsLWZvci1haWEvUm9vdC5jZXIwLAYDVR0fBCUw
IzAhoB+gHYYbaHR0cDovL3VybC1mb3ItY3JsL1Jvb3QuY3JsMA4GA1UdDwEB/wQE
AwIBBjAPBgNVHRMBAf8EBTADAQH/MA0GCSqGSIb3DQEBCwUAA4IBAQAOAFZccjGI
vZUT92SWHGPCHBFgBNLDX3yi19EzbVFrd2F4qHAuUJddweib3cZhp9PhLIMHhVzJ
1x4iwl92gxnX3kpegg9DgEUC19A9ysPA/ATI9oky10fGvx/GvXHhBwCQEuxhYxts
6Vgs/Eypj1jhsW6lyk2+fjIWdF/9NeQ3qhrFMyEgij4cr9rzx6Ii05NsXqwKZdXb
5IsRXsrrj9rEXS96mOg80YkVBQKG7+sXGIEoytZYh73U4lBBktl/sfdTj/PM8x4d
5FrCYBsXQnhT6S1du/khUP+HU75f5tSPJX/Xg9f4TcF8ekALEfHZxuuXRQDWa4Qc
T/yOH1u1PWAM
-----END TRUSTED_CERTIFICATE-----

-----BEGIN TIME-----
MTUwMzAyMTIwMDAwWg==
-----END TIME-----

-----BEGIN VERIFY_RESULT-----
U1VDQ0VTUw==
-----END VERIFY_RESULT-----
