[Created by: generate-key-rollover.py]

A certificate tree with two self-signed root certificates(oldroot, newroot),
and a third root certificate (newrootrollover) which has the same key as newroot
but is signed by oldroot, all with the same subject and issuer.
There are two intermediates with the same key, subject and issuer
(oldintermediate signed by oldroot, and newintermediate signed by newroot).
The target certificate is signed by the intermediate key.


In graphical form:

   oldroot-------->newrootrollover  newroot
      |                      |        |
      v                      v        v
oldintermediate           newintermediate
      |                          |
      +------------+-------------+
                   |
                   v
                 target


Several chains are output:
  key-rollover-oldchain.pem:
    target<-oldintermediate<-oldroot
  key-rollover-rolloverchain.pem:
    target<-newintermediate<-newrootrollover<-oldroot
  key-rollover-longrolloverchain.pem:
    target<-newintermediate<-newroot<-newrootrollover<-oldroot
  key-rollover-newchain.pem:
    target<-newintermediate<-newroot

All of these chains should verify successfully.


Certificate:
    Data:
        Version: 3 (0x2)
        Serial Number: 1 (0x1)
    Signature Algorithm: sha256WithRSAEncryption
        Issuer: CN=Intermediate
        Validity
            Not Before: Jan  1 12:00:00 2015 GMT
            Not After : Jan  1 12:00:00 2016 GMT
        Subject: CN=Target
        Subject Public Key Info:
            Public Key Algorithm: rsaEncryption
                Public-Key: (2048 bit)
                Modulus:
                    00:ab:ca:16:55:35:25:9b:de:8e:fc:e9:5a:f9:04:
                    3e:0e:6c:06:1e:1c:86:20:18:4f:41:da:3a:6d:16:
                    9e:4e:3c:9b:11:67:bc:5a:3d:84:b2:79:05:d2:25:
                    9a:6a:a8:80:6c:55:28:f2:5a:43:5f:c5:ef:e9:e3:
                    1a:64:24:7e:57:4d:11:60:d7:e6:a9:2b:73:c7:93:
                    bb:67:b1:41:d5:df:21:5c:bd:98:93:a3:7d:0d:b0:
                    86:5f:87:a9:d9:ab:ad:97:89:c5:12:c4:0f:71:d3:
                    5b:79:18:53:64:7f:0a:a1:36:5e:00:5c:b9:ee:5e:
                    14:10:17:f2:2a:60:0f:f7:ec:aa:d7:ad:d3:dc:8a:
                    44:59:cf:c8:11:e7:42:1c:88:30:d7:1e:37:86:91:
                    6b:ce:2a:bc:bb:f5:4a:cc:72:1a:9d:4f:5f:0e:c4:
                    c5:f7:b6:24:09:1c:22:f8:f7:a2:3d:45:c2:29:4d:
                    a3:f3:db:7a:a4:93:a2:48:d6:2b:90:da:0c:2b:d9:
                    96:f0:d6:c7:eb:d0:eb:a8:08:72:55:a8:10:65:8f:
                    38:6a:22:0c:9c:3d:68:1a:cd:16:da:73:24:2e:14:
                    5d:08:05:fb:07:d1:52:53:4e:51:e4:b2:f3:17:4d:
                    f1:d0:c3:23:51:86:fb:a4:b9:09:37:9c:13:69:65:
                    51:45
                Exponent: 65537 (0x10001)
        X509v3 extensions:
            X509v3 Subject Key Identifier: 
                90:8D:89:42:17:BF:F6:98:D1:AA:8C:BF:AF:C2:74:60:AB:ED:90:0F
            X509v3 Authority Key Identifier: 
                keyid:A5:25:8E:C3:14:9C:86:19:30:F5:05:C5:AA:C8:37:12:F6:94:4A:46

            Authority Information Access: 
                CA Issuers - URI:http://url-for-aia/Intermediate.cer

            X509v3 CRL Distribution Points: 

                Full Name:
                  URI:http://url-for-crl/Intermediate.crl

            X509v3 Key Usage: critical
                Digital Signature, Key Encipherment
            X509v3 Extended Key Usage: 
                TLS Web Server Authentication, TLS Web Client Authentication
    Signature Algorithm: sha256WithRSAEncryption
         74:15:69:e0:48:a6:e3:fa:20:b6:3f:90:d7:61:d3:ea:b7:47:
         61:c7:81:6b:42:95:44:ac:1e:6f:3d:df:ad:2c:33:0d:e8:94:
         5b:d1:24:89:56:27:76:e4:6c:09:26:a7:e5:62:c9:96:83:ce:
         9d:08:f5:ee:c4:3d:fe:77:29:ae:8d:9f:7f:d5:81:b6:5d:b5:
         54:a0:1f:6c:54:1e:dd:a7:4e:78:e0:6c:60:1d:e8:1f:97:77:
         67:8d:57:80:00:17:80:cd:ab:ce:31:87:6e:9e:bf:3f:38:b9:
         da:96:a3:d2:22:63:43:dd:5c:e8:42:ea:2d:eb:ab:81:33:e5:
         95:36:46:3c:dd:8e:ad:e2:43:40:6f:3c:ce:73:4d:52:71:9d:
         54:59:f4:73:a2:5a:48:a5:c7:bc:dd:f9:9f:91:39:b1:bc:ad:
         9a:59:ea:f6:33:42:72:66:2f:e9:78:8f:b6:09:15:35:d8:e6:
         70:0d:d3:da:a7:7e:55:d9:05:88:47:16:1d:cd:54:1c:15:11:
         a6:d3:35:2a:4e:c5:0f:f7:b0:98:24:bf:7e:78:3e:5f:56:0c:
         87:72:c2:d1:7d:3e:3c:c6:98:50:a9:c7:cd:6f:0e:12:b4:32:
         7a:b8:01:6c:88:1c:8a:c2:19:24:1e:34:9b:da:45:eb:0a:f9:
         99:6e:54:c6
-----BEGIN CERTIFICATE-----
MIIDjTCCAnWgAwIBAgIBATANBgkqhkiG9w0BAQsFADAXMRUwEwYDVQQDDAxJbnRl
cm1lZGlhdGUwHhcNMTUwMTAxMTIwMDAwWhcNMTYwMTAxMTIwMDAwWjARMQ8wDQYD
VQQDDAZUYXJnZXQwggEiMA0GCSqGSIb3DQEBAQUAA4IBDwAwggEKAoIBAQCryhZV
NSWb3o786Vr5BD4ObAYeHIYgGE9B2jptFp5OPJsRZ7xaPYSyeQXSJZpqqIBsVSjy
WkNfxe/p4xpkJH5XTRFg1+apK3PHk7tnsUHV3yFcvZiTo30NsIZfh6nZq62XicUS
xA9x01t5GFNkfwqhNl4AXLnuXhQQF/IqYA/37KrXrdPcikRZz8gR50IciDDXHjeG
kWvOKry79UrMchqdT18OxMX3tiQJHCL496I9RcIpTaPz23qkk6JI1iuQ2gwr2Zbw
1sfr0OuoCHJVqBBljzhqIgycPWgazRbacyQuFF0IBfsH0VJTTlHksvMXTfHQwyNR
hvukuQk3nBNpZVFFAgMBAAGjgekwgeYwHQYDVR0OBBYEFJCNiUIXv/aY0aqMv6/C
dGCr7ZAPMB8GA1UdIwQYMBaAFKUljsMUnIYZMPUFxarINxL2lEpGMD8GCCsGAQUF
BwEBBDMwMTAvBggrBgEFBQcwAoYjaHR0cDovL3VybC1mb3ItYWlhL0ludGVybWVk
aWF0ZS5jZXIwNAYDVR0fBC0wKzApoCegJYYjaHR0cDovL3VybC1mb3ItY3JsL0lu
dGVybWVkaWF0ZS5jcmwwDgYDVR0PAQH/BAQDAgWgMB0GA1UdJQQWMBQGCCsGAQUF
BwMBBggrBgEFBQcDAjANBgkqhkiG9w0BAQsFAAOCAQEAdBVp4Eim4/ogtj+Q12HT
6rdHYceBa0KVRKwebz3frSwzDeiUW9EkiVYnduRsCSan5WLJloPOnQj17sQ9/ncp
ro2ff9WBtl21VKAfbFQe3adOeOBsYB3oH5d3Z41XgAAXgM2rzjGHbp6/Pzi52paj
0iJjQ91c6ELqLeurgTPllTZGPN2OreJDQG88znNNUnGdVFn0c6JaSKXHvN35n5E5
sbytmlnq9jNCcmYv6XiPtgkVNdjmcA3T2qd+VdkFiEcWHc1UHBURptM1Kk7FD/ew
mCS/fng+X1YMh3LC0X0+PMaYUKnHzW8OErQyergBbIgcisIZJB40m9pF6wr5mW5U
xg==
-----END CERTIFICATE-----

Certificate:
    Data:
        Version: 3 (0x2)
        Serial Number: 2 (0x2)
    Signature Algorithm: sha256WithRSAEncryption
        Issuer: CN=Root
        Validity
            Not Before: Jan  2 12:00:00 2015 GMT
            Not After : Jan  1 12:00:00 2016 GMT
        Subject: CN=Intermediate
        Subject Public Key Info:
            Public Key Algorithm: rsaEncryption
                Public-Key: (2048 bit)
                Modulus:
                    00:ad:d7:63:a2:51:33:32:fd:aa:73:2c:32:30:ac:
                    2f:8d:37:5f:08:b2:9b:02:1a:f7:3c:eb:c2:9e:82:
                    d9:a2:0e:02:14:28:bc:18:e2:92:8e:db:66:14:36:
                    3f:ef:43:47:ac:b4:e2:be:92:82:14:9a:bd:97:d7:
                    19:6f:88:29:b1:85:68:bd:13:d5:93:2c:a0:c8:bb:
                    76:9d:ad:f5:da:e8:55:ca:87:6d:07:20:f4:22:cf:
                    5a:51:ea:e1:7b:c3:7e:f9:a8:85:95:c5:e9:88:bf:
                    7b:5e:fd:49:d4:c4:ed:ce:b7:d2:71:23:59:00:a7:
                    6f:85:40:a0:38:c6:2b:88:99:68:e9:97:7e:2f:92:
                    97:18:0a:19:c2:4e:0a:28:2c:b3:b4:67:26:eb:1d:
                    03:f6:16:58:20:88:81:ee:a8:ea:19:ae:25:e9:34:
                    8d:87:f3:d2:3b:0e:b2:d8:31:14:ee:bd:c6:01:ec:
                    d4:41:f0:06:7b:3e:20:7b:06:88:86:29:d1:77:9a:
                    c0:bc:69:63:3f:2b:20:ac:aa:17:33:29:78:0a:11:
                    ff:92:f2:b3:4a:58:29:96:d3:f4:4f:70:ef:9c:81:
                    55:1c:21:20:bf:54:5a:dd:60:b7:6e:53:41:a2:19:
                    55:b5:f9:b8:6e:63:37:73:a0:b8:d4:c5:c1:a2:4e:
                    0e:11
                Exponent: 65537 (0x10001)
        X509v3 extensions:
            X509v3 Subject Key Identifier: 
                A5:25:8E:C3:14:9C:86:19:30:F5:05:C5:AA:C8:37:12:F6:94:4A:46
            X509v3 Authority Key Identifier: 
                keyid:83:F9:93:D5:29:F9:C4:BA:A1:5F:E4:C9:74:18:E0:DF:0E:17:18:50

            Authority Information Access: 
                CA Issuers - URI:http://url-for-aia/Root.cer

            X509v3 CRL Distribution Points: 

                Full Name:
                  URI:http://url-for-crl/Root.crl

            X509v3 Key Usage: critical
                Certificate Sign, CRL Sign
            X509v3 Basic Constraints: critical
                CA:TRUE
    Signature Algorithm: sha256WithRSAEncryption
         7f:a1:7c:8f:ea:d9:b9:63:e1:b0:31:0a:2e:1c:8e:e9:d0:23:
         ee:3e:8e:50:55:db:ba:10:93:a4:93:0b:bb:c1:a5:3d:32:90:
         ee:40:bf:0f:df:25:f1:65:b3:30:6d:39:9b:d2:c1:b8:b7:a8:
         7e:23:dc:6a:c3:5a:9e:53:d7:86:4c:82:de:98:23:1a:6f:f9:
         0d:6d:b9:35:55:b9:94:03:8d:b7:6c:2e:64:79:ea:85:84:7e:
         51:18:37:42:80:f5:d4:16:3f:a0:a9:6b:bf:17:d1:19:99:ea:
         8d:5a:c9:30:b0:ca:c8:2c:17:ce:14:75:b3:c9:19:df:16:1b:
         9a:97:ae:50:69:a5:6c:02:57:84:f4:7f:30:90:ed:89:bb:0e:
         c9:7b:34:d0:41:58:00:20:29:6b:f0:e8:97:81:92:3d:ba:e0:
         65:e9:7c:cb:5c:7b:50:c8:0f:d3:20:ab:42:2f:0d:44:6d:99:
         c2:1d:42:e8:b2:10:82:9b:86:ba:a8:45:d2:2c:13:53:cf:ad:
         37:ac:ce:f3:e7:49:fe:59:d5:b6:5f:8b:6b:fd:5f:e0:f2:91:
         ef:e3:f7:e0:b6:ee:e7:ae:77:0e:66:12:40:55:75:77:2a:05:
         d4:bd:ab:7e:5a:67:d8:81:8b:15:fd:4c:60:63:c7:f7:5f:fa:
         d4:d8:d9:d2
-----BEGIN CERTIFICATE-----
MIIDbTCCAlWgAwIBAgIBAjANBgkqhkiG9w0BAQsFADAPMQ0wCwYDVQQDDARSb290
MB4XDTE1MDEwMjEyMDAwMFoXDTE2MDEwMTEyMDAwMFowFzEVMBMGA1UEAwwMSW50
ZXJtZWRpYXRlMIIBIjANBgkqhkiG9w0BAQEFAAOCAQ8AMIIBCgKCAQEArddjolEz
Mv2qcywyMKwvjTdfCLKbAhr3POvCnoLZog4CFCi8GOKSjttmFDY/70NHrLTivpKC
FJq9l9cZb4gpsYVovRPVkyygyLt2na312uhVyodtByD0Is9aUerhe8N++aiFlcXp
iL97Xv1J1MTtzrfScSNZAKdvhUCgOMYriJlo6Zd+L5KXGAoZwk4KKCyztGcm6x0D
9hZYIIiB7qjqGa4l6TSNh/PSOw6y2DEU7r3GAezUQfAGez4gewaIhinRd5rAvGlj
PysgrKoXMyl4ChH/kvKzSlgpltP0T3DvnIFVHCEgv1Ra3WC3blNBohlVtfm4bmM3
c6C41MXBok4OEQIDAQABo4HLMIHIMB0GA1UdDgQWBBSlJY7DFJyGGTD1BcWqyDcS
9pRKRjAfBgNVHSMEGDAWgBSD+ZPVKfnEuqFf5Ml0GODfDhcYUDA3BggrBgEFBQcB
AQQrMCkwJwYIKwYBBQUHMAKGG2h0dHA6Ly91cmwtZm9yLWFpYS9Sb290LmNlcjAs
BgNVHR8EJTAjMCGgH6AdhhtodHRwOi8vdXJsLWZvci1jcmwvUm9vdC5jcmwwDgYD
VR0PAQH/BAQDAgEGMA8GA1UdEwEB/wQFMAMBAf8wDQYJKoZIhvcNAQELBQADggEB
AH+hfI/q2blj4bAxCi4cjunQI+4+jlBV27oQk6STC7vBpT0ykO5Avw/fJfFlszBt
OZvSwbi3qH4j3GrDWp5T14ZMgt6YIxpv+Q1tuTVVuZQDjbdsLmR56oWEflEYN0KA
9dQWP6Cpa78X0RmZ6o1ayTCwysgsF84UdbPJGd8WG5qXrlBppWwCV4T0fzCQ7Ym7
Dsl7NNBBWAAgKWvw6JeBkj264GXpfMtce1DID9Mgq0IvDURtmcIdQuiyEIKbhrqo
RdIsE1PPrTeszvPnSf5Z1bZfi2v9X+Dyke/j9+C27ueudw5mEkBVdXcqBdS9q35a
Z9iBixX9TGBjx/df+tTY2dI=
-----END CERTIFICATE-----

Certificate:
    Data:
        Version: 3 (0x2)
        Serial Number: 1 (0x1)
    Signature Algorithm: sha256WithRSAEncryption
        Issuer: CN=Root
        Validity
            Not Before: Jan  2 12:00:00 2015 GMT
            Not After : Jan  1 12:00:00 2016 GMT
        Subject: CN=Root
        Subject Public Key Info:
            Public Key Algorithm: rsaEncryption
                Public-Key: (2048 bit)
                Modulus:
                    00:c8:01:d6:aa:f0:22:fa:55:68:e4:56:fa:87:9f:
                    03:a4:78:36:40:64:b2:60:f7:20:25:47:92:b0:cb:
                    c7:9d:4c:c6:4d:78:0f:91:9e:a8:f1:0b:84:58:b1:
                    a9:06:2d:7d:09:82:f4:1a:60:67:7b:c3:47:69:05:
                    b5:59:90:02:2a:53:27:25:21:4d:9a:5f:b6:7b:58:
                    25:77:b3:46:64:fc:ed:04:c0:e2:62:e5:96:f9:8a:
                    8d:9a:e8:8d:bf:d9:19:38:97:52:ab:31:3c:1c:a2:
                    b9:21:ec:5f:aa:8c:21:44:c6:73:7f:0b:72:c9:61:
                    1c:a7:cd:46:bb:da:5b:a7:1b:e2:18:fb:ff:18:81:
                    5f:fb:75:29:21:9c:92:e0:d3:03:f5:b8:58:94:36:
                    32:7a:9a:a7:ec:49:ab:ef:d4:8c:c4:65:aa:23:40:
                    96:76:47:4b:06:0b:21:c4:44:9f:8d:12:ab:05:05:
                    e7:97:d9:9d:c0:f9:4d:77:14:0b:c5:d5:82:0c:d7:
                    14:54:fa:07:dd:a3:78:30:5d:95:83:e4:1c:7f:c2:
                    13:c6:b1:8b:10:87:9b:e9:3e:4f:d6:b6:b9:a8:9f:
                    4c:47:f8:40:67:7d:4e:9b:87:4a:b6:92:eb:33:f1:
                    73:a3:70:d6:fc:37:32:2a:b4:b8:56:90:63:5e:ec:
                    b7:b7
                Exponent: 65537 (0x10001)
        X509v3 extensions:
            X509v3 Subject Key Identifier: 
                83:F9:93:D5:29:F9:C4:BA:A1:5F:E4:C9:74:18:E0:DF:0E:17:18:50
            X509v3 Authority Key Identifier: 
                keyid:83:F9:93:D5:29:F9:C4:BA:A1:5F:E4:C9:74:18:E0:DF:0E:17:18:50

            Authority Information Access: 
                CA Issuers - URI:http://url-for-aia/Root.cer

            X509v3 CRL Distribution Points: 

                Full Name:
                  URI:http://url-for-crl/Root.crl

            X509v3 Key Usage: critical
                Certificate Sign, CRL Sign
            X509v3 Basic Constraints: critical
                CA:TRUE
    Signature Algorithm: sha256WithRSAEncryption
         a9:e8:26:5f:c8:9e:6b:fc:cd:4d:d2:9e:de:f5:f1:08:04:66:
         23:6a:7e:ee:92:9f:eb:71:53:ea:97:8e:db:e4:47:72:7a:08:
         17:1c:72:4a:37:00:f5:e3:a8:77:d2:b1:d4:89:45:b2:e9:ba:
         00:61:6e:cb:03:b4:21:aa:ec:e4:f3:a4:41:b7:90:41:08:0f:
         0d:90:bd:55:4a:bc:1c:7f:2e:c1:97:6d:34:d1:8d:da:39:46:
         55:49:97:4c:f7:eb:29:62:b3:ed:ad:24:d8:05:9a:93:82:f2:
         12:34:24:78:60:a4:7b:a9:94:97:75:10:20:57:42:83:32:0d:
         19:d0:15:3b:55:84:d8:49:9b:a4:66:14:c9:90:f4:89:bc:23:
         2a:45:dd:19:25:68:6e:fe:44:60:c0:19:75:61:3f:85:4b:90:
         8c:45:3b:2e:9b:41:12:43:ee:2f:61:96:ff:af:4b:11:fe:af:
         02:af:0d:69:0d:ae:11:bc:eb:34:de:ac:24:3b:08:6e:b3:b2:
         1a:8e:46:d9:6b:91:08:4e:c3:5b:f6:3c:3f:90:8d:95:01:b9:
         d9:30:aa:2d:79:00:bb:99:a1:ed:0a:1c:28:fc:5c:12:1c:3d:
         53:33:c8:ca:b1:9c:13:a2:2a:c7:1d:ce:b7:1e:2c:35:37:e8:
         10:af:0c:e6
-----BEGIN TRUSTED_CERTIFICATE-----
MIIDZTCCAk2gAwIBAgIBATANBgkqhkiG9w0BAQsFADAPMQ0wCwYDVQQDDARSb290
MB4XDTE1MDEwMjEyMDAwMFoXDTE2MDEwMTEyMDAwMFowDzENMAsGA1UEAwwEUm9v
dDCCASIwDQYJKoZIhvcNAQEBBQADggEPADCCAQoCggEBAMgB1qrwIvpVaORW+oef
A6R4NkBksmD3ICVHkrDLx51Mxk14D5GeqPELhFixqQYtfQmC9BpgZ3vDR2kFtVmQ
AipTJyUhTZpftntYJXezRmT87QTA4mLllvmKjZrojb/ZGTiXUqsxPByiuSHsX6qM
IUTGc38LcslhHKfNRrvaW6cb4hj7/xiBX/t1KSGckuDTA/W4WJQ2Mnqap+xJq+/U
jMRlqiNAlnZHSwYLIcREn40SqwUF55fZncD5TXcUC8XVggzXFFT6B92jeDBdlYPk
HH/CE8axixCHm+k+T9a2uaifTEf4QGd9TpuHSraS6zPxc6Nw1vw3Miq0uFaQY17s
t7cCAwEAAaOByzCByDAdBgNVHQ4EFgQUg/mT1Sn5xLqhX+TJdBjg3w4XGFAwHwYD
VR0jBBgwFoAUg/mT1Sn5xLqhX+TJdBjg3w4XGFAwNwYIKwYBBQUHAQEEKzApMCcG
CCsGAQUFBzAChhtodHRwOi8vdXJsLWZvci1haWEvUm9vdC5jZXIwLAYDVR0fBCUw
IzAhoB+gHYYbaHR0cDovL3VybC1mb3ItY3JsL1Jvb3QuY3JsMA4GA1UdDwEB/wQE
AwIBBjAPBgNVHRMBAf8EBTADAQH/MA0GCSqGSIb3DQEBCwUAA4IBAQCp6CZfyJ5r
/M1N0p7e9fEIBGYjan7ukp/rcVPql47b5EdyeggXHHJKNwD146h30rHUiUWy6boA
YW7LA7Qhquzk86RBt5BBCA8NkL1VSrwcfy7Bl2000Y3aOUZVSZdM9+spYrPtrSTY
BZqTgvISNCR4YKR7qZSXdRAgV0KDMg0Z0BU7VYTYSZukZhTJkPSJvCMqRd0ZJWhu
/kRgwBl1YT+FS5CMRTsum0ESQ+4vYZb/r0sR/q8Crw1pDa4RvOs03qwkOwhus7Ia
jkbZa5EITsNb9jw/kI2VAbnZMKoteQC7maHtChwo/FwSHD1TM8jKsZwToirHHc63
Hiw1N+gQrwzm
-----END TRUSTED_CERTIFICATE-----

-----BEGIN TIME-----
MTUwMzAyMTIwMDAwWg==
-----END TIME-----

-----BEGIN VERIFY_RESULT-----
U1VDQ0VTUw==
-----END VERIFY_RESULT-----
