Certificate:
    Data:
        Version: 3 (0x2)
        Serial Number:
            4a:47:00:01:00:02:e5:a0:5d:d6:3f:00:51:bf
    Signature Algorithm: sha1WithRSAEncryption
        Issuer: C=DE, O=TC TrustCenter GmbH, OU=TC TrustCenter Class 3 CA, CN=TC TrustCenter Class 3 CA II
        Validity
            Not Before: Jan 12 14:41:57 2006 GMT
            Not After : Dec 31 22:59:59 2025 GMT
        Subject: C=DE, O=TC TrustCenter GmbH, OU=TC TrustCenter Class 3 CA, CN=TC TrustCenter Class 3 CA II
        Subject Public Key Info:
            Public Key Algorithm: rsaEncryption
                Public-Key: (2048 bit)
                Modulus:
                    00:b4:e0:bb:51:bb:39:5c:8b:04:c5:4c:79:1c:23:
                    86:31:10:63:43:55:27:3f:c6:45:c7:a4:3d:ec:09:
                    0d:1a:1e:20:c2:56:1e:de:1b:37:07:30:22:2f:6f:
                    f1:06:f1:ab:ad:d6:c8:ab:61:a3:2f:43:c4:b0:b2:
                    2d:fc:c3:96:69:7b:7e:8a:e4:cc:c0:39:12:90:42:
                    60:c9:cc:35:68:ee:da:5f:90:56:5f:cd:1c:4d:5b:
                    58:49:eb:0e:01:4f:64:fa:2c:3c:89:58:d8:2f:2e:
                    e2:b0:68:e9:22:3b:75:89:d6:44:1a:65:f2:1b:97:
                    26:1d:28:6d:ac:e8:bd:59:1d:2b:24:f6:d6:84:03:
                    66:88:24:00:78:60:f1:f8:ab:fe:02:b2:6b:fb:22:
                    fb:35:e6:16:d1:ad:f6:2e:12:e4:fa:35:6a:e5:19:
                    b9:5d:db:3b:1e:1a:fb:d3:ff:15:14:08:d8:09:6a:
                    ba:45:9d:14:79:60:7d:af:40:8a:07:73:b3:93:96:
                    d3:74:34:8d:3a:37:29:de:5c:ec:f5:ee:2e:31:c2:
                    20:dc:be:f1:4f:7f:23:52:d9:5b:e2:64:d9:9c:aa:
                    07:08:b5:45:bd:d1:d0:31:c1:ab:54:9f:a9:d2:c3:
                    62:60:03:f1:bb:39:4a:92:4a:3d:0a:b9:9d:c5:a0:
                    fe:37
                Exponent: 65537 (0x10001)
        X509v3 extensions:
            X509v3 Basic Constraints: critical
                CA:TRUE
            X509v3 Key Usage: critical
                Certificate Sign, CRL Sign
            X509v3 Subject Key Identifier: 
                D4:A2:FC:9F:B3:C3:D8:03:D3:57:5C:07:A4:D0:24:A7:C0:F2:00:D4
            X509v3 CRL Distribution Points: 

                Full Name:
                  URI:http://www.trustcenter.de/crl/v2/tc_class_3_ca_II.crl
                  URI:ldap://www.trustcenter.de/CN=TC%20TrustCenter%20Class%203%20CA%20II,O=TC%20TrustCenter%20GmbH,OU=rootcerts,DC=trustcenter,DC=de?certificateRevocationList?base?

    Signature Algorithm: sha1WithRSAEncryption
         36:60:e4:70:f7:06:20:43:d9:23:1a:42:f2:f8:a3:b2:b9:4d:
         8a:b4:f3:c2:9a:55:31:7c:c4:3b:67:9a:b4:df:4d:0e:8a:93:
         4a:17:8b:1b:8d:ca:89:e1:cf:3a:1e:ac:1d:f1:9c:32:b4:8e:
         59:76:a2:41:85:25:37:a0:13:d0:f5:7c:4e:d5:ea:96:e2:6e:
         72:c1:bb:2a:fe:6c:6e:f8:91:98:46:fc:c9:1b:57:5b:ea:c8:
         1a:3b:3f:b0:51:98:3c:07:da:2c:59:01:da:8b:44:e8:e1:74:
         fd:a7:68:dd:54:ba:83:46:ec:c8:46:b5:f8:af:97:c0:3b:09:
         1c:8f:ce:72:96:3d:33:56:70:bc:96:cb:d8:d5:7d:20:9a:83:
         9f:1a:dc:39:f1:c5:72:a3:11:03:fd:3b:42:52:29:db:e8:01:
         f7:9b:5e:8c:d6:8d:86:4e:19:fa:bc:1c:be:c5:21:a5:87:9e:
         78:2e:36:db:09:71:a3:72:34:f8:6c:e3:06:09:f2:5e:56:a5:
         d3:dd:98:fa:d4:e6:06:f4:f0:b6:20:63:4b:ea:29:bd:aa:82:
         66:1e:fb:81:aa:a7:37:ad:13:18:e6:92:c3:81:c1:33:bb:88:
         1e:a1:e7:e2:b4:bd:31:6c:0e:51:3d:6f:fb:96:56:80:e2:36:
         17:d1:dc:e4
-----BEGIN CERTIFICATE-----
MIIEqjCCA5KgAwIBAgIOSkcAAQAC5aBd1j8AUb8wDQYJKoZIhvcNAQEFBQAwdjEL
MAkGA1UEBhMCREUxHDAaBgNVBAoTE1RDIFRydXN0Q2VudGVyIEdtYkgxIjAgBgNV
BAsTGVRDIFRydXN0Q2VudGVyIENsYXNzIDMgQ0ExJTAjBgNVBAMTHFRDIFRydXN0
Q2VudGVyIENsYXNzIDMgQ0EgSUkwHhcNMDYwMTEyMTQ0MTU3WhcNMjUxMjMxMjI1
OTU5WjB2MQswCQYDVQQGEwJERTEcMBoGA1UEChMTVEMgVHJ1c3RDZW50ZXIgR21i
SDEiMCAGA1UECxMZVEMgVHJ1c3RDZW50ZXIgQ2xhc3MgMyBDQTElMCMGA1UEAxMc
VEMgVHJ1c3RDZW50ZXIgQ2xhc3MgMyBDQSBJSTCCASIwDQYJKoZIhvcNAQEBBQAD
ggEPADCCAQoCggEBALTgu1G7OVyLBMVMeRwjhjEQY0NVJz/GRcekPewJDRoeIMJW
Ht4bNwcwIi9v8Qbxq63WyKthoy9DxLCyLfzDlml7forkzMA5EpBCYMnMNWju2l+Q
Vl/NHE1bWEnrDgFPZPosPIlY2C8u4rBo6SI7dYnWRBpl8huXJh0obazovVkdKyT2
1oQDZogkAHhg8fir/gKya/si+zXmFtGt9i4S5Po1auUZuV3bOx4a+9P/FRQI2Alq
ukWdFHlgfa9Aigdzs5OW03Q0jTo3Kd5c7PXuLjHCINy+8U9/I1LZW+Jk2ZyqBwi1
Rb3R0DHBq1SfqdLDYmAD8bs5SpJKPQq5ncWg/jcCAwEAAaOCATQwggEwMA8GA1Ud
EwEB/wQFMAMBAf8wDgYDVR0PAQH/BAQDAgEGMB0GA1UdDgQWBBTUovyfs8PYA9NX
XAek0CSnwPIA1DCB7QYDVR0fBIHlMIHiMIHfoIHcoIHZhjVodHRwOi8vd3d3LnRy
dXN0Y2VudGVyLmRlL2NybC92Mi90Y19jbGFzc18zX2NhX0lJLmNybIaBn2xkYXA6
Ly93d3cudHJ1c3RjZW50ZXIuZGUvQ049VEMlMjBUcnVzdENlbnRlciUyMENsYXNz
JTIwMyUyMENBJTIwSUksTz1UQyUyMFRydXN0Q2VudGVyJTIwR21iSCxPVT1yb290
Y2VydHMsREM9dHJ1c3RjZW50ZXIsREM9ZGU/Y2VydGlmaWNhdGVSZXZvY2F0aW9u
TGlzdD9iYXNlPzANBgkqhkiG9w0BAQUFAAOCAQEANmDkcPcGIEPZIxpC8vijsrlN
irTzwppVMXzEO2eatN9NDoqTSheLG43KieHPOh6sHfGcMrSOWXaiQYUlN6AT0PV8
TtXqluJucsG7Kv5sbviRmEb8yRtXW+rIGjs/sFGYPAfaLFkB2otE6OF0/ado3VS6
g0bsyEa1+K+XwDsJHI/OcpY9M1ZwvJbL2NV9IJqDnxrcOfHFcqMRA/07QlIp2+gB
95tejNaNhk4Z+rwcvsUhpYeeeC422wlxo3I0+GzjBgnyXlal092Y+tTmBvTwtiBj
S+opvaqCZh77gaqnN60TGOaSw4HBM7uIHqHn4rS9MWwOUT1v+5ZWgOI2F9Hc5A==
-----END CERTIFICATE-----
