[Created by: ./generate-chains.py]

Certificate chain where both the intermediate and target certificates have
incorrect signatures.

Certificate:
    Data:
        Version: 3 (0x2)
        Serial Number: 1 (0x1)
    Signature Algorithm: sha256WithRSAEncryption
        Issuer: CN=Intermediate
        Validity
            Not Before: Jan  1 12:00:00 2015 GMT
            Not After : Jan  1 12:00:00 2016 GMT
        Subject: CN=Target
        Subject Public Key Info:
            Public Key Algorithm: rsaEncryption
                Public-Key: (2048 bit)
                Modulus:
                    00:b1:5e:cb:41:90:73:c4:13:ce:74:69:2e:d2:cb:
                    92:f1:dd:1c:30:d5:bc:33:af:7d:e7:b2:5a:4a:c2:
                    7e:61:cb:44:97:9d:85:26:10:db:fc:07:c7:f2:6c:
                    87:7a:f0:fb:4c:c8:1b:ed:7c:3e:19:4c:5e:b1:e8:
                    ba:10:8f:f3:2e:50:b4:56:ff:1f:7a:70:96:ee:f6:
                    d1:f9:f2:57:db:56:c7:d3:fd:cd:5a:ec:e0:e7:c8:
                    39:ca:3a:99:c0:d4:38:77:08:94:e2:4c:a9:5b:b8:
                    bd:97:8a:df:45:7c:fd:b0:ed:c8:b2:09:35:53:4e:
                    6f:58:42:60:c6:92:42:e8:f6:22:6a:8b:c4:e1:08:
                    00:e6:a7:48:c9:64:4b:13:7e:ca:c8:05:17:b5:60:
                    66:db:f0:25:eb:24:e4:9f:bf:6b:96:21:18:bf:a7:
                    19:5c:2f:2f:63:9a:de:b6:83:c5:1a:fd:f0:25:18:
                    7a:43:4a:15:d0:76:b0:3f:22:f3:6f:71:b1:23:74:
                    7b:3c:14:ca:8a:b1:7f:07:6c:3a:f6:01:32:1b:38:
                    4f:ba:14:50:00:9f:5e:09:0f:c3:b2:f2:25:bc:d0:
                    e0:f3:6f:af:58:22:5f:86:0f:b4:c6:fe:5e:41:b5:
                    da:2a:e0:5e:18:f1:7c:79:3c:57:b7:68:5d:27:4e:
                    85:17
                Exponent: 65537 (0x10001)
        X509v3 extensions:
            X509v3 Subject Key Identifier: 
                54:31:EB:0B:BA:22:61:28:F7:82:FB:D1:FA:BA:43:92:AD:92:66:23
            X509v3 Authority Key Identifier: 
                keyid:6D:10:36:87:AF:FA:A8:A3:9B:79:07:26:E8:A6:DA:49:43:67:94:CA

            Authority Information Access: 
                CA Issuers - URI:http://url-for-aia/Intermediate.cer

            X509v3 CRL Distribution Points: 

                Full Name:
                  URI:http://url-for-crl/Intermediate.crl

            X509v3 Key Usage: critical
                Digital Signature, Key Encipherment
            X509v3 Extended Key Usage: 
                TLS Web Server Authentication, TLS Web Client Authentication
    Signature Algorithm: sha256WithRSAEncryption
         b5:a8:da:7d:70:d3:1a:c1:12:ec:19:df:49:86:93:da:2d:b4:
         33:f6:f4:8c:fe:e9:83:c8:cb:c2:e0:92:99:e1:fd:a2:f8:65:
         57:13:ff:45:57:9c:28:2c:99:eb:22:f2:40:b8:62:4b:34:4b:
         80:50:7d:99:c6:d6:5b:3d:54:99:d2:1e:7d:b8:57:15:83:82:
         36:14:da:8e:95:50:87:c0:4b:f7:61:46:8f:48:e9:62:1f:ac:
         72:e8:b6:be:a3:6f:83:b3:81:58:c0:64:0d:b6:10:2c:22:9a:
         a3:60:b5:31:38:bf:03:e8:28:a5:4c:29:cd:b0:3a:98:8c:a6:
         36:39:87:d2:22:7c:f6:49:1e:13:0b:8a:da:86:dd:69:df:99:
         19:a9:c6:ae:11:56:71:56:5f:9a:71:e3:9d:0b:3b:0e:84:4b:
         ce:75:12:64:4b:52:6b:8b:1d:a9:e2:c3:03:4e:b5:d8:37:aa:
         cf:d0:cc:c8:53:92:18:8f:75:6f:55:99:7c:e7:00:a4:96:8a:
         fa:67:89:57:da:ae:46:68:a4:1d:1b:d3:1d:26:cd:86:16:06:
         61:86:de:82:6a:08:bd:25:45:6f:c2:a5:f9:f8:95:1f:68:c5:
         97:f2:2d:7d:c6:66:34:96:fa:82:6d:d3:f5:34:63:c9:53:dd:
         4e:6b:b3:62
-----BEGIN CERTIFICATE-----
MIIDjTCCAnWgAwIBAgIBATANBgkqhkiG9w0BAQsFADAXMRUwEwYDVQQDDAxJbnRl
cm1lZGlhdGUwHhcNMTUwMTAxMTIwMDAwWhcNMTYwMTAxMTIwMDAwWjARMQ8wDQYD
VQQDDAZUYXJnZXQwggEiMA0GCSqGSIb3DQEBAQUAA4IBDwAwggEKAoIBAQCxXstB
kHPEE850aS7Sy5Lx3Rww1bwzr33nslpKwn5hy0SXnYUmENv8B8fybId68PtMyBvt
fD4ZTF6x6LoQj/MuULRW/x96cJbu9tH58lfbVsfT/c1a7ODnyDnKOpnA1Dh3CJTi
TKlbuL2Xit9FfP2w7ciyCTVTTm9YQmDGkkLo9iJqi8ThCADmp0jJZEsTfsrIBRe1
YGbb8CXrJOSfv2uWIRi/pxlcLy9jmt62g8Ua/fAlGHpDShXQdrA/IvNvcbEjdHs8
FMqKsX8HbDr2ATIbOE+6FFAAn14JD8Oy8iW80ODzb69YIl+GD7TG/l5Btdoq4F4Y
8Xx5PFe3aF0nToUXAgMBAAGjgekwgeYwHQYDVR0OBBYEFFQx6wu6ImEo94L70fq6
Q5KtkmYjMB8GA1UdIwQYMBaAFG0QNoev+qijm3kHJuim2klDZ5TKMD8GCCsGAQUF
BwEBBDMwMTAvBggrBgEFBQcwAoYjaHR0cDovL3VybC1mb3ItYWlhL0ludGVybWVk
aWF0ZS5jZXIwNAYDVR0fBC0wKzApoCegJYYjaHR0cDovL3VybC1mb3ItY3JsL0lu
dGVybWVkaWF0ZS5jcmwwDgYDVR0PAQH/BAQDAgWgMB0GA1UdJQQWMBQGCCsGAQUF
BwMBBggrBgEFBQcDAjANBgkqhkiG9w0BAQsFAAOCAQEAtajafXDTGsES7BnfSYaT
2i20M/b0jP7pg8jLwuCSmeH9ovhlVxP/RVecKCyZ6yLyQLhiSzRLgFB9mcbWWz1U
mdIefbhXFYOCNhTajpVQh8BL92FGj0jpYh+scui2vqNvg7OBWMBkDbYQLCKao2C1
MTi/A+gopUwpzbA6mIymNjmH0iJ89kkeEwuK2obdad+ZGanGrhFWcVZfmnHjnQs7
DoRLznUSZEtSa4sdqeLDA0612Deqz9DMyFOSGI91b1WZfOcApJaK+meJV9quRmik
HRvTHSbNhhYGYYbegmoIvSVFb8Kl+fiVH2jFl/ItfcZmNJb6gm3T9TRjyVPdTmuz
Yg==
-----END CERTIFICATE-----

Certificate:
    Data:
        Version: 3 (0x2)
        Serial Number: 4 (0x4)
    Signature Algorithm: sha256WithRSAEncryption
        Issuer: CN=Root
        Validity
            Not Before: Jan  1 12:00:00 2015 GMT
            Not After : Jan  1 12:00:00 2016 GMT
        Subject: CN=Intermediate
        Subject Public Key Info:
            Public Key Algorithm: rsaEncryption
                Public-Key: (2048 bit)
                Modulus:
                    00:b6:52:3d:81:21:43:60:33:fc:4e:76:28:8c:26:
                    3c:d9:1b:05:4b:b7:ba:5d:41:f7:9e:08:72:b2:0f:
                    a9:bb:37:1b:b8:6d:10:62:cf:c2:29:97:7b:97:49:
                    f4:3b:87:d9:29:64:72:f0:99:04:23:23:84:83:04:
                    3c:01:15:95:1a:f8:02:ba:0e:9c:d2:f6:45:54:f9:
                    a8:e9:e7:7c:2e:f5:e7:b4:38:4a:bb:d0:40:f8:51:
                    50:63:b0:fc:2e:39:f9:6b:a3:c9:dd:39:df:47:b6:
                    d4:81:2b:19:43:99:a7:f1:1c:4e:53:79:f0:40:4c:
                    46:fa:e9:df:da:df:75:7a:8b:25:9d:f0:d6:85:16:
                    88:f2:eb:65:19:b9:42:1f:07:bd:7e:8d:3d:73:8d:
                    6f:f5:b6:e4:bc:af:4d:0e:f6:f4:37:e1:58:fb:a1:
                    6d:06:d5:80:00:16:f3:57:6f:ea:07:f3:c1:a0:ad:
                    ab:5e:4d:c8:f7:e8:fa:c1:b6:c6:01:fb:6a:22:4d:
                    1d:f7:44:7e:69:16:48:f0:93:0c:b4:45:c7:4f:15:
                    84:29:f6:c3:a3:c3:1e:9c:8c:46:2a:47:fc:61:86:
                    d6:62:82:74:06:98:57:b4:4e:11:c8:b2:44:b1:76:
                    e4:38:3b:5f:19:df:f5:15:80:40:f0:75:4c:2c:c1:
                    9d:cd
                Exponent: 65537 (0x10001)
        X509v3 extensions:
            X509v3 Subject Key Identifier: 
                DB:88:D7:0B:35:2B:9E:30:59:D2:1A:51:1D:AC:7D:E3:C0:41:85:34
            X509v3 Authority Key Identifier: 
                keyid:6E:7B:C8:25:11:11:8C:B7:37:E8:5A:B8:3B:F5:25:A1:06:7D:A6:A1

            Authority Information Access: 
                CA Issuers - URI:http://url-for-aia/Root.cer

            X509v3 CRL Distribution Points: 

                Full Name:
                  URI:http://url-for-crl/Root.crl

            X509v3 Key Usage: critical
                Certificate Sign, CRL Sign
            X509v3 Basic Constraints: critical
                CA:TRUE
    Signature Algorithm: sha256WithRSAEncryption
         09:70:3f:8e:94:35:20:15:e7:9d:d7:b5:57:e1:44:b7:57:b9:
         06:8d:4b:4d:b6:d0:0f:55:31:f9:ef:99:e9:5e:0d:ea:2a:6d:
         b4:6f:67:4e:96:5a:dc:cd:91:1c:9a:55:fb:47:11:c5:54:09:
         5d:e9:a8:64:49:63:64:41:15:49:06:69:70:90:a6:d5:d5:15:
         9a:b5:90:43:74:2c:10:ef:46:23:f5:3f:40:dc:54:4e:41:af:
         0b:09:70:23:d4:f1:18:da:b8:1d:f7:72:99:ed:ad:2f:41:32:
         a5:42:19:1a:f3:2f:fb:6b:90:66:fb:cf:5c:5e:a8:90:ea:c3:
         4d:ed:99:38:f7:8c:68:e8:71:98:82:f8:5c:4d:af:3a:ff:8c:
         47:c1:ed:f3:75:b6:23:5b:0e:b9:e6:81:7f:55:55:6b:4b:e4:
         6e:20:e3:53:e4:5d:fa:89:1e:94:99:27:7d:d5:71:ce:10:39:
         96:12:1d:6a:99:c9:95:ed:94:bc:a1:0f:4f:57:9f:55:41:87:
         45:d5:52:fa:6c:1a:98:6c:c8:31:9e:09:fd:ab:b1:ff:b4:31:
         28:69:a8:eb:fa:c5:59:51:e7:43:15:c0:b0:85:17:6d:36:b6:
         95:ae:87:0b:99:08:ef:a8:c7:0f:1a:fa:af:c1:5c:ad:4d:eb:
         8c:c4:04:45
-----BEGIN CERTIFICATE-----
MIIDbTCCAlWgAwIBAgIBBDANBgkqhkiG9w0BAQsFADAPMQ0wCwYDVQQDDARSb290
MB4XDTE1MDEwMTEyMDAwMFoXDTE2MDEwMTEyMDAwMFowFzEVMBMGA1UEAwwMSW50
ZXJtZWRpYXRlMIIBIjANBgkqhkiG9w0BAQEFAAOCAQ8AMIIBCgKCAQEAtlI9gSFD
YDP8TnYojCY82RsFS7e6XUH3nghysg+puzcbuG0QYs/CKZd7l0n0O4fZKWRy8JkE
IyOEgwQ8ARWVGvgCug6c0vZFVPmo6ed8LvXntDhKu9BA+FFQY7D8Ljn5a6PJ3Tnf
R7bUgSsZQ5mn8RxOU3nwQExG+unf2t91eoslnfDWhRaI8utlGblCHwe9fo09c41v
9bbkvK9NDvb0N+FY+6FtBtWAABbzV2/qB/PBoK2rXk3I9+j6wbbGAftqIk0d90R+
aRZI8JMMtEXHTxWEKfbDo8MenIxGKkf8YYbWYoJ0BphXtE4RyLJEsXbkODtfGd/1
FYBA8HVMLMGdzQIDAQABo4HLMIHIMB0GA1UdDgQWBBTbiNcLNSueMFnSGlEdrH3j
wEGFNDAfBgNVHSMEGDAWgBRue8glERGMtzfoWrg79SWhBn2moTA3BggrBgEFBQcB
AQQrMCkwJwYIKwYBBQUHMAKGG2h0dHA6Ly91cmwtZm9yLWFpYS9Sb290LmNlcjAs
BgNVHR8EJTAjMCGgH6AdhhtodHRwOi8vdXJsLWZvci1jcmwvUm9vdC5jcmwwDgYD
VR0PAQH/BAQDAgEGMA8GA1UdEwEB/wQFMAMBAf8wDQYJKoZIhvcNAQELBQADggEB
AAlwP46UNSAV553XtVfhRLdXuQaNS0220A9VMfnvmeleDeoqbbRvZ06WWtzNkRya
VftHEcVUCV3pqGRJY2RBFUkGaXCQptXVFZq1kEN0LBDvRiP1P0DcVE5BrwsJcCPU
8RjauB33cpntrS9BMqVCGRrzL/trkGb7z1xeqJDqw03tmTj3jGjocZiC+FxNrzr/
jEfB7fN1tiNbDrnmgX9VVWtL5G4g41PkXfqJHpSZJ33Vcc4QOZYSHWqZyZXtlLyh
D09Xn1VBh0XVUvpsGphsyDGeCf2rsf+0MShpqOv6xVlR50MVwLCFF202tpWuhwuZ
CO+oxw8a+q/BXK1N64zEBEU=
-----END CERTIFICATE-----

Certificate:
    Data:
        Version: 3 (0x2)
        Serial Number: 1 (0x1)
    Signature Algorithm: sha256WithRSAEncryption
        Issuer: CN=Root
        Validity
            Not Before: Jan  1 12:00:00 2015 GMT
            Not After : Jan  1 12:00:00 2016 GMT
        Subject: CN=Root
        Subject Public Key Info:
            Public Key Algorithm: rsaEncryption
                Public-Key: (2048 bit)
                Modulus:
                    00:f9:1b:7f:13:42:25:83:e6:a3:28:53:28:a2:42:
                    76:db:ec:c0:1d:88:3c:ee:37:ad:fe:24:a4:37:32:
                    4c:32:27:be:25:31:0a:07:48:7f:8e:44:24:de:ec:
                    ef:e3:cd:f8:fc:a1:7e:b5:95:0e:03:2a:ee:07:e6:
                    8a:fb:92:8b:92:5c:9c:51:3d:95:72:eb:5e:b5:d0:
                    b4:03:1e:26:5e:4d:f0:a0:ef:41:7a:a0:27:6f:a4:
                    73:b9:61:04:a4:21:a2:9d:67:3d:34:ad:6e:c4:24:
                    95:85:bb:3c:33:34:0c:91:a5:1f:fe:5e:6b:a6:8f:
                    b8:0c:00:cf:e4:f1:c5:6f:b3:1d:49:0c:2b:fe:07:
                    ab:8c:c6:55:5c:ef:44:7c:f9:7e:7d:80:63:93:e6:
                    75:dd:16:72:c9:1d:95:c7:14:b4:1d:18:9e:fe:0a:
                    c8:b2:7d:55:06:e6:8b:bb:50:b6:46:cf:63:59:bb:
                    66:8b:ae:b7:4a:4d:3e:a4:75:d2:00:1b:af:87:38:
                    fd:01:6d:96:0a:0b:e8:2e:f2:ad:d5:a8:10:7c:ff:
                    da:a7:62:1f:eb:8b:d6:6b:96:c1:0f:9a:0b:1b:46:
                    63:e0:aa:54:c5:b0:f1:31:ad:7c:24:a9:27:84:a2:
                    df:06:86:63:4a:b2:9c:bb:b3:3f:89:d4:9c:7a:fa:
                    91:25
                Exponent: 65537 (0x10001)
        X509v3 extensions:
            X509v3 Subject Key Identifier: 
                72:8E:C0:44:D5:12:7A:32:45:EA:BC:89:19:85:84:95:C9:20:AF:09
            X509v3 Authority Key Identifier: 
                keyid:72:8E:C0:44:D5:12:7A:32:45:EA:BC:89:19:85:84:95:C9:20:AF:09

            Authority Information Access: 
                CA Issuers - URI:http://url-for-aia/Root.cer

            X509v3 CRL Distribution Points: 

                Full Name:
                  URI:http://url-for-crl/Root.crl

            X509v3 Key Usage: critical
                Certificate Sign, CRL Sign
            X509v3 Basic Constraints: critical
                CA:TRUE
    Signature Algorithm: sha256WithRSAEncryption
         56:d6:36:14:28:a5:3c:ee:de:0e:71:43:ac:ce:6e:6a:dd:c7:
         e4:36:cf:45:d4:ee:79:74:4a:c3:fb:05:5e:11:9e:cf:4c:99:
         8c:78:ac:15:21:52:bf:a2:95:63:da:d9:e8:dc:16:48:c9:52:
         30:51:a3:fa:2a:48:8f:29:46:38:1d:e8:63:07:b6:ba:00:a9:
         3e:cf:df:6a:29:89:ac:d1:aa:98:53:27:4b:3f:36:e2:43:60:
         03:73:6a:6f:10:ed:3d:7a:fe:cd:76:22:cf:d9:a9:7b:40:1a:
         55:c8:77:c5:6a:1b:0e:13:37:9b:11:2a:27:07:49:5f:41:ce:
         1f:e2:5e:91:24:3d:a1:d2:d9:95:ca:c1:e3:13:72:06:93:e7:
         48:65:01:88:df:a5:53:74:10:ad:21:ad:7e:d3:d7:ae:41:b1:
         e3:42:a4:87:ab:47:8a:13:97:96:7c:b2:6d:e6:2e:52:7f:63:
         de:49:53:51:cd:e1:58:6c:c2:ae:59:1a:f0:56:b8:e9:54:93:
         67:66:1f:1c:52:e7:d6:06:ea:3a:9e:bd:b4:fa:63:68:bf:a3:
         f3:78:ce:e1:0e:d6:71:2e:c8:ba:16:a1:42:a9:ff:6c:ba:bd:
         d5:c5:3f:e8:70:4d:28:0b:c1:78:ac:d0:2f:fa:cd:33:6f:0a:
         c4:29:11:37
-----BEGIN CERTIFICATE-----
MIIDZTCCAk2gAwIBAgIBATANBgkqhkiG9w0BAQsFADAPMQ0wCwYDVQQDDARSb290
MB4XDTE1MDEwMTEyMDAwMFoXDTE2MDEwMTEyMDAwMFowDzENMAsGA1UEAwwEUm9v
dDCCASIwDQYJKoZIhvcNAQEBBQADggEPADCCAQoCggEBAPkbfxNCJYPmoyhTKKJC
dtvswB2IPO43rf4kpDcyTDInviUxCgdIf45EJN7s7+PN+PyhfrWVDgMq7gfmivuS
i5JcnFE9lXLrXrXQtAMeJl5N8KDvQXqgJ2+kc7lhBKQhop1nPTStbsQklYW7PDM0
DJGlH/5ea6aPuAwAz+TxxW+zHUkMK/4Hq4zGVVzvRHz5fn2AY5Pmdd0WcskdlccU
tB0Ynv4KyLJ9VQbmi7tQtkbPY1m7Zouut0pNPqR10gAbr4c4/QFtlgoL6C7yrdWo
EHz/2qdiH+uL1muWwQ+aCxtGY+CqVMWw8TGtfCSpJ4Si3waGY0qynLuzP4nUnHr6
kSUCAwEAAaOByzCByDAdBgNVHQ4EFgQUco7ARNUSejJF6ryJGYWElckgrwkwHwYD
VR0jBBgwFoAUco7ARNUSejJF6ryJGYWElckgrwkwNwYIKwYBBQUHAQEEKzApMCcG
CCsGAQUFBzAChhtodHRwOi8vdXJsLWZvci1haWEvUm9vdC5jZXIwLAYDVR0fBCUw
IzAhoB+gHYYbaHR0cDovL3VybC1mb3ItY3JsL1Jvb3QuY3JsMA4GA1UdDwEB/wQE
AwIBBjAPBgNVHRMBAf8EBTADAQH/MA0GCSqGSIb3DQEBCwUAA4IBAQBW1jYUKKU8
7t4OcUOszm5q3cfkNs9F1O55dErD+wVeEZ7PTJmMeKwVIVK/opVj2tno3BZIyVIw
UaP6KkiPKUY4HehjB7a6AKk+z99qKYms0aqYUydLPzbiQ2ADc2pvEO09ev7NdiLP
2al7QBpVyHfFahsOEzebESonB0lfQc4f4l6RJD2h0tmVysHjE3IGk+dIZQGI36VT
dBCtIa1+09euQbHjQqSHq0eKE5eWfLJt5i5Sf2PeSVNRzeFYbMKuWRrwVrjpVJNn
Zh8cUufWBuo6nr20+mNov6PzeM7hDtZxLsi6FqFCqf9sur3VxT/ocE0oC8F4rNAv
+s0zbwrEKRE3
-----END CERTIFICATE-----
