Certificate:
    Data:
        Version: 1 (0x0)
        Serial Number: 2 (0x2)
    Signature Algorithm: sha256WithRSAEncryption
        Issuer: CN=2048 rsa Test intermediate CA
        Validity
            Not Before: Aug 14 02:47:20 2014 GMT
            Not After : Aug 11 02:47:20 2024 GMT
        Subject: C=US, ST=California, L=Mountain View, O=Test CA, CN=127.0.0.1
        Subject Public Key Info:
            Public Key Algorithm: rsaEncryption
                Public-Key: (1024 bit)
                Modulus:
                    00:b5:a6:c6:f7:06:44:0c:36:4e:71:1b:06:14:a0:
                    f5:27:6e:5a:6f:24:a9:e5:8d:2b:f5:fa:34:bf:60:
                    d9:0b:da:34:50:6e:86:b6:e9:00:00:9e:42:f9:bd:
                    7f:52:2e:5b:8c:eb:44:17:e0:d2:e7:d6:f8:88:3c:
                    8a:74:7d:3c:94:fe:74:99:e7:08:d1:2c:40:97:e1:
                    d1:b7:c4:06:94:8e:c0:d0:dc:e6:0f:21:86:1a:31:
                    2a:e3:b3:ba:e9:a5:12:15:0c:ac:60:7c:ec:28:81:
                    bf:f3:bc:5e:b9:bd:3a:10:e5:e5:15:ca:8a:97:ac:
                    cd:8e:02:a1:fa:3f:11:5e:d5
                Exponent: 65537 (0x10001)
        X509v3 extensions:
            X509v3 Subject Alternative Name: 
                IP Address:127.0.0.1
    Signature Algorithm: sha256WithRSAEncryption
         83:e5:48:b9:21:68:aa:88:1e:42:30:99:2b:5f:bd:27:ed:18:
         92:fd:13:10:df:cd:9e:3d:40:9e:1f:b0:9f:7a:c0:35:2a:43:
         22:dd:5e:85:8b:24:d2:fb:b0:c3:a7:5d:d5:a5:b5:b9:1f:8a:
         6d:a6:f3:20:7b:b0:99:e0:b7:8f:6b:e0:b5:41:d4:7e:43:84:
         30:54:7a:5d:ef:d2:66:06:29:55:c9:ac:41:33:ab:2a:3a:66:
         b7:2e:11:99:fa:16:12:77:b3:ab:7a:68:be:a5:d5:1b:1f:11:
         1a:a5:6a:63:fb:f4:4e:00:ee:ef:70:d0:a8:6c:56:0a:d5:43:
         08:c2:9c:8b:e8:e1:4b:e0:9b:9b:32:64:25:ee:71:ce:ec:53:
         52:f3:10:06:e6:21:ed:96:66:cf:83:09:25:e0:e2:19:bd:5b:
         4b:20:3e:6d:bf:ed:db:4a:26:2e:ee:ae:40:b8:21:24:37:6e:
         4c:ab:6d:26:e9:87:76:45:df:3d:67:fa:b3:5c:85:46:26:ce:
         5b:98:c9:31:35:a7:e3:d2:3e:2c:23:ae:dc:2d:87:94:19:01:
         25:ac:37:ee:e3:46:e9:20:fd:5a:4b:97:7c:01:31:e9:32:ac:
         95:85:99:d0:3d:85:0f:7a:83:8e:42:11:35:c2:46:f6:27:0f:
         25:95:92:cf
-----BEGIN CERTIFICATE-----
MIICjTCCAXUCAQIwDQYJKoZIhvcNAQELBQAwKDEmMCQGA1UEAwwdMjA0OCByc2Eg
VGVzdCBpbnRlcm1lZGlhdGUgQ0EwHhcNMTQwODE0MDI0NzIwWhcNMjQwODExMDI0
NzIwWjBgMQswCQYDVQQGEwJVUzETMBEGA1UECAwKQ2FsaWZvcm5pYTEWMBQGA1UE
BwwNTW91bnRhaW4gVmlldzEQMA4GA1UECgwHVGVzdCBDQTESMBAGA1UEAwwJMTI3
LjAuMC4xMIGfMA0GCSqGSIb3DQEBAQUAA4GNADCBiQKBgQC1psb3BkQMNk5xGwYU
oPUnblpvJKnljSv1+jS/YNkL2jRQboa26QAAnkL5vX9SLluM60QX4NLn1viIPIp0
fTyU/nSZ5wjRLECX4dG3xAaUjsDQ3OYPIYYaMSrjs7rppRIVDKxgfOwogb/zvF65
vToQ5eUVyoqXrM2OAqH6PxFe1QIDAQABoxMwETAPBgNVHREECDAGhwR/AAABMA0G
CSqGSIb3DQEBCwUAA4IBAQCD5Ui5IWiqiB5CMJkrX70n7RiS/RMQ382ePUCeH7Cf
esA1KkMi3V6FiyTS+7DDp13VpbW5H4ptpvMge7CZ4LePa+C1QdR+Q4QwVHpd79Jm
BilVyaxBM6sqOma3LhGZ+hYSd7Oremi+pdUbHxEapWpj+/ROAO7vcNCobFYK1UMI
wpyL6OFL4JubMmQl7nHO7FNS8xAG5iHtlmbPgwkl4OIZvVtLID5tv+3bSiYu7q5A
uCEkN25Mq20m6Yd2Rd89Z/qzXIVGJs5bmMkxNafj0j4sI67cLYeUGQElrDfu40bp
IP1aS5d8ATHpMqyVhZnQPYUPeoOOQhE1wkb2Jw8llZLP
-----END CERTIFICATE-----
