Certificate:
    Data:
        Version: 1 (0x0)
        Serial Number: 2 (0x2)
    Signature Algorithm: sha256WithRSAEncryption
        Issuer: CN=1024 rsa Test intermediate CA
        Validity
            Not Before: Aug 14 02:47:20 2014 GMT
            Not After : Aug 11 02:47:20 2024 GMT
        Subject: C=US, ST=California, L=Mountain View, O=Test CA, CN=127.0.0.1
        Subject Public Key Info:
            Public Key Algorithm: rsaEncryption
                Public-Key: (1024 bit)
                Modulus:
                    00:b8:47:d6:b7:60:88:5f:94:b2:17:9b:e5:21:74:
                    97:70:b1:32:fb:23:73:84:f4:32:eb:25:87:2e:33:
                    f4:25:08:5d:c9:1c:6b:ee:98:bc:dd:69:89:41:df:
                    38:13:7c:ed:16:ee:f0:7a:51:33:23:5f:ae:e4:5f:
                    3e:11:54:9f:68:f9:39:c7:6e:1c:76:c8:bd:73:ce:
                    a1:6c:61:5a:70:88:0e:6f:07:85:f2:be:a6:f0:3c:
                    49:5b:f4:bd:28:bb:0e:90:d6:00:1f:3f:5b:00:81:
                    91:64:2e:e6:48:48:5a:e5:99:84:87:44:6f:b5:cc:
                    f5:a6:ed:7a:d5:99:a4:33:41
                Exponent: 65537 (0x10001)
        X509v3 extensions:
            X509v3 Subject Alternative Name: 
                IP Address:127.0.0.1
    Signature Algorithm: sha256WithRSAEncryption
         28:af:b5:69:46:f0:db:43:d1:d1:df:74:6a:52:ef:40:a5:16:
         e5:a5:6b:cf:e8:5d:1f:bb:40:2c:74:7f:e5:a4:a4:92:d3:08:
         de:c4:8f:4d:ad:0f:db:93:89:5b:39:31:67:6c:f1:10:c9:0f:
         8b:e8:8c:9b:80:fd:2f:b7:a0:87:d2:a8:e3:23:db:63:6c:66:
         81:41:e7:84:dc:27:d0:7d:27:b5:57:5d:cb:d0:36:e6:91:ce:
         e7:ce:0b:28:62:e4:f1:3b:ca:9a:46:ed:9d:50:77:d3:d9:c5:
         83:88:23:b0:49:c3:13:36:82:4e:ca:0f:18:b1:06:38:37:5e:
         ec:16
-----BEGIN CERTIFICATE-----
MIICDDCCAXUCAQIwDQYJKoZIhvcNAQELBQAwKDEmMCQGA1UEAwwdMTAyNCByc2Eg
VGVzdCBpbnRlcm1lZGlhdGUgQ0EwHhcNMTQwODE0MDI0NzIwWhcNMjQwODExMDI0
NzIwWjBgMQswCQYDVQQGEwJVUzETMBEGA1UECAwKQ2FsaWZvcm5pYTEWMBQGA1UE
BwwNTW91bnRhaW4gVmlldzEQMA4GA1UECgwHVGVzdCBDQTESMBAGA1UEAwwJMTI3
LjAuMC4xMIGfMA0GCSqGSIb3DQEBAQUAA4GNADCBiQKBgQC4R9a3YIhflLIXm+Uh
dJdwsTL7I3OE9DLrJYcuM/QlCF3JHGvumLzdaYlB3zgTfO0W7vB6UTMjX67kXz4R
VJ9o+TnHbhx2yL1zzqFsYVpwiA5vB4XyvqbwPElb9L0ouw6Q1gAfP1sAgZFkLuZI
SFrlmYSHRG+1zPWm7XrVmaQzQQIDAQABoxMwETAPBgNVHREECDAGhwR/AAABMA0G
CSqGSIb3DQEBCwUAA4GBACivtWlG8NtD0dHfdGpS70ClFuWla8/oXR+7QCx0f+Wk
pJLTCN7Ej02tD9uTiVs5MWds8RDJD4vojJuA/S+3oIfSqOMj22NsZoFB54TcJ9B9
J7VXXcvQNuaRzufOCyhi5PE7yppG7Z1Qd9PZxYOII7BJwxM2gk7KDxixBjg3XuwW
-----END CERTIFICATE-----
