Certificate:
    Data:
        Version: 3 (0x2)
        Serial Number: 2 (0x2)
    Signature Algorithm: sha256WithRSAEncryption
        Issuer: CN=2048 RSA Test Root CA
        Validity
            Not Before: Aug 14 02:47:20 2014 GMT
            Not After : Aug 11 02:47:20 2024 GMT
        Subject: CN=1024 rsa Test intermediate CA
        Subject Public Key Info:
            Public Key Algorithm: rsaEncryption
                Public-Key: (1024 bit)
                Modulus:
                    00:bc:b1:ca:1b:3e:1b:f8:a0:c9:b1:87:d6:1e:e2:
                    f2:17:8b:d6:ef:69:af:ff:7d:9e:5e:73:32:75:40:
                    cd:df:37:07:71:3e:ba:c3:55:24:12:4d:e5:38:28:
                    34:c4:ef:fd:dd:18:a3:26:87:9c:0d:0a:05:ba:c4:
                    90:2a:69:b2:68:15:f0:99:79:d5:cc:a1:38:f0:2e:
                    3e:f7:41:39:48:71:17:0d:3d:3d:e2:07:9f:cb:0a:
                    e3:83:ef:91:0c:ac:d7:4a:f3:58:61:9a:38:91:06:
                    9a:8c:6b:09:83:6c:98:be:e4:e1:d0:fc:20:d7:05:
                    bc:eb:4d:c0:3b:2f:31:11:d7
                Exponent: 65537 (0x10001)
        X509v3 extensions:
            X509v3 Basic Constraints: critical
                CA:TRUE
            X509v3 Subject Key Identifier: 
                35:63:02:EF:1B:6E:07:8F:BF:86:5B:C0:B1:54:0F:67:B7:EB:6D:FA
            X509v3 Key Usage: critical
                Certificate Sign, CRL Sign
    Signature Algorithm: sha256WithRSAEncryption
         62:6f:54:44:e1:59:ca:9b:b6:d6:26:81:e7:14:6a:ce:59:a4:
         14:9b:2d:4b:a8:44:c9:04:c1:5f:a0:46:6a:dc:47:d9:be:aa:
         b5:d6:10:0d:6f:3b:62:8c:ea:f5:9a:75:c7:9e:be:05:7f:b0:
         90:ed:fa:9e:01:63:61:29:f3:ce:f1:0b:ac:97:80:a6:63:c8:
         b1:8d:ba:4f:96:16:01:6f:14:33:b0:0c:f7:79:8c:90:25:1f:
         2f:54:91:67:9a:7e:f1:dd:cd:6c:10:56:06:4a:55:7f:3c:3e:
         7e:e0:35:f1:40:54:0a:1a:23:ef:0d:8a:68:dd:1d:d1:10:f5:
         b4:d7:82:45:ac:c5:83:31:c1:df:a9:d3:c1:c7:b3:ce:16:77:
         ca:84:db:c0:d9:07:80:bc:6a:b7:bf:d2:24:f2:e5:83:d0:1e:
         ca:d9:ff:f3:3a:3b:91:f9:81:b3:bb:91:22:71:9f:14:af:02:
         c7:78:7d:5b:17:5f:62:3c:20:cd:61:fb:b3:45:c6:fb:8f:83:
         b7:11:5a:4e:5d:79:f7:c8:13:be:88:91:5a:88:a8:1d:bd:93:
         04:89:47:5d:77:28:0b:4e:25:9b:20:f7:4a:35:eb:e9:52:dd:
         96:11:cb:aa:2b:45:b8:5b:69:74:7c:90:a0:2b:33:3d:60:5f:
         51:28:31:5b
-----BEGIN CERTIFICATE-----
MIICgTCCAWmgAwIBAgIBAjANBgkqhkiG9w0BAQsFADAgMR4wHAYDVQQDDBUyMDQ4
IFJTQSBUZXN0IFJvb3QgQ0EwHhcNMTQwODE0MDI0NzIwWhcNMjQwODExMDI0NzIw
WjAoMSYwJAYDVQQDDB0xMDI0IHJzYSBUZXN0IGludGVybWVkaWF0ZSBDQTCBnzAN
BgkqhkiG9w0BAQEFAAOBjQAwgYkCgYEAvLHKGz4b+KDJsYfWHuLyF4vW72mv/32e
XnMydUDN3zcHcT66w1UkEk3lOCg0xO/93RijJoecDQoFusSQKmmyaBXwmXnVzKE4
8C4+90E5SHEXDT094gefywrjg++RDKzXSvNYYZo4kQaajGsJg2yYvuTh0Pwg1wW8
603AOy8xEdcCAwEAAaNCMEAwDwYDVR0TAQH/BAUwAwEB/zAdBgNVHQ4EFgQUNWMC
7xtuB4+/hlvAsVQPZ7frbfowDgYDVR0PAQH/BAQDAgEGMA0GCSqGSIb3DQEBCwUA
A4IBAQBib1RE4VnKm7bWJoHnFGrOWaQUmy1LqETJBMFfoEZq3EfZvqq11hANbzti
jOr1mnXHnr4Ff7CQ7fqeAWNhKfPO8Qusl4CmY8ixjbpPlhYBbxQzsAz3eYyQJR8v
VJFnmn7x3c1sEFYGSlV/PD5+4DXxQFQKGiPvDYpo3R3REPW014JFrMWDMcHfqdPB
x7POFnfKhNvA2QeAvGq3v9Ik8uWD0B7K2f/zOjuR+YGzu5EicZ8UrwLHeH1bF19i
PCDNYfuzRcb7j4O3EVpOXXn3yBO+iJFaiKgdvZMEiUdddygLTiWbIPdKNevpUt2W
EcuqK0W4W2l0fJCgKzM9YF9RKDFb
-----END CERTIFICATE-----
