Certificate:
    Data:
        Version: 1 (0x0)
        Serial Number: 2 (0x2)
    Signature Algorithm: ecdsa-with-SHA256
        Issuer: CN=prime256v1 ecdsa Test intermediate CA
        Validity
            Not Before: Aug 14 02:47:21 2014 GMT
            Not After : Aug 11 02:47:21 2024 GMT
        Subject: C=US, ST=California, L=Mountain View, O=Test CA, CN=127.0.0.1
        Subject Public Key Info:
            Public Key Algorithm: rsaEncryption
                Public-Key: (1024 bit)
                Modulus:
                    00:d7:11:5d:04:7a:29:ba:1a:1d:91:70:b8:ce:ff:
                    8e:f8:17:7f:85:0e:78:e0:43:93:40:ae:75:fd:7d:
                    fa:c1:c6:76:d8:be:6f:fc:0b:2f:b4:6e:34:65:88:
                    2c:e5:4d:a2:07:ca:d9:4e:d5:d1:f9:0d:f2:e2:d5:
                    3f:df:5c:9d:9e:84:c9:d1:f4:c1:8e:ab:1a:49:20:
                    e6:88:b6:d3:fd:b3:5e:81:af:55:36:2c:a1:72:af:
                    8a:16:97:29:25:51:3e:7b:37:85:b4:ae:fb:c7:16:
                    a5:38:ff:4e:7c:dd:21:d7:32:42:9f:05:07:7c:6d:
                    bf:85:02:33:ca:1c:c7:23:cd
                Exponent: 65537 (0x10001)
        X509v3 extensions:
            X509v3 Subject Alternative Name: 
                IP Address:127.0.0.1
    Signature Algorithm: ecdsa-with-SHA256
         30:43:02:1f:48:3d:18:92:a1:85:1f:bb:64:1a:b9:43:7c:89:
         a3:9c:7c:9c:a2:3e:e0:cb:bb:8a:87:2f:99:5d:b7:79:b5:02:
         20:73:69:6d:79:83:3c:30:6d:6c:5b:29:a5:85:53:28:4b:ea:
         4e:75:5c:c7:a8:dc:1f:e2:97:de:10:5b:57:af:78
-----BEGIN CERTIFICATE-----
MIIB0jCCAXoCAQIwCgYIKoZIzj0EAwIwMDEuMCwGA1UEAwwlcHJpbWUyNTZ2MSBl
Y2RzYSBUZXN0IGludGVybWVkaWF0ZSBDQTAeFw0xNDA4MTQwMjQ3MjFaFw0yNDA4
MTEwMjQ3MjFaMGAxCzAJBgNVBAYTAlVTMRMwEQYDVQQIDApDYWxpZm9ybmlhMRYw
FAYDVQQHDA1Nb3VudGFpbiBWaWV3MRAwDgYDVQQKDAdUZXN0IENBMRIwEAYDVQQD
DAkxMjcuMC4wLjEwgZ8wDQYJKoZIhvcNAQEBBQADgY0AMIGJAoGBANcRXQR6Kboa
HZFwuM7/jvgXf4UOeOBDk0Cudf19+sHGdti+b/wLL7RuNGWILOVNogfK2U7V0fkN
8uLVP99cnZ6EydH0wY6rGkkg5oi20/2zXoGvVTYsoXKvihaXKSVRPns3hbSu+8cW
pTj/TnzdIdcyQp8FB3xtv4UCM8ocxyPNAgMBAAGjEzARMA8GA1UdEQQIMAaHBH8A
AAEwCgYIKoZIzj0EAwIDRgAwQwIfSD0YkqGFH7tkGrlDfImjnHycoj7gy7uKhy+Z
Xbd5tQIgc2lteYM8MG1sWymlhVMoS+pOdVzHqNwf4pfeEFtXr3g=
-----END CERTIFICATE-----
