Certificate:
    Data:
        Version: 1 (0x0)
        Serial Number: 2 (0x2)
    Signature Algorithm: sha256WithRSAEncryption
        Issuer: CN=768 rsa Test intermediate CA
        Validity
            Not Before: Aug 14 02:47:20 2014 GMT
            Not After : Aug 11 02:47:20 2024 GMT
        Subject: C=US, ST=California, L=Mountain View, O=Test CA, CN=127.0.0.1
        Subject Public Key Info:
            Public Key Algorithm: rsaEncryption
                Public-Key: (1024 bit)
                Modulus:
                    00:d9:85:9c:5a:f9:cf:c6:34:27:47:d7:cc:3f:c6:
                    7b:33:6f:a7:d8:68:0e:58:8f:ce:2b:a8:3c:fd:2a:
                    b0:34:46:22:63:96:a5:16:aa:98:04:f8:9f:3d:79:
                    fb:71:93:8b:84:74:48:a6:fc:73:dc:da:a1:bb:b9:
                    bb:b3:2b:3c:aa:10:96:54:42:55:e5:92:96:9c:6c:
                    f6:b2:f0:20:d2:22:e0:7a:2f:4f:41:ea:50:09:39:
                    7a:b2:71:19:87:60:c1:1d:53:3e:e1:4a:7c:ea:52:
                    bc:52:db:9f:9c:86:ee:6f:1c:00:a6:00:6b:ce:ee:
                    96:fc:52:cb:09:44:25:bc:d1
                Exponent: 65537 (0x10001)
        X509v3 extensions:
            X509v3 Subject Alternative Name: 
                IP Address:127.0.0.1
    Signature Algorithm: sha256WithRSAEncryption
         a1:7c:6c:cb:cb:1e:ea:13:34:74:83:30:d2:07:ba:a0:86:09:
         fb:ef:72:62:9a:72:3c:c4:9d:34:2d:fd:ee:cf:c5:4a:3a:20:
         7e:dd:fa:32:7d:86:bd:b1:5e:14:73:e0:2b:72:a3:d9:b1:3d:
         25:10:fc:ef:70:bb:ce:70:b7:b2:06:8d:0a:15:32:a9:f0:e8:
         27:27:9c:ad:2b:24:58:d1:df:92:23:c4:d1:99:22:b2:01:fe:
         71:cc:8d:3b:0e:e2
-----BEGIN CERTIFICATE-----
MIIB6jCCAXQCAQIwDQYJKoZIhvcNAQELBQAwJzElMCMGA1UEAwwcNzY4IHJzYSBU
ZXN0IGludGVybWVkaWF0ZSBDQTAeFw0xNDA4MTQwMjQ3MjBaFw0yNDA4MTEwMjQ3
MjBaMGAxCzAJBgNVBAYTAlVTMRMwEQYDVQQIDApDYWxpZm9ybmlhMRYwFAYDVQQH
DA1Nb3VudGFpbiBWaWV3MRAwDgYDVQQKDAdUZXN0IENBMRIwEAYDVQQDDAkxMjcu
MC4wLjEwgZ8wDQYJKoZIhvcNAQEBBQADgY0AMIGJAoGBANmFnFr5z8Y0J0fXzD/G
ezNvp9hoDliPziuoPP0qsDRGImOWpRaqmAT4nz15+3GTi4R0SKb8c9zaobu5u7Mr
PKoQllRCVeWSlpxs9rLwINIi4HovT0HqUAk5erJxGYdgwR1TPuFKfOpSvFLbn5yG
7m8cAKYAa87ulvxSywlEJbzRAgMBAAGjEzARMA8GA1UdEQQIMAaHBH8AAAEwDQYJ
KoZIhvcNAQELBQADYQChfGzLyx7qEzR0gzDSB7qghgn773JimnI8xJ00Lf3uz8VK
OiB+3foyfYa9sV4Uc+ArcqPZsT0lEPzvcLvOcLeyBo0KFTKp8OgnJ5ytKyRY0d+S
I8TRmSKyAf5xzI07DuI=
-----END CERTIFICATE-----
