Certificate:
    Data:
        Version: 1 (0x0)
        Serial Number: 3 (0x3)
    Signature Algorithm: sha256WithRSAEncryption
        Issuer: CN=768 rsa Test intermediate CA
        Validity
            Not Before: Aug 14 02:47:21 2014 GMT
            Not After : Aug 11 02:47:21 2024 GMT
        Subject: C=US, ST=California, L=Mountain View, O=Test CA, CN=127.0.0.1
        Subject Public Key Info:
            Public Key Algorithm: rsaEncryption
                Public-Key: (2048 bit)
                Modulus:
                    00:b7:4e:8d:88:5b:36:eb:14:fa:f0:39:0c:91:0d:
                    0b:89:ae:2a:1c:a4:4e:40:8a:d8:f9:4e:a3:fb:b1:
                    3b:de:aa:cc:16:9a:76:b3:34:c7:3b:2b:24:e8:86:
                    ab:fc:e5:48:c0:1f:d1:78:8a:6f:08:b6:21:1a:bf:
                    61:0f:5e:f2:4f:b0:34:54:c9:d2:f2:01:a9:de:75:
                    82:5a:7f:3d:6a:6f:15:f4:11:c1:62:e4:a4:6b:6c:
                    10:fe:07:7b:51:fc:a7:e4:1b:d6:8f:f0:da:ae:d1:
                    66:af:bb:16:ba:8d:36:41:dd:73:b9:8b:dd:4f:fa:
                    66:56:61:4d:8a:04:45:c2:49:84:ff:01:a6:0c:05:
                    8d:1a:cf:dc:11:c9:c3:35:5e:90:ee:c0:b6:60:9a:
                    cd:e1:71:a5:1f:8d:45:4e:23:33:a6:4f:ea:4c:ae:
                    a0:69:7e:97:71:2a:92:85:13:f2:20:54:11:33:78:
                    87:a9:28:30:45:05:ac:f9:89:db:18:3d:81:4a:e3:
                    92:8c:02:17:11:69:86:a1:d0:e5:f5:a8:07:4f:09:
                    04:96:6f:2c:7e:f2:e9:66:b4:2d:e3:52:23:7b:f8:
                    25:0a:af:46:ba:1b:28:87:5a:3d:5d:5e:66:15:29:
                    fa:aa:c4:ee:87:0e:bd:d4:d7:4e:5d:d5:b0:14:02:
                    d9:f3
                Exponent: 65537 (0x10001)
        X509v3 extensions:
            X509v3 Subject Alternative Name: 
                IP Address:127.0.0.1
    Signature Algorithm: sha256WithRSAEncryption
         3d:49:71:c0:d6:fe:08:5e:27:a8:a4:4d:04:5a:8e:15:16:1d:
         1e:1f:51:f7:f2:db:db:f1:e8:a5:26:f3:6f:d9:03:5f:b3:b0:
         55:b5:7c:93:33:a2:48:ba:30:0a:70:e0:cf:e2:d6:7f:38:15:
         f7:08:c8:25:b0:bb:f3:b5:5e:73:80:77:28:21:c3:66:ca:4c:
         c9:e3:a6:b8:4c:43:5b:15:43:c4:9a:c4:2d:49:f9:83:73:3b:
         0a:ca:59:a3:4e:05
-----BEGIN CERTIFICATE-----
MIICbjCCAfgCAQMwDQYJKoZIhvcNAQELBQAwJzElMCMGA1UEAwwcNzY4IHJzYSBU
ZXN0IGludGVybWVkaWF0ZSBDQTAeFw0xNDA4MTQwMjQ3MjFaFw0yNDA4MTEwMjQ3
MjFaMGAxCzAJBgNVBAYTAlVTMRMwEQYDVQQIDApDYWxpZm9ybmlhMRYwFAYDVQQH
DA1Nb3VudGFpbiBWaWV3MRAwDgYDVQQKDAdUZXN0IENBMRIwEAYDVQQDDAkxMjcu
MC4wLjEwggEiMA0GCSqGSIb3DQEBAQUAA4IBDwAwggEKAoIBAQC3To2IWzbrFPrw
OQyRDQuJriocpE5Aitj5TqP7sTveqswWmnazNMc7KyTohqv85UjAH9F4im8ItiEa
v2EPXvJPsDRUydLyAanedYJafz1qbxX0EcFi5KRrbBD+B3tR/KfkG9aP8Nqu0Wav
uxa6jTZB3XO5i91P+mZWYU2KBEXCSYT/AaYMBY0az9wRycM1XpDuwLZgms3hcaUf
jUVOIzOmT+pMrqBpfpdxKpKFE/IgVBEzeIepKDBFBaz5idsYPYFK45KMAhcRaYah
0OX1qAdPCQSWbyx+8ulmtC3jUiN7+CUKr0a6GyiHWj1dXmYVKfqqxO6HDr3U105d
1bAUAtnzAgMBAAGjEzARMA8GA1UdEQQIMAaHBH8AAAEwDQYJKoZIhvcNAQELBQAD
YQA9SXHA1v4IXieopE0EWo4VFh0eH1H38tvb8eilJvNv2QNfs7BVtXyTM6JIujAK
cODP4tZ/OBX3CMglsLvztV5zgHcoIcNmykzJ46a4TENbFUPEmsQtSfmDczsKylmj
TgU=
-----END CERTIFICATE-----
