Certificate:
    Data:
        Version: 1 (0x0)
        Serial Number: 3 (0x3)
    Signature Algorithm: sha256WithRSAEncryption
        Issuer: CN=2048 rsa Test intermediate CA
        Validity
            Not Before: Aug 14 02:47:21 2014 GMT
            Not After : Aug 11 02:47:21 2024 GMT
        Subject: C=US, ST=California, L=Mountain View, O=Test CA, CN=127.0.0.1
        Subject Public Key Info:
            Public Key Algorithm: rsaEncryption
                Public-Key: (2048 bit)
                Modulus:
                    00:d6:53:f9:a6:82:3a:36:9d:13:db:bc:53:63:40:
                    8e:23:a9:31:f3:e7:72:2f:20:c1:49:f9:6e:03:65:
                    9d:f9:d9:e8:35:b9:9c:dc:d5:b2:dc:ac:e4:da:42:
                    4e:82:8e:22:11:31:03:e4:ad:a7:66:64:f6:f6:de:
                    64:a8:ce:43:f9:ba:53:3d:94:4f:ae:db:35:4a:3a:
                    9a:e9:8d:2d:9a:f1:46:6a:d2:61:a8:8f:2f:6a:a4:
                    cd:b6:62:5b:d5:e0:48:d9:c4:43:10:fb:a5:53:f5:
                    25:c6:75:f6:7a:21:fd:29:79:df:0a:b6:20:b1:90:
                    f2:b4:8c:0b:34:4d:07:c4:7c:98:08:a8:30:ca:46:
                    03:07:33:d0:c3:60:49:14:b2:f6:4c:1f:d8:e0:b5:
                    ee:dd:ef:3d:94:ae:54:eb:96:8b:ce:39:32:09:8f:
                    9e:6b:81:57:c8:ae:3a:49:06:ef:e2:46:e7:f5:13:
                    d8:b0:2e:09:5e:16:f6:4f:10:54:27:46:df:16:32:
                    c9:76:0f:dd:11:2e:89:1f:76:9d:d3:98:cb:eb:f0:
                    9e:e0:9a:c3:65:93:cc:c2:02:e3:b1:dc:0c:aa:24:
                    df:3f:8c:53:84:e3:b4:27:75:b7:b1:6f:97:94:3c:
                    a3:5b:2b:a3:57:5b:63:9e:b0:82:da:a3:7c:ee:e7:
                    65:d7
                Exponent: 65537 (0x10001)
        X509v3 extensions:
            X509v3 Subject Alternative Name: 
                IP Address:127.0.0.1
    Signature Algorithm: sha256WithRSAEncryption
         a2:9f:a4:65:86:d1:be:d4:bd:e5:dd:76:aa:24:d6:cd:e0:2b:
         32:b4:99:5c:5f:15:02:30:d5:33:c0:c8:a4:92:e2:0c:be:bc:
         e4:a7:06:4d:ef:e0:5f:3a:0a:20:28:ba:2a:0d:4f:91:7e:2c:
         d1:d8:ca:40:20:33:a2:a6:d1:46:7a:6f:ac:f5:ee:41:d1:90:
         d3:03:e2:ae:7c:53:6d:48:a2:06:a4:9a:b2:f3:0b:ff:fb:11:
         22:07:cc:70:d1:a6:fc:d8:18:5c:d2:7f:5d:41:0a:cd:5b:50:
         4e:f0:53:9e:7a:8a:f6:7a:e3:2e:02:93:d9:44:97:a7:71:f6:
         90:50:76:91:20:b5:20:aa:07:a7:cf:06:81:64:39:3c:d1:09:
         f0:12:87:56:27:5d:8f:59:f7:8a:bb:8b:07:d7:6a:37:e8:e7:
         09:2a:97:c4:61:71:b8:7e:1f:e5:5f:37:a4:0d:f6:2a:69:4a:
         a3:3d:f2:7d:c5:9d:ba:70:1f:94:d4:03:a7:4e:86:a6:c2:0a:
         d7:0a:ac:a1:00:4e:84:df:5c:ed:cf:ff:45:53:50:30:69:c0:
         e9:1d:83:4a:02:a7:0b:bb:55:29:8a:71:5d:8d:60:22:fc:05:
         ed:d7:64:79:cb:95:fe:2c:28:ab:0f:ee:32:c0:2f:6c:05:c5:
         61:c2:3a:c6
-----BEGIN CERTIFICATE-----
MIIDETCCAfkCAQMwDQYJKoZIhvcNAQELBQAwKDEmMCQGA1UEAwwdMjA0OCByc2Eg
VGVzdCBpbnRlcm1lZGlhdGUgQ0EwHhcNMTQwODE0MDI0NzIxWhcNMjQwODExMDI0
NzIxWjBgMQswCQYDVQQGEwJVUzETMBEGA1UECAwKQ2FsaWZvcm5pYTEWMBQGA1UE
BwwNTW91bnRhaW4gVmlldzEQMA4GA1UECgwHVGVzdCBDQTESMBAGA1UEAwwJMTI3
LjAuMC4xMIIBIjANBgkqhkiG9w0BAQEFAAOCAQ8AMIIBCgKCAQEA1lP5poI6Np0T
27xTY0COI6kx8+dyLyDBSfluA2Wd+dnoNbmc3NWy3Kzk2kJOgo4iETED5K2nZmT2
9t5kqM5D+bpTPZRPrts1Sjqa6Y0tmvFGatJhqI8vaqTNtmJb1eBI2cRDEPulU/Ul
xnX2eiH9KXnfCrYgsZDytIwLNE0HxHyYCKgwykYDBzPQw2BJFLL2TB/Y4LXu3e89
lK5U65aLzjkyCY+ea4FXyK46SQbv4kbn9RPYsC4JXhb2TxBUJ0bfFjLJdg/dES6J
H3ad05jL6/Ce4JrDZZPMwgLjsdwMqiTfP4xThOO0J3W3sW+XlDyjWyujV1tjnrCC
2qN87udl1wIDAQABoxMwETAPBgNVHREECDAGhwR/AAABMA0GCSqGSIb3DQEBCwUA
A4IBAQCin6RlhtG+1L3l3XaqJNbN4CsytJlcXxUCMNUzwMikkuIMvrzkpwZN7+Bf
OgogKLoqDU+RfizR2MpAIDOiptFGem+s9e5B0ZDTA+KufFNtSKIGpJqy8wv/+xEi
B8xw0ab82Bhc0n9dQQrNW1BO8FOeeor2euMuApPZRJencfaQUHaRILUgqgenzwaB
ZDk80QnwEodWJ12PWfeKu4sH12o36OcJKpfEYXG4fh/lXzekDfYqaUqjPfJ9xZ26
cB+U1AOnToamwgrXCqyhAE6E31ztz/9FU1AwacDpHYNKAqcLu1UpinFdjWAi/AXt
12R5y5X+LCirD+4ywC9sBcVhwjrG
-----END CERTIFICATE-----
