Certificate:
    Data:
        Version: 1 (0x0)
        Serial Number: 3 (0x3)
    Signature Algorithm: ecdsa-with-SHA256
        Issuer: CN=prime256v1 ecdsa Test intermediate CA
        Validity
            Not Before: Aug 14 02:47:21 2014 GMT
            Not After : Aug 11 02:47:21 2024 GMT
        Subject: C=US, ST=California, L=Mountain View, O=Test CA, CN=127.0.0.1
        Subject Public Key Info:
            Public Key Algorithm: rsaEncryption
                Public-Key: (2048 bit)
                Modulus:
                    00:be:62:55:d9:e1:04:3b:1d:4c:2e:0d:2f:dc:8d:
                    79:ed:66:e3:dd:04:ef:b2:51:91:1f:3f:8b:f9:89:
                    0d:cf:09:29:06:54:50:d0:fa:29:9d:4f:bb:80:ec:
                    00:ed:2b:c4:bd:d1:9b:ff:36:fd:9a:76:41:49:98:
                    e0:ad:49:fd:03:d1:90:74:db:6c:37:fb:fc:55:6c:
                    08:4d:de:2e:67:a5:8d:9f:5c:48:5f:c9:7b:f9:73:
                    aa:9d:f6:32:05:63:2e:53:0d:3d:47:92:29:58:aa:
                    36:74:41:1f:80:db:69:bf:1a:0f:1d:0c:a6:40:27:
                    71:c4:df:cf:e7:c9:c2:c6:86:47:03:d4:93:6e:74:
                    f3:11:70:1e:d9:4e:73:60:e5:85:49:41:ff:e3:8d:
                    7d:9d:cd:77:40:a9:72:c2:c0:91:bb:bc:62:07:b7:
                    00:78:95:23:55:92:6b:71:b5:df:cc:53:68:47:45:
                    5b:c0:7a:ed:b5:d8:dd:c7:b3:3b:87:ef:19:8d:bf:
                    0e:ab:11:35:ea:cb:f9:b8:1f:aa:c6:3e:87:8e:d4:
                    d1:e0:3a:2f:69:4c:f9:c3:84:2c:7c:a1:82:ca:b3:
                    05:31:d2:91:6a:73:21:38:0c:61:c8:57:3d:71:01:
                    b5:a7:36:50:cd:97:6e:da:93:b0:c7:47:cc:c3:94:
                    b1:8b
                Exponent: 65537 (0x10001)
        X509v3 extensions:
            X509v3 Subject Alternative Name: 
                IP Address:127.0.0.1
    Signature Algorithm: ecdsa-with-SHA256
         30:46:02:21:00:84:38:9b:2e:ce:b0:63:69:ea:52:fe:c9:3d:
         44:1d:db:77:b5:9e:81:f1:ec:22:70:cd:0d:fc:d5:ad:b7:e9:
         ce:02:21:00:ff:de:1a:58:ab:80:e9:98:f2:ca:9b:ce:70:c3:
         26:73:d0:ed:9e:88:b7:7e:fa:2f:31:bb:7a:1c:19:93:6a:08
-----BEGIN CERTIFICATE-----
MIICWTCCAf4CAQMwCgYIKoZIzj0EAwIwMDEuMCwGA1UEAwwlcHJpbWUyNTZ2MSBl
Y2RzYSBUZXN0IGludGVybWVkaWF0ZSBDQTAeFw0xNDA4MTQwMjQ3MjFaFw0yNDA4
MTEwMjQ3MjFaMGAxCzAJBgNVBAYTAlVTMRMwEQYDVQQIDApDYWxpZm9ybmlhMRYw
FAYDVQQHDA1Nb3VudGFpbiBWaWV3MRAwDgYDVQQKDAdUZXN0IENBMRIwEAYDVQQD
DAkxMjcuMC4wLjEwggEiMA0GCSqGSIb3DQEBAQUAA4IBDwAwggEKAoIBAQC+YlXZ
4QQ7HUwuDS/cjXntZuPdBO+yUZEfP4v5iQ3PCSkGVFDQ+imdT7uA7ADtK8S90Zv/
Nv2adkFJmOCtSf0D0ZB022w3+/xVbAhN3i5npY2fXEhfyXv5c6qd9jIFYy5TDT1H
kilYqjZ0QR+A22m/Gg8dDKZAJ3HE38/nycLGhkcD1JNudPMRcB7ZTnNg5YVJQf/j
jX2dzXdAqXLCwJG7vGIHtwB4lSNVkmtxtd/MU2hHRVvAeu212N3HszuH7xmNvw6r
ETXqy/m4H6rGPoeO1NHgOi9pTPnDhCx8oYLKswUx0pFqcyE4DGHIVz1xAbWnNlDN
l27ak7DHR8zDlLGLAgMBAAGjEzARMA8GA1UdEQQIMAaHBH8AAAEwCgYIKoZIzj0E
AwIDSQAwRgIhAIQ4my7OsGNp6lL+yT1EHdt3tZ6B8ewicM0N/NWtt+nOAiEA/94a
WKuA6ZjyypvOcMMmc9Dtnoi3fvovMbt6HBmTagg=
-----END CERTIFICATE-----
