Certificate:
    Data:
        Version: 1 (0x0)
        Serial Number: 3 (0x3)
    Signature Algorithm: sha256WithRSAEncryption
        Issuer: CN=1024 rsa Test intermediate CA
        Validity
            Not Before: Aug 14 02:47:21 2014 GMT
            Not After : Aug 11 02:47:21 2024 GMT
        Subject: C=US, ST=California, L=Mountain View, O=Test CA, CN=127.0.0.1
        Subject Public Key Info:
            Public Key Algorithm: rsaEncryption
                Public-Key: (2048 bit)
                Modulus:
                    00:a7:7d:a3:74:e2:4d:23:7f:2d:e8:bd:c7:18:78:
                    89:17:07:66:d8:29:70:34:51:90:84:3f:0b:01:0a:
                    43:f2:4b:3f:75:da:b0:6d:7b:32:1b:5f:37:2b:9b:
                    8a:70:b3:c0:66:48:d4:67:0d:21:8a:9f:c4:3a:25:
                    8d:79:b3:d1:8e:c2:4c:cf:2f:2e:c5:c9:e1:5a:94:
                    2e:4e:4a:14:2e:69:1a:67:fc:6d:ee:68:95:28:a8:
                    bc:99:ff:56:17:c2:5e:f1:12:0b:9a:23:03:30:d9:
                    68:67:fb:58:d5:50:20:b5:2d:6e:b1:5a:7a:42:00:
                    86:be:3e:6e:11:9c:8e:20:dd:35:53:63:45:06:b4:
                    85:ea:d6:65:50:5e:80:08:a4:da:00:7c:e6:0f:03:
                    10:bf:e5:a7:7d:26:99:d9:1d:b9:f1:d7:75:62:49:
                    ac:a0:1b:fa:1e:ad:90:01:f1:d9:39:33:3c:c2:8e:
                    a6:7f:68:ec:57:aa:98:1a:6c:af:3c:ab:96:99:60:
                    6c:cd:39:3a:57:e3:44:89:3d:ea:8d:75:36:d5:0d:
                    68:18:de:f8:e6:89:b2:af:5c:ab:bd:2b:0e:d2:e8:
                    9f:67:3a:3b:0c:17:22:2c:ff:e9:fc:11:26:35:70:
                    84:ce:bd:3d:dc:ab:a4:b6:67:4e:04:c1:38:21:b1:
                    fa:4f
                Exponent: 65537 (0x10001)
        X509v3 extensions:
            X509v3 Subject Alternative Name: 
                IP Address:127.0.0.1
    Signature Algorithm: sha256WithRSAEncryption
         29:5d:8c:f2:97:8a:f6:f5:f0:8a:da:8b:96:2d:fc:9f:78:73:
         85:6e:b6:6b:6b:18:b0:86:bc:a2:22:98:f8:73:69:31:c3:33:
         08:d8:ef:7e:6d:98:fa:7b:6d:1d:6f:6b:66:b0:5a:77:e0:fd:
         dc:01:6e:59:ee:3f:cd:2b:a1:8e:2b:65:4a:d4:bc:38:34:af:
         c9:21:68:56:7a:f5:a7:31:f3:34:02:27:df:e2:38:3f:fd:23:
         38:ab:5c:60:4c:e6:17:9b:a5:b7:5c:56:95:22:c8:0b:7d:79:
         3d:a5:ca:be:0c:b9:37:66:26:97:f3:38:24:ce:0f:e7:7d:4c:
         40:af
-----BEGIN CERTIFICATE-----
MIICkDCCAfkCAQMwDQYJKoZIhvcNAQELBQAwKDEmMCQGA1UEAwwdMTAyNCByc2Eg
VGVzdCBpbnRlcm1lZGlhdGUgQ0EwHhcNMTQwODE0MDI0NzIxWhcNMjQwODExMDI0
NzIxWjBgMQswCQYDVQQGEwJVUzETMBEGA1UECAwKQ2FsaWZvcm5pYTEWMBQGA1UE
BwwNTW91bnRhaW4gVmlldzEQMA4GA1UECgwHVGVzdCBDQTESMBAGA1UEAwwJMTI3
LjAuMC4xMIIBIjANBgkqhkiG9w0BAQEFAAOCAQ8AMIIBCgKCAQEAp32jdOJNI38t
6L3HGHiJFwdm2ClwNFGQhD8LAQpD8ks/ddqwbXsyG183K5uKcLPAZkjUZw0hip/E
OiWNebPRjsJMzy8uxcnhWpQuTkoULmkaZ/xt7miVKKi8mf9WF8Je8RILmiMDMNlo
Z/tY1VAgtS1usVp6QgCGvj5uEZyOIN01U2NFBrSF6tZlUF6ACKTaAHzmDwMQv+Wn
fSaZ2R258dd1YkmsoBv6Hq2QAfHZOTM8wo6mf2jsV6qYGmyvPKuWmWBszTk6V+NE
iT3qjXU21Q1oGN745omyr1yrvSsO0uifZzo7DBciLP/p/BEmNXCEzr093KuktmdO
BME4IbH6TwIDAQABoxMwETAPBgNVHREECDAGhwR/AAABMA0GCSqGSIb3DQEBCwUA
A4GBACldjPKXivb18Irai5Yt/J94c4VutmtrGLCGvKIimPhzaTHDMwjY735tmPp7
bR1va2awWnfg/dwBblnuP80roY4rZUrUvDg0r8khaFZ69acx8zQCJ9/iOD/9Izir
XGBM5hebpbdcVpUiyAt9eT2lyr4MuTdmJpfzOCTOD+d9TECv
-----END CERTIFICATE-----
