Certificate:
    Data:
        Version: 3 (0x2)
        Serial Number: 3 (0x3)
    Signature Algorithm: sha256WithRSAEncryption
        Issuer: CN=2048 RSA Test Root CA
        Validity
            Not Before: Aug 14 02:47:20 2014 GMT
            Not After : Aug 11 02:47:20 2024 GMT
        Subject: CN=2048 rsa Test intermediate CA
        Subject Public Key Info:
            Public Key Algorithm: rsaEncryption
                Public-Key: (2048 bit)
                Modulus:
                    00:d6:1e:ce:64:94:63:23:cb:67:a7:e8:72:85:57:
                    d2:9b:f0:af:6b:ad:d8:a8:4a:04:24:77:23:ce:44:
                    94:55:2c:22:42:70:18:95:e0:8d:44:cd:70:76:7e:
                    eb:4b:be:68:1e:21:25:60:01:36:51:2f:4a:7b:ad:
                    90:74:a9:7f:53:9a:32:46:da:45:79:e4:73:cf:63:
                    e8:d6:65:f4:c4:09:3c:95:9e:24:de:8d:65:1b:04:
                    55:45:92:6e:8d:90:a2:96:ce:d6:4f:7e:1e:af:e8:
                    70:2e:9b:e5:c4:91:d1:d5:4e:91:71:ca:9c:79:0e:
                    fa:2f:ce:0f:76:8d:ae:05:9d:1b:fb:da:0d:3a:fc:
                    28:d4:bf:e2:35:d1:1b:66:d8:33:23:00:3d:69:4d:
                    60:3f:aa:18:73:0b:61:c0:d0:6f:49:42:26:95:33:
                    af:57:e3:92:f0:c5:3f:51:24:c9:60:f1:99:c3:b9:
                    ae:a7:18:9c:7d:16:ac:49:d0:ca:1e:35:c1:91:98:
                    da:4f:4b:e9:87:ea:61:eb:52:c3:d2:f2:96:cf:7e:
                    2f:e2:29:ed:35:ac:8b:44:12:7d:a5:16:45:6f:30:
                    cc:f1:47:ba:ef:ed:ee:fc:e5:6d:a5:d8:ae:65:f9:
                    6c:65:ea:b1:7f:b2:de:69:44:2a:44:75:2f:d8:90:
                    21:83
                Exponent: 65537 (0x10001)
        X509v3 extensions:
            X509v3 Basic Constraints: critical
                CA:TRUE
            X509v3 Subject Key Identifier: 
                57:B4:34:15:0B:1C:1B:9B:BA:76:03:B9:E4:05:28:54:64:29:33:58
            X509v3 Key Usage: critical
                Certificate Sign, CRL Sign
    Signature Algorithm: sha256WithRSAEncryption
         0d:67:2b:5b:17:ca:35:a1:6e:b8:ab:79:70:c0:4c:f7:c2:fb:
         ee:2f:b4:2a:c4:d8:75:e9:78:31:5f:7a:34:d4:bc:c0:2d:49:
         34:22:fb:b3:40:27:ab:24:e0:97:ed:e5:7a:a5:ec:5b:bf:01:
         7e:94:84:43:7e:10:30:82:ad:33:94:01:56:f2:56:14:b5:95:
         75:48:22:fc:3f:87:74:44:31:01:a9:1a:43:c4:7c:87:0d:97:
         09:4c:22:4a:78:92:09:df:98:21:c7:8f:fb:e6:6a:7a:92:c6:
         0a:af:80:b4:d4:10:99:81:82:75:53:3e:42:8f:e6:6b:9c:75:
         59:17:c7:37:ae:17:72:31:f3:7c:8f:52:d9:ce:39:3a:07:2b:
         1f:4e:e3:bf:84:17:cf:29:6b:90:48:dc:06:39:a8:84:60:41:
         15:e8:6e:97:14:8b:51:61:4a:8e:9e:d0:14:73:b2:7c:a1:e6:
         f5:ca:11:f5:50:1a:1d:fe:4f:c1:18:cc:85:92:7f:7b:e3:97:
         78:74:48:db:19:ab:5f:12:f9:17:75:1b:e9:52:a3:f7:55:c8:
         88:7e:bd:a8:a3:ea:a2:28:2b:44:be:f9:81:af:b8:ee:2e:31:
         3e:67:a0:9f:e7:aa:00:16:6d:70:d4:3a:d8:78:a0:3b:f4:9e:
         bd:a5:2e:20
-----BEGIN CERTIFICATE-----
MIIDBTCCAe2gAwIBAgIBAzANBgkqhkiG9w0BAQsFADAgMR4wHAYDVQQDDBUyMDQ4
IFJTQSBUZXN0IFJvb3QgQ0EwHhcNMTQwODE0MDI0NzIwWhcNMjQwODExMDI0NzIw
WjAoMSYwJAYDVQQDDB0yMDQ4IHJzYSBUZXN0IGludGVybWVkaWF0ZSBDQTCCASIw
DQYJKoZIhvcNAQEBBQADggEPADCCAQoCggEBANYezmSUYyPLZ6focoVX0pvwr2ut
2KhKBCR3I85ElFUsIkJwGJXgjUTNcHZ+60u+aB4hJWABNlEvSnutkHSpf1OaMkba
RXnkc89j6NZl9MQJPJWeJN6NZRsEVUWSbo2QopbO1k9+Hq/ocC6b5cSR0dVOkXHK
nHkO+i/OD3aNrgWdG/vaDTr8KNS/4jXRG2bYMyMAPWlNYD+qGHMLYcDQb0lCJpUz
r1fjkvDFP1EkyWDxmcO5rqcYnH0WrEnQyh41wZGY2k9L6YfqYetSw9Lyls9+L+Ip
7TWsi0QSfaUWRW8wzPFHuu/t7vzlbaXYrmX5bGXqsX+y3mlEKkR1L9iQIYMCAwEA
AaNCMEAwDwYDVR0TAQH/BAUwAwEB/zAdBgNVHQ4EFgQUV7Q0FQscG5u6dgO55AUo
VGQpM1gwDgYDVR0PAQH/BAQDAgEGMA0GCSqGSIb3DQEBCwUAA4IBAQANZytbF8o1
oW64q3lwwEz3wvvuL7QqxNh16XgxX3o01LzALUk0IvuzQCerJOCX7eV6pexbvwF+
lIRDfhAwgq0zlAFW8lYUtZV1SCL8P4d0RDEBqRpDxHyHDZcJTCJKeJIJ35ghx4/7
5mp6ksYKr4C01BCZgYJ1Uz5Cj+ZrnHVZF8c3rhdyMfN8j1LZzjk6BysfTuO/hBfP
KWuQSNwGOaiEYEEV6G6XFItRYUqOntAUc7J8oeb1yhH1UBod/k/BGMyFkn9745d4
dEjbGatfEvkXdRvpUqP3VciIfr2oo+qiKCtEvvmBr7juLjE+Z6Cf56oAFm1w1DrY
eKA79J69pS4g
-----END CERTIFICATE-----
