Certificate:
    Data:
        Version: 1 (0x0)
        Serial Number: 1 (0x1)
    Signature Algorithm: ecdsa-with-SHA256
        Issuer: CN=prime256v1 ecdsa Test intermediate CA
        Validity
            Not Before: Aug 14 02:47:20 2014 GMT
            Not After : Aug 11 02:47:20 2024 GMT
        Subject: C=US, ST=California, L=Mountain View, O=Test CA, CN=127.0.0.1
        Subject Public Key Info:
            Public Key Algorithm: rsaEncryption
                Public-Key: (768 bit)
                Modulus:
                    00:d9:4a:ff:53:b8:fd:b8:97:11:f5:78:5a:13:eb:
                    f7:65:1c:ee:13:e1:69:7c:9a:e2:ce:93:84:17:93:
                    d0:d2:fc:49:e2:8c:0c:53:0a:39:ae:ab:31:b9:52:
                    c4:35:95:c5:2f:fd:48:ea:6a:b5:cb:04:12:ad:4d:
                    36:d1:09:43:e8:f3:a7:8f:5d:1e:69:8b:ab:69:13:
                    53:8d:9f:53:06:a2:77:f4:a6:8d:f8:a1:11:f2:34:
                    47:f5:14:85:04:fa:65
                Exponent: 65537 (0x10001)
        X509v3 extensions:
            X509v3 Subject Alternative Name: 
                IP Address:127.0.0.1
    Signature Algorithm: ecdsa-with-SHA256
         30:44:02:20:76:92:b0:1c:af:d4:42:7b:9b:2b:24:66:a6:49:
         99:38:f9:ed:26:94:67:ce:bc:0a:d7:d9:d1:56:c5:c5:82:3d:
         02:20:06:d2:6e:f5:9a:c8:ed:04:26:22:e3:bb:1b:27:bc:23:
         1c:ff:ae:ad:f8:7a:98:6f:71:2f:35:08:6f:e5:53:fb
-----BEGIN CERTIFICATE-----
MIIBrzCCAVYCAQEwCgYIKoZIzj0EAwIwMDEuMCwGA1UEAwwlcHJpbWUyNTZ2MSBl
Y2RzYSBUZXN0IGludGVybWVkaWF0ZSBDQTAeFw0xNDA4MTQwMjQ3MjBaFw0yNDA4
MTEwMjQ3MjBaMGAxCzAJBgNVBAYTAlVTMRMwEQYDVQQIDApDYWxpZm9ybmlhMRYw
FAYDVQQHDA1Nb3VudGFpbiBWaWV3MRAwDgYDVQQKDAdUZXN0IENBMRIwEAYDVQQD
DAkxMjcuMC4wLjEwfDANBgkqhkiG9w0BAQEFAANrADBoAmEA2Ur/U7j9uJcR9Xha
E+v3ZRzuE+FpfJrizpOEF5PQ0vxJ4owMUwo5rqsxuVLENZXFL/1I6mq1ywQSrU02
0QlD6POnj10eaYuraRNTjZ9TBqJ39KaN+KER8jRH9RSFBPplAgMBAAGjEzARMA8G
A1UdEQQIMAaHBH8AAAEwCgYIKoZIzj0EAwIDRwAwRAIgdpKwHK/UQnubKyRmpkmZ
OPntJpRnzrwK19nRVsXFgj0CIAbSbvWayO0EJiLjuxsnvCMc/66t+HqYb3EvNQhv
5VP7
-----END CERTIFICATE-----
