Certificate:
    Data:
        Version: 1 (0x0)
        Serial Number: 1 (0x1)
    Signature Algorithm: sha256WithRSAEncryption
        Issuer: CN=1024 rsa Test intermediate CA
        Validity
            Not Before: Aug 14 02:47:20 2014 GMT
            Not After : Aug 11 02:47:20 2024 GMT
        Subject: C=US, ST=California, L=Mountain View, O=Test CA, CN=127.0.0.1
        Subject Public Key Info:
            Public Key Algorithm: rsaEncryption
                Public-Key: (768 bit)
                Modulus:
                    00:9d:dd:04:37:3b:8d:87:d7:2b:03:b4:06:96:72:
                    c3:03:61:8d:57:1c:c8:8e:f4:34:2a:61:ff:37:a9:
                    f1:b9:25:5d:d2:7c:97:bc:b9:bd:b4:e7:35:dc:2a:
                    06:74:90:66:c0:b1:4d:93:7c:af:05:57:57:c4:b6:
                    b5:6e:fc:cb:d7:1a:c4:ae:ba:76:31:4c:f2:5e:7b:
                    90:fc:6a:c0:72:d1:e7:78:2f:12:e0:24:79:86:dc:
                    0b:bb:fe:d0:78:dd:09
                Exponent: 65537 (0x10001)
        X509v3 extensions:
            X509v3 Subject Alternative Name: 
                IP Address:127.0.0.1
    Signature Algorithm: sha256WithRSAEncryption
         27:68:b7:d7:f5:a8:22:ee:34:94:26:6f:04:37:6d:f0:82:b3:
         84:5c:c9:f0:a3:8d:94:b0:30:e2:9a:7b:66:7c:d5:67:9a:85:
         cf:fa:31:cf:63:74:fe:76:55:ec:9f:95:a4:6e:e3:a4:a6:15:
         0d:ed:1e:c7:52:0b:18:67:dc:e0:b9:dd:e8:86:9b:7a:5c:36:
         42:c4:de:77:40:b7:57:d0:d8:7e:c6:84:c9:8f:76:14:26:80:
         66:fd:61:c6:11:89:67:c8:b7:83:6b:bf:c8:7c:86:75:16:99:
         d9:9f:ca:09:7e:45:5f:a5:83:14:75:4b:74:27:7e:89:9e:4b:
         14:a8
-----BEGIN CERTIFICATE-----
MIIB6DCCAVECAQEwDQYJKoZIhvcNAQELBQAwKDEmMCQGA1UEAwwdMTAyNCByc2Eg
VGVzdCBpbnRlcm1lZGlhdGUgQ0EwHhcNMTQwODE0MDI0NzIwWhcNMjQwODExMDI0
NzIwWjBgMQswCQYDVQQGEwJVUzETMBEGA1UECAwKQ2FsaWZvcm5pYTEWMBQGA1UE
BwwNTW91bnRhaW4gVmlldzEQMA4GA1UECgwHVGVzdCBDQTESMBAGA1UEAwwJMTI3
LjAuMC4xMHwwDQYJKoZIhvcNAQEBBQADawAwaAJhAJ3dBDc7jYfXKwO0BpZywwNh
jVccyI70NCph/zep8bklXdJ8l7y5vbTnNdwqBnSQZsCxTZN8rwVXV8S2tW78y9ca
xK66djFM8l57kPxqwHLR53gvEuAkeYbcC7v+0HjdCQIDAQABoxMwETAPBgNVHREE
CDAGhwR/AAABMA0GCSqGSIb3DQEBCwUAA4GBACdot9f1qCLuNJQmbwQ3bfCCs4Rc
yfCjjZSwMOKae2Z81Weahc/6Mc9jdP52VeyflaRu46SmFQ3tHsdSCxhn3OC53eiG
m3pcNkLE3ndAt1fQ2H7GhMmPdhQmgGb9YcYRiWfIt4Nrv8h8hnUWmdmfygl+RV+l
gxR1S3QnfomeSxSo
-----END CERTIFICATE-----
