Certificate:
    Data:
        Version: 1 (0x0)
        Serial Number: 1 (0x1)
    Signature Algorithm: sha256WithRSAEncryption
        Issuer: CN=2048 rsa Test intermediate CA
        Validity
            Not Before: Aug 14 02:47:20 2014 GMT
            Not After : Aug 11 02:47:20 2024 GMT
        Subject: C=US, ST=California, L=Mountain View, O=Test CA, CN=127.0.0.1
        Subject Public Key Info:
            Public Key Algorithm: rsaEncryption
                Public-Key: (768 bit)
                Modulus:
                    00:af:0f:6a:0e:04:14:4c:31:8b:b8:47:58:a7:c0:
                    53:76:3c:4d:8d:c7:ec:9c:6c:e7:51:53:63:c4:f3:
                    dc:d4:29:1b:be:89:a8:46:8e:ce:ca:c9:52:36:fe:
                    4b:79:7a:4a:22:45:6f:ab:18:d8:8c:8a:7b:56:1e:
                    1f:a0:37:c1:96:eb:83:35:6a:bf:dc:7e:ab:0a:d4:
                    94:62:ac:03:8b:3a:e6:85:cf:08:4c:30:81:0e:f5:
                    ab:74:33:82:a6:1e:47
                Exponent: 65537 (0x10001)
        X509v3 extensions:
            X509v3 Subject Alternative Name: 
                IP Address:127.0.0.1
    Signature Algorithm: sha256WithRSAEncryption
         0e:3d:28:53:d2:48:e9:6f:45:39:d3:ee:83:1e:70:ae:d3:c3:
         6c:d0:f0:b3:79:94:35:a7:b1:f1:ab:1f:01:0f:13:79:2c:8b:
         45:08:30:5b:55:dd:70:a7:80:34:b5:45:20:09:07:4d:a3:11:
         d5:02:24:55:1f:be:91:b7:60:d3:78:5d:8f:17:e0:a5:af:71:
         08:12:65:e7:44:85:95:07:4a:7e:74:67:c3:33:79:2c:a2:e0:
         95:b7:db:7a:ad:c2:a4:c0:7a:b5:e3:9d:15:35:bd:d2:cc:a7:
         d4:65:21:41:84:5b:4b:b7:d5:26:6f:1e:8f:f8:07:f7:23:c0:
         03:3c:0b:d1:94:4b:79:a9:0c:aa:4c:58:8c:13:f2:eb:bf:25:
         51:01:d9:90:46:83:14:72:0a:3c:ba:d9:01:60:b9:e4:57:72:
         42:3f:a5:db:58:d9:bb:96:9d:81:e8:f3:84:3e:c4:b7:45:06:
         f9:9b:82:5d:da:4d:ed:d8:12:88:08:4d:47:d2:f6:d4:d1:8d:
         e5:b2:bb:71:54:da:51:21:55:29:71:00:56:f1:84:49:45:4d:
         e9:2d:b3:ba:9a:3d:5e:9b:c6:3c:0a:39:9e:8e:e9:87:eb:80:
         c9:3a:4e:34:27:c8:f2:d0:a5:a3:91:83:35:34:76:d9:3a:69:
         20:a4:cc:f8
-----BEGIN CERTIFICATE-----
MIICaTCCAVECAQEwDQYJKoZIhvcNAQELBQAwKDEmMCQGA1UEAwwdMjA0OCByc2Eg
VGVzdCBpbnRlcm1lZGlhdGUgQ0EwHhcNMTQwODE0MDI0NzIwWhcNMjQwODExMDI0
NzIwWjBgMQswCQYDVQQGEwJVUzETMBEGA1UECAwKQ2FsaWZvcm5pYTEWMBQGA1UE
BwwNTW91bnRhaW4gVmlldzEQMA4GA1UECgwHVGVzdCBDQTESMBAGA1UEAwwJMTI3
LjAuMC4xMHwwDQYJKoZIhvcNAQEBBQADawAwaAJhAK8Pag4EFEwxi7hHWKfAU3Y8
TY3H7Jxs51FTY8Tz3NQpG76JqEaOzsrJUjb+S3l6SiJFb6sY2IyKe1YeH6A3wZbr
gzVqv9x+qwrUlGKsA4s65oXPCEwwgQ71q3QzgqYeRwIDAQABoxMwETAPBgNVHREE
CDAGhwR/AAABMA0GCSqGSIb3DQEBCwUAA4IBAQAOPShT0kjpb0U50+6DHnCu08Ns
0PCzeZQ1p7Hxqx8BDxN5LItFCDBbVd1wp4A0tUUgCQdNoxHVAiRVH76Rt2DTeF2P
F+Clr3EIEmXnRIWVB0p+dGfDM3ksouCVt9t6rcKkwHq1450VNb3SzKfUZSFBhFtL
t9Umbx6P+Af3I8ADPAvRlEt5qQyqTFiME/LrvyVRAdmQRoMUcgo8utkBYLnkV3JC
P6XbWNm7lp2B6POEPsS3RQb5m4Jd2k3t2BKICE1H0vbU0Y3lsrtxVNpRIVUpcQBW
8YRJRU3pLbO6mj1em8Y8CjmejumH64DJOk40J8jy0KWjkYM1NHbZOmkgpMz4
-----END CERTIFICATE-----
