Certificate:
    Data:
        Version: 1 (0x0)
        Serial Number: 1 (0x1)
    Signature Algorithm: sha256WithRSAEncryption
        Issuer: CN=768 rsa Test intermediate CA
        Validity
            Not Before: Aug 14 02:47:20 2014 GMT
            Not After : Aug 11 02:47:20 2024 GMT
        Subject: C=US, ST=California, L=Mountain View, O=Test CA, CN=127.0.0.1
        Subject Public Key Info:
            Public Key Algorithm: rsaEncryption
                Public-Key: (768 bit)
                Modulus:
                    00:d5:85:17:4b:e9:ba:d9:84:52:9d:d2:67:7d:a3:
                    b5:9c:45:3d:35:fd:f9:81:75:1c:d4:bd:65:c4:09:
                    0f:d5:92:d6:c8:cf:74:e8:fd:6f:f4:d9:52:a1:6d:
                    32:69:0f:9d:bb:1b:74:0e:41:32:e4:8d:ae:f4:70:
                    c1:3c:37:48:27:5a:ac:91:79:39:67:ac:f8:55:73:
                    f2:bb:68:b2:d5:f4:2a:df:ce:3e:e4:8b:a3:24:8c:
                    d7:34:91:f5:67:45:23
                Exponent: 65537 (0x10001)
        X509v3 extensions:
            X509v3 Subject Alternative Name: 
                IP Address:127.0.0.1
    Signature Algorithm: sha256WithRSAEncryption
         44:2d:9b:5a:76:f6:4e:ed:dd:c5:9f:ea:d7:f4:72:1e:f9:3d:
         6e:7b:0e:48:aa:9d:4d:ed:e9:a1:b0:c5:46:3f:91:23:b4:27:
         49:fd:40:97:d2:b4:e6:4c:f8:18:54:1c:24:7a:53:cd:7d:da:
         d3:67:21:42:20:ee:37:87:71:22:7d:1a:88:bd:c3:ce:e9:ed:
         d5:c3:80:72:6f:64:a2:0e:eb:47:de:b1:fe:35:71:43:55:42:
         e9:d8:f2:d5:78:4f
-----BEGIN CERTIFICATE-----
MIIBxjCCAVACAQEwDQYJKoZIhvcNAQELBQAwJzElMCMGA1UEAwwcNzY4IHJzYSBU
ZXN0IGludGVybWVkaWF0ZSBDQTAeFw0xNDA4MTQwMjQ3MjBaFw0yNDA4MTEwMjQ3
MjBaMGAxCzAJBgNVBAYTAlVTMRMwEQYDVQQIDApDYWxpZm9ybmlhMRYwFAYDVQQH
DA1Nb3VudGFpbiBWaWV3MRAwDgYDVQQKDAdUZXN0IENBMRIwEAYDVQQDDAkxMjcu
MC4wLjEwfDANBgkqhkiG9w0BAQEFAANrADBoAmEA1YUXS+m62YRSndJnfaO1nEU9
Nf35gXUc1L1lxAkP1ZLWyM906P1v9NlSoW0yaQ+duxt0DkEy5I2u9HDBPDdIJ1qs
kXk5Z6z4VXPyu2iy1fQq384+5IujJIzXNJH1Z0UjAgMBAAGjEzARMA8GA1UdEQQI
MAaHBH8AAAEwDQYJKoZIhvcNAQELBQADYQBELZtadvZO7d3Fn+rX9HIe+T1uew5I
qp1N7emhsMVGP5EjtCdJ/UCX0rTmTPgYVBwkelPNfdrTZyFCIO43h3EifRqIvcPO
6e3Vw4Byb2SiDutH3rH+NXFDVULp2PLVeE8=
-----END CERTIFICATE-----
