Certificate:
    Data:
        Version: 3 (0x2)
        Serial Number: 1 (0x1)
    Signature Algorithm: sha256WithRSAEncryption
        Issuer: CN=2048 RSA Test Root CA
        Validity
            Not Before: Aug 14 02:47:20 2014 GMT
            Not After : Aug 11 02:47:20 2024 GMT
        Subject: CN=768 rsa Test intermediate CA
        Subject Public Key Info:
            Public Key Algorithm: rsaEncryption
                Public-Key: (768 bit)
                Modulus:
                    00:c5:83:84:fd:2a:0a:93:9f:7d:1b:cc:6a:1f:18:
                    5a:8c:0f:fc:a0:c2:b6:e6:24:a9:0b:9c:bb:fe:c8:
                    dc:42:a1:e6:aa:35:f0:dd:59:6e:0e:4b:8a:9e:f0:
                    b2:ba:64:eb:3d:4d:68:72:fa:80:76:30:d0:7d:f0:
                    e0:72:51:56:3c:b3:5a:5e:85:9f:03:74:97:8f:d9:
                    7f:73:1f:e8:d0:b0:88:ca:63:cb:d8:43:9a:d8:fa:
                    e6:c4:5f:61:d1:76:95
                Exponent: 65537 (0x10001)
        X509v3 extensions:
            X509v3 Basic Constraints: critical
                CA:TRUE
            X509v3 Subject Key Identifier: 
                35:4C:BC:B7:37:7B:3F:53:C9:E2:FC:C4:A7:75:DF:7F:C4:F3:94:D2
            X509v3 Key Usage: critical
                Certificate Sign, CRL Sign
    Signature Algorithm: sha256WithRSAEncryption
         1c:bd:ad:70:50:7e:a3:36:bf:57:b8:fe:36:d8:77:66:e0:fe:
         17:0a:d9:47:fd:56:32:f6:b3:e5:8d:fc:56:69:bb:4c:c4:df:
         31:b2:01:9d:59:b2:03:33:90:22:3c:48:a8:80:8e:f0:32:b4:
         a5:7a:55:f9:87:8c:38:6e:68:97:5e:1d:b8:f0:22:11:19:45:
         35:98:65:94:14:7f:ab:be:40:28:4b:78:d5:71:aa:d2:2c:f7:
         d7:9e:bd:3f:23:fe:0a:4b:cc:38:2d:da:98:1d:89:88:10:2c:
         ff:23:82:2d:48:ba:aa:61:97:ee:25:70:c9:75:a1:67:6b:68:
         02:f4:2f:17:80:26:58:f5:a1:5d:d2:ca:84:3f:1e:85:2b:41:
         15:70:2b:bb:81:04:ea:b2:38:ab:38:7c:7f:4b:97:c8:06:02:
         02:93:fc:34:ab:23:7e:07:f3:88:cc:e2:6c:b0:13:28:f1:b8:
         65:ce:de:bc:83:c6:cd:38:70:85:fd:d8:cb:d4:b0:80:26:a7:
         92:59:5d:0a:36:77:2c:8c:93:ea:ed:d2:18:88:0c:f9:2f:97:
         ea:31:22:ef:66:bc:61:0b:b3:02:f4:b1:38:1f:48:84:20:c2:
         0c:95:0e:54:9e:10:b9:fb:fe:3c:71:9a:00:40:7d:c6:22:57:
         64:4c:26:ea
-----BEGIN CERTIFICATE-----
MIICXDCCAUSgAwIBAgIBATANBgkqhkiG9w0BAQsFADAgMR4wHAYDVQQDDBUyMDQ4
IFJTQSBUZXN0IFJvb3QgQ0EwHhcNMTQwODE0MDI0NzIwWhcNMjQwODExMDI0NzIw
WjAnMSUwIwYDVQQDDBw3NjggcnNhIFRlc3QgaW50ZXJtZWRpYXRlIENBMHwwDQYJ
KoZIhvcNAQEBBQADawAwaAJhAMWDhP0qCpOffRvMah8YWowP/KDCtuYkqQucu/7I
3EKh5qo18N1Zbg5Lip7wsrpk6z1NaHL6gHYw0H3w4HJRVjyzWl6FnwN0l4/Zf3Mf
6NCwiMpjy9hDmtj65sRfYdF2lQIDAQABo0IwQDAPBgNVHRMBAf8EBTADAQH/MB0G
A1UdDgQWBBQ1TLy3N3s/U8ni/MSndd9/xPOU0jAOBgNVHQ8BAf8EBAMCAQYwDQYJ
KoZIhvcNAQELBQADggEBABy9rXBQfqM2v1e4/jbYd2bg/hcK2Uf9VjL2s+WN/FZp
u0zE3zGyAZ1ZsgMzkCI8SKiAjvAytKV6VfmHjDhuaJdeHbjwIhEZRTWYZZQUf6u+
QChLeNVxqtIs99eevT8j/gpLzDgt2pgdiYgQLP8jgi1Iuqphl+4lcMl1oWdraAL0
LxeAJlj1oV3SyoQ/HoUrQRVwK7uBBOqyOKs4fH9Ll8gGAgKT/DSrI34H84jM4myw
EyjxuGXO3ryDxs04cIX92MvUsIAmp5JZXQo2dyyMk+rt0hiIDPkvl+oxIu9mvGEL
swL0sTgfSIQgwgyVDlSeELn7/jxxmgBAfcYiV2RMJuo=
-----END CERTIFICATE-----
