Certificate:
    Data:
        Version: 3 (0x2)
        Serial Number: 4097 (0x1001)
    Signature Algorithm: sha256WithRSAEncryption
        Issuer: CN=C Root CA
        Validity
            Not Before: Aug 14 02:46:37 2014 GMT
            Not After : Aug 11 02:46:37 2024 GMT
        Subject: CN=B CA
        Subject Public Key Info:
            Public Key Algorithm: rsaEncryption
                Public-Key: (2048 bit)
                Modulus:
                    00:cd:08:8a:5d:c6:37:fe:01:86:d8:d6:78:68:78:
                    a1:d8:60:e3:5c:8d:a7:2c:13:4c:29:08:f7:c8:24:
                    ef:cc:64:7f:65:8c:f2:c6:b0:fe:40:4a:47:33:11:
                    17:f7:8d:2c:bc:e3:e7:15:fa:88:23:a2:35:81:3c:
                    8c:1e:55:9e:6e:87:ec:21:94:e5:ae:f3:aa:0c:dc:
                    9b:2b:d8:47:e6:4d:2e:98:be:8d:d8:81:0f:af:1b:
                    5e:4f:d8:a0:60:16:bd:ef:72:34:a8:01:5b:ad:b7:
                    0f:7f:43:46:6a:19:64:e5:f1:f4:3f:f3:a1:f1:ac:
                    97:cd:87:d9:d5:22:19:52:4c:43:9f:c7:6c:3c:6b:
                    ae:3a:b3:1a:6f:8d:55:45:c3:34:e7:b7:83:97:ef:
                    39:d3:fa:29:90:4a:24:09:c1:e7:11:91:47:6e:13:
                    03:ad:b0:4a:5b:10:15:32:05:b7:e0:3b:95:b9:f5:
                    6d:38:0f:42:e5:96:17:9b:4b:e0:5f:37:ec:82:13:
                    4c:17:56:07:f5:2c:66:d5:f6:1e:27:c4:2a:a6:24:
                    d4:bb:a0:68:61:81:45:73:29:d6:a9:bf:26:10:56:
                    0d:33:79:7e:12:70:02:ac:0a:6f:47:be:c2:53:84:
                    7d:a8:b2:31:a0:9a:84:6a:bf:5f:4e:b4:e3:12:f6:
                    a9:a3
                Exponent: 65537 (0x10001)
        X509v3 extensions:
            X509v3 Basic Constraints: critical
                CA:TRUE
            X509v3 Key Usage: critical
                Certificate Sign, CRL Sign
    Signature Algorithm: sha256WithRSAEncryption
         1e:f6:59:47:12:4b:cd:64:8b:9d:4c:d5:57:aa:6e:ad:e9:1c:
         3b:93:eb:c9:66:b2:9c:7e:fe:e1:c1:21:8e:47:5d:b4:fe:9b:
         1e:80:6c:aa:85:ed:2e:29:0f:00:2b:ce:3b:f6:11:53:70:5d:
         ef:64:69:8c:3d:59:fd:46:84:a2:34:f1:f8:77:6d:8e:e5:2b:
         cf:10:6a:3a:30:92:35:71:81:7f:c4:a2:18:70:4d:30:82:d7:
         6c:2c:eb:41:b9:8a:76:01:ee:f6:1c:ec:63:d8:f6:8e:3a:3b:
         03:9d:68:f3:cf:8a:52:f9:64:5f:6a:b8:49:1c:eb:01:cf:f9:
         7b:37:f0:79:07:fa:0c:aa:e9:fc:6b:7d:be:89:66:4d:38:50:
         1c:c7:b9:99:56:7c:87:3b:5f:30:38:17:26:c7:63:f5:0e:17:
         88:d2:80:a9:36:2e:e7:6c:17:2c:75:31:4c:fa:d8:7c:7f:0c:
         eb:54:51:71:e6:f9:bc:6a:8d:34:33:5d:2e:f7:f4:a0:99:78:
         52:77:24:42:67:e3:98:d2:5a:a6:c4:3c:a8:65:58:41:85:53:
         bc:d1:c1:a4:8f:ef:c5:05:7d:06:8d:b9:e0:c0:34:b4:04:e0:
         8c:2e:01:58:25:2a:57:f8:08:e1:70:ad:ed:ab:67:c2:8e:be:
         7c:30:56:37
-----BEGIN CERTIFICATE-----
MIICwjCCAaqgAwIBAgICEAEwDQYJKoZIhvcNAQELBQAwFDESMBAGA1UEAwwJQyBS
b290IENBMB4XDTE0MDgxNDAyNDYzN1oXDTI0MDgxMTAyNDYzN1owDzENMAsGA1UE
AwwEQiBDQTCCASIwDQYJKoZIhvcNAQEBBQADggEPADCCAQoCggEBAM0Iil3GN/4B
htjWeGh4odhg41yNpywTTCkI98gk78xkf2WM8saw/kBKRzMRF/eNLLzj5xX6iCOi
NYE8jB5Vnm6H7CGU5a7zqgzcmyvYR+ZNLpi+jdiBD68bXk/YoGAWve9yNKgBW623
D39DRmoZZOXx9D/zofGsl82H2dUiGVJMQ5/HbDxrrjqzGm+NVUXDNOe3g5fvOdP6
KZBKJAnB5xGRR24TA62wSlsQFTIFt+A7lbn1bTgPQuWWF5tL4F837IITTBdWB/Us
ZtX2HifEKqYk1LugaGGBRXMp1qm/JhBWDTN5fhJwAqwKb0e+wlOEfaiyMaCahGq/
X0604xL2qaMCAwEAAaMjMCEwDwYDVR0TAQH/BAUwAwEB/zAOBgNVHQ8BAf8EBAMC
AQYwDQYJKoZIhvcNAQELBQADggEBAB72WUcSS81ki51M1Veqbq3pHDuT68lmspx+
/uHBIY5HXbT+mx6AbKqF7S4pDwArzjv2EVNwXe9kaYw9Wf1GhKI08fh3bY7lK88Q
ajowkjVxgX/EohhwTTCC12ws60G5inYB7vYc7GPY9o46OwOdaPPPilL5ZF9quEkc
6wHP+Xs38HkH+gyq6fxrfb6JZk04UBzHuZlWfIc7XzA4FybHY/UOF4jSgKk2Luds
Fyx1MUz62Hx/DOtUUXHm+bxqjTQzXS739KCZeFJ3JEJn45jSWqbEPKhlWEGFU7zR
waSP78UFfQaNueDANLQE4IwuAVglKlf4COFwre2rZ8KOvnwwVjc=
-----END CERTIFICATE-----
