Certificate:
    Data:
        Version: 3 (0x2)
        Serial Number: 4096 (0x1000)
    Signature Algorithm: sha256WithRSAEncryption
        Issuer: CN=B CA
        Validity
            Not Before: Aug 14 02:46:37 2014 GMT
            Not After : Aug 11 02:46:37 2024 GMT
        Subject: CN=Client Cert A
        Subject Public Key Info:
            Public Key Algorithm: rsaEncryption
                Public-Key: (2048 bit)
                Modulus:
                    00:d5:df:ba:34:cb:c2:03:b5:37:7a:61:89:1a:b5:
                    1a:b9:27:7f:a9:2c:ba:a1:36:ac:83:6d:b8:45:9e:
                    35:82:a4:de:a3:69:38:25:84:57:00:8c:41:84:86:
                    6d:78:41:d4:10:99:1b:15:18:a6:04:2f:92:a0:1c:
                    29:c3:e0:5d:e2:90:11:2c:fa:ac:18:0d:fe:5e:8d:
                    5c:5a:01:4a:f7:2c:c9:6e:39:8e:14:30:d9:fc:f6:
                    6a:ee:9d:a3:ba:23:fe:5d:aa:2f:96:07:65:38:ca:
                    a4:3c:d2:93:21:b0:b6:db:fb:40:12:00:01:99:30:
                    41:67:e2:2f:65:63:71:aa:a6:ef:45:23:05:8b:b4:
                    28:6c:35:bf:41:73:61:f1:9e:77:8c:a7:51:cf:c7:
                    51:63:c7:00:ab:4e:a3:e5:8f:fe:3c:45:fa:9e:d2:
                    29:bc:59:94:7d:14:c9:36:df:cd:0a:b5:9f:bf:ac:
                    fd:1d:2b:6d:e5:13:30:14:71:de:77:df:83:f3:6d:
                    2c:cd:16:c0:a5:dc:f2:1f:65:86:37:91:2f:31:66:
                    7e:1a:4b:42:b7:29:e1:cd:1d:c9:72:0e:65:8e:a9:
                    4c:74:2e:90:b7:e0:91:0c:e8:fe:92:26:a7:17:9a:
                    b6:25:7f:66:89:2f:bf:54:a7:51:4c:e6:8f:4d:34:
                    a1:c3
                Exponent: 65537 (0x10001)
        X509v3 extensions:
            X509v3 Basic Constraints: critical
                CA:FALSE
            X509v3 Extended Key Usage: 
                TLS Web Server Authentication, TLS Web Client Authentication
    Signature Algorithm: sha256WithRSAEncryption
         6d:3e:c3:d4:c8:d1:fc:ec:0e:d3:ca:c8:4c:8d:fe:ab:51:fb:
         1c:a4:f6:3c:13:07:76:58:7f:61:34:9c:b6:fd:9a:c5:7e:c7:
         b7:e0:89:fb:c5:67:76:75:ee:ab:d9:bf:fb:aa:3e:e9:5a:4a:
         c1:83:c3:c6:a0:01:8e:b1:f8:0d:08:9a:26:a7:b7:3c:19:b0:
         76:77:57:03:c3:61:cf:56:7e:59:25:10:11:bb:4d:20:d5:49:
         51:0d:c9:19:bb:50:4e:d1:f7:62:21:84:02:9b:9b:fa:ca:ef:
         de:7f:6c:a0:1e:f6:50:87:26:eb:2a:fd:e3:69:4b:12:10:9b:
         e3:f5:96:33:23:b5:06:31:42:26:8c:07:cc:0a:19:4a:a5:92:
         44:a3:22:5a:69:ad:4a:96:61:b7:a8:6f:be:31:30:b2:1d:ee:
         5a:21:87:a7:33:51:02:e4:24:86:ab:8e:aa:94:f4:25:6e:3f:
         53:42:ce:12:91:99:23:52:1d:ba:df:59:11:0f:34:2e:8e:58:
         ac:df:6b:1a:08:a3:03:46:0f:c0:11:72:66:c4:e8:92:5a:20:
         06:fe:e2:2b:e9:b3:9b:70:1a:b9:53:21:ad:d7:5f:a1:ab:26:
         97:17:0b:ba:b0:8b:2d:db:0c:4e:ed:75:8b:72:46:b0:6b:23:
         11:ba:1e:03
-----BEGIN CERTIFICATE-----
MIIC0jCCAbqgAwIBAgICEAAwDQYJKoZIhvcNAQELBQAwDzENMAsGA1UEAwwEQiBD
QTAeFw0xNDA4MTQwMjQ2MzdaFw0yNDA4MTEwMjQ2MzdaMBgxFjAUBgNVBAMMDUNs
aWVudCBDZXJ0IEEwggEiMA0GCSqGSIb3DQEBAQUAA4IBDwAwggEKAoIBAQDV37o0
y8IDtTd6YYkatRq5J3+pLLqhNqyDbbhFnjWCpN6jaTglhFcAjEGEhm14QdQQmRsV
GKYEL5KgHCnD4F3ikBEs+qwYDf5ejVxaAUr3LMluOY4UMNn89mrunaO6I/5dqi+W
B2U4yqQ80pMhsLbb+0ASAAGZMEFn4i9lY3Gqpu9FIwWLtChsNb9Bc2HxnneMp1HP
x1FjxwCrTqPlj/48Rfqe0im8WZR9FMk2380KtZ+/rP0dK23lEzAUcd5334PzbSzN
FsCl3PIfZYY3kS8xZn4aS0K3KeHNHclyDmWOqUx0LpC34JEM6P6SJqcXmrYlf2aJ
L79Up1FM5o9NNKHDAgMBAAGjLzAtMAwGA1UdEwEB/wQCMAAwHQYDVR0lBBYwFAYI
KwYBBQUHAwEGCCsGAQUFBwMCMA0GCSqGSIb3DQEBCwUAA4IBAQBtPsPUyNH87A7T
yshMjf6rUfscpPY8Ewd2WH9hNJy2/ZrFfse34In7xWd2de6r2b/7qj7pWkrBg8PG
oAGOsfgNCJomp7c8GbB2d1cDw2HPVn5ZJRARu00g1UlRDckZu1BO0fdiIYQCm5v6
yu/ef2ygHvZQhybrKv3jaUsSEJvj9ZYzI7UGMUImjAfMChlKpZJEoyJaaa1KlmG3
qG++MTCyHe5aIYenM1EC5CSGq46qlPQlbj9TQs4SkZkjUh2631kRDzQujlis32sa
CKMDRg/AEXJmxOiSWiAG/uIr6bObcBq5UyGt11+hqyaXFwu6sIst2wxO7XWLckaw
ayMRuh4D
-----END CERTIFICATE-----
