Certificate:
    Data:
        Version: 1 (0x0)
        Serial Number: 236 (0xec)
    Signature Algorithm: sha1WithRSAEncryption
        Issuer: CN=Client Auth Test Root 1
        Validity
            Not Before: Jan 15 20:10:50 2013 GMT
            Not After : Jan 13 20:10:50 2023 GMT
        Subject: CN=Test Client
        Subject Public Key Info:
            Public Key Algorithm: rsaEncryption
                Public-Key: (2048 bit)
                Modulus:
                    00:d1:54:39:70:34:69:89:ef:09:45:3f:62:c7:1a:
                    63:ea:a6:36:69:eb:b7:39:43:f2:1b:85:c6:5b:3e:
                    ab:8b:68:de:08:be:fc:26:6d:f9:56:b3:00:f0:e0:
                    59:c0:35:e3:f2:5f:3b:e7:97:a0:cd:dd:f3:33:c3:
                    a7:c3:c8:61:d6:80:08:29:ec:47:ee:ce:49:08:b3:
                    c2:65:99:2f:82:ca:3f:80:f2:d3:d9:9b:29:a9:0b:
                    b5:91:77:32:57:1d:e9:64:b0:92:eb:9e:ad:8b:43:
                    08:5b:eb:db:26:62:c1:e1:8a:a3:c9:bf:44:f8:94:
                    e0:31:82:89:43:ee:11:4a:19:b3:f8:07:3e:26:7b:
                    1e:38:b1:e6:84:a8:45:1a:0a:88:ab:8c:5e:e9:11:
                    ad:ee:7c:4e:16:bd:db:53:a6:23:e5:a6:7a:f6:a6:
                    ff:cb:f2:ab:a2:6e:1a:7d:c8:7f:32:37:ab:43:5d:
                    93:6b:3e:34:14:f7:c6:a0:ce:e3:1e:f0:18:4f:59:
                    73:65:f2:94:d3:c5:cf:77:46:01:b3:0f:49:cf:4d:
                    11:a1:0c:dd:8d:7a:8f:69:18:f5:ba:69:19:1c:9c:
                    98:68:ac:8d:aa:92:74:a5:a1:30:76:4c:3e:f3:89:
                    14:b4:bf:d5:86:cf:59:fb:27:75:58:a7:55:72:6b:
                    eb:4f
                Exponent: 65537 (0x10001)
    Signature Algorithm: sha1WithRSAEncryption
         41:c7:f1:99:cb:38:cd:29:09:a2:f5:4e:73:92:d5:50:5a:ab:
         9a:34:75:8e:04:00:65:58:f5:c9:04:62:fd:c8:08:1e:a1:d2:
         e2:30:18:29:ce:11:a9:02:81:86:7b:0c:f9:d9:45:f4:78:55:
         3b:12:91:d4:ff:ca:d1:df:11:88:b4:9f:da:e2:02:48:1e:1b:
         23:1f:e8:f6:1d:4d:d4:60:28:85:d8:bb:79:15:cf:7a:36:8a:
         57:3d:4a:ee:19:d8:e4:8c:46:77:15:e0:3a:b3:d4:35:5e:bd:
         5c:2d:9b:ae:06:ea:8f:f5:83:73:55:b3:11:26:59:0c:94:c4:
         8e:09:1d:19:72:fd:00:56:a4:12:c6:1a:5d:c7:f9:4d:d8:fd:
         54:f3:27:75:0a:d3:bb:f5:6b:d9:3c:7d:7d:e2:cc:a2:55:96:
         da:76:d6:2f:2f:c3:1e:de:ac:77:a4:44:62:99:34:22:f2:21:
         60:25:5c:3f:f8:63:b8:c2:9a:c1:58:73:ae:b9:8c:b1:48:7d:
         c6:01:ec:4b:2a:1f:39:03:9e:7a:ac:bd:7d:6b:c5:5f:5a:0b:
         c9:f5:8b:66:89:b9:06:b8:25:b9:c2:b0:49:7a:e8:2d:97:12:
         8e:ca:e1:62:ca:49:60:51:8d:26:dc:a0:04:de:8c:dd:f0:78:
         03:93:a7:e7
-----BEGIN CERTIFICATE-----
MIICrTCCAZUCAgDsMA0GCSqGSIb3DQEBBQUAMCIxIDAeBgNVBAMMF0NsaWVudCBB
dXRoIFRlc3QgUm9vdCAxMB4XDTEzMDExNTIwMTA1MFoXDTIzMDExMzIwMTA1MFow
FjEUMBIGA1UEAwwLVGVzdCBDbGllbnQwggEiMA0GCSqGSIb3DQEBAQUAA4IBDwAw
ggEKAoIBAQDRVDlwNGmJ7wlFP2LHGmPqpjZp67c5Q/IbhcZbPquLaN4IvvwmbflW
swDw4FnANePyXzvnl6DN3fMzw6fDyGHWgAgp7EfuzkkIs8JlmS+Cyj+A8tPZmymp
C7WRdzJXHelksJLrnq2LQwhb69smYsHhiqPJv0T4lOAxgolD7hFKGbP4Bz4mex44
seaEqEUaCoirjF7pEa3ufE4WvdtTpiPlpnr2pv/L8quibhp9yH8yN6tDXZNrPjQU
98agzuMe8BhPWXNl8pTTxc93RgGzD0nPTRGhDN2Neo9pGPW6aRkcnJhorI2qknSl
oTB2TD7ziRS0v9WGz1n7J3VYp1Vya+tPAgMBAAEwDQYJKoZIhvcNAQEFBQADggEB
AEHH8ZnLOM0pCaL1TnOS1VBaq5o0dY4EAGVY9ckEYv3ICB6h0uIwGCnOEakCgYZ7
DPnZRfR4VTsSkdT/ytHfEYi0n9riAkgeGyMf6PYdTdRgKIXYu3kVz3o2ilc9Su4Z
2OSMRncV4Dqz1DVevVwtm64G6o/1g3NVsxEmWQyUxI4JHRly/QBWpBLGGl3H+U3Y
/VTzJ3UK07v1a9k8fX3izKJVltp21i8vwx7erHekRGKZNCLyIWAlXD/4Y7jCmsFY
c665jLFIfcYB7EsqHzkDnnqsvX1rxV9aC8n1i2aJuQa4JbnCsEl66C2XEo7K4WLK
SWBRjSbcoATejN3weAOTp+c=
-----END CERTIFICATE-----
