Certificate:
    Data:
        Version: 1 (0x0)
        Serial Number: 236 (0xec)
    Signature Algorithm: sha1WithRSAEncryption
        Issuer: CN=Client Auth Test Root 2
        Validity
            Not Before: Feb 12 23:44:58 2013 GMT
            Not After : Feb 10 23:44:58 2023 GMT
        Subject: CN=Test Client
        Subject Public Key Info:
            Public Key Algorithm: rsaEncryption
                Public-Key: (2048 bit)
                Modulus:
                    00:ee:f6:0f:20:45:c1:9b:3b:04:ab:14:82:cf:95:
                    a6:44:13:b3:f8:c7:d7:49:1b:68:70:11:e1:00:f1:
                    7a:b4:68:52:21:e2:ab:5e:15:fc:f7:95:18:1e:85:
                    88:c1:56:d1:9f:87:f1:68:c4:e0:f8:da:89:4a:7f:
                    70:cd:15:d2:e2:d3:12:cb:dd:5c:eb:48:02:90:cd:
                    4d:fd:bf:b1:61:62:be:5b:cf:bf:21:29:bb:8f:31:
                    20:92:92:90:55:fc:85:57:d3:cc:50:3f:1e:51:d3:
                    be:d6:48:31:97:a7:0d:e6:43:cb:5d:b8:eb:f5:bb:
                    0a:72:2c:88:37:fc:43:e3:2d:a4:c5:bc:05:bc:ef:
                    80:a6:b5:c1:47:fa:f4:d6:80:60:c3:3b:f6:f3:44:
                    31:83:8b:2e:58:32:66:32:74:85:e2:fa:dd:73:c3:
                    be:73:c9:61:c0:df:29:a7:15:ed:b0:16:0c:f1:4e:
                    b5:b6:62:a7:34:e0:4a:1f:e5:43:69:44:49:3c:8e:
                    48:31:aa:88:f0:5f:5d:bb:49:05:d9:a7:1b:77:c8:
                    9a:64:09:c2:5a:fe:bf:72:6a:fd:d7:a0:de:d7:09:
                    7f:d9:c1:95:02:8b:9c:30:e1:9a:69:95:15:59:0d:
                    09:bf:cf:5e:ee:54:76:1d:4e:d7:4b:8c:44:94:a1:
                    b3:21
                Exponent: 65537 (0x10001)
    Signature Algorithm: sha1WithRSAEncryption
         b0:63:fb:bd:38:67:07:1f:3c:f1:37:ba:e6:06:2c:d1:11:97:
         34:e8:47:48:8e:23:df:3f:14:14:ad:b7:07:f2:88:ef:36:fc:
         aa:56:af:ec:65:c1:6a:d8:1c:3f:d6:7d:25:ed:ab:2a:4f:cb:
         72:21:94:a4:6c:30:f5:03:af:46:d7:ef:d1:fc:66:23:db:06:
         e7:8c:4b:ce:50:7a:c6:e2:35:67:d3:f3:5a:83:19:4a:bf:f5:
         a9:49:c8:d5:b4:0a:9a:fc:d4:c2:24:40:0e:d5:70:09:45:12:
         5f:44:be:1c:e1:41:39:e7:d9:bb:a4:d9:2a:7f:08:22:7e:fc:
         fd:b9:61:73:d0:7f:e7:e6:2b:15:15:fc:2a:46:2e:db:9f:9a:
         56:b3:a8:d8:08:d6:ba:a8:ae:fb:1f:44:51:cd:a8:e8:4e:71:
         fd:04:fe:50:32:fb:79:a2:d3:6b:8a:6c:41:c7:f8:b2:69:e0:
         b0:86:e6:7c:be:a0:0e:44:7a:4d:e0:33:f3:9f:7d:e4:6f:eb:
         54:2c:98:d8:81:3c:dd:74:5b:dd:5f:80:b5:c7:06:f4:62:ef:
         a4:66:c8:cd:94:e6:a8:28:2a:31:50:2f:9d:6b:7a:17:2b:47:
         13:f0:1b:66:66:50:d8:eb:08:6b:d9:53:39:16:48:8f:fb:9c:
         03:e7:a9:58
-----BEGIN CERTIFICATE-----
MIICrTCCAZUCAgDsMA0GCSqGSIb3DQEBBQUAMCIxIDAeBgNVBAMMF0NsaWVudCBB
dXRoIFRlc3QgUm9vdCAyMB4XDTEzMDIxMjIzNDQ1OFoXDTIzMDIxMDIzNDQ1OFow
FjEUMBIGA1UEAwwLVGVzdCBDbGllbnQwggEiMA0GCSqGSIb3DQEBAQUAA4IBDwAw
ggEKAoIBAQDu9g8gRcGbOwSrFILPlaZEE7P4x9dJG2hwEeEA8Xq0aFIh4qteFfz3
lRgehYjBVtGfh/FoxOD42olKf3DNFdLi0xLL3VzrSAKQzU39v7FhYr5bz78hKbuP
MSCSkpBV/IVX08xQPx5R077WSDGXpw3mQ8tduOv1uwpyLIg3/EPjLaTFvAW874Cm
tcFH+vTWgGDDO/bzRDGDiy5YMmYydIXi+t1zw75zyWHA3ymnFe2wFgzxTrW2Yqc0
4Eof5UNpREk8jkgxqojwX127SQXZpxt3yJpkCcJa/r9yav3XoN7XCX/ZwZUCi5ww
4ZpplRVZDQm/z17uVHYdTtdLjESUobMhAgMBAAEwDQYJKoZIhvcNAQEFBQADggEB
ALBj+704ZwcfPPE3uuYGLNERlzToR0iOI98/FBSttwfyiO82/KpWr+xlwWrYHD/W
fSXtqypPy3IhlKRsMPUDr0bX79H8ZiPbBueMS85QesbiNWfT81qDGUq/9alJyNW0
Cpr81MIkQA7VcAlFEl9EvhzhQTnn2buk2Sp/CCJ+/P25YXPQf+fmKxUV/CpGLtuf
mlazqNgI1rqorvsfRFHNqOhOcf0E/lAy+3mi02uKbEHH+LJp4LCG5ny+oA5Eek3g
M/OffeRv61QsmNiBPN10W91fgLXHBvRi76RmyM2U5qgoKjFQL51rehcrRxPwG2Zm
UNjrCGvZUzkWSI/7nAPnqVg=
-----END CERTIFICATE-----
