Certificate:
    Data:
        Version: 1 (0x0)
        Serial Number: 14502867099363826292 (0xc94488c99247da74)
    Signature Algorithm: sha1WithRSAEncryption
        Issuer: CN=Client Auth Test Root 2
        Validity
            Not Before: Feb 12 23:44:58 2013 GMT
            Not After : Feb 10 23:44:58 2023 GMT
        Subject: CN=Client Auth Test Root 2
        Subject Public Key Info:
            Public Key Algorithm: rsaEncryption
                Public-Key: (2048 bit)
                Modulus:
                    00:d5:75:ea:d8:1b:23:19:ad:a5:76:ce:bd:c0:54:
                    41:e4:e0:d1:f4:d1:3c:10:3d:8b:64:1c:0a:11:c3:
                    af:2b:4b:f4:28:41:a7:f9:f8:c3:4b:e1:4d:52:22:
                    ed:48:fa:5e:de:1d:6e:a4:93:92:76:a3:b4:41:cb:
                    e4:2d:ce:87:91:8e:50:c1:e0:fb:50:29:45:bb:d0:
                    b5:bc:0e:e4:47:d9:23:38:33:7a:24:a4:d3:b8:57:
                    21:89:f0:d8:45:da:72:11:9a:7a:62:96:28:29:2f:
                    b2:c6:d4:d0:3c:9e:d5:30:47:fe:a8:55:b6:be:80:
                    9a:fc:66:ed:ac:01:4b:45:e4:02:24:6d:81:ce:8a:
                    0a:02:b9:d7:5c:93:07:8e:9a:dc:3c:04:33:16:44:
                    e6:cd:26:e2:b6:40:d5:1c:2a:11:52:b8:02:f0:28:
                    14:67:f9:e9:e1:a1:e9:7b:a3:53:fb:b5:eb:e9:45:
                    7e:a9:b3:c3:ae:cc:76:ae:8b:53:4e:91:4c:12:58:
                    b5:00:8f:2d:2f:19:aa:bb:30:ca:e1:41:12:aa:3b:
                    76:ed:a5:b5:3f:d6:c7:b1:4f:33:c7:f4:14:23:08:
                    ab:39:dc:76:6b:86:0b:24:45:2b:70:d1:bf:00:0f:
                    50:93:5b:80:67:49:7e:01:89:9b:7c:1d:06:f3:11:
                    4f:45
                Exponent: 65537 (0x10001)
    Signature Algorithm: sha1WithRSAEncryption
         20:0a:9a:fe:cb:fa:d5:49:b9:e5:83:c0:4f:fc:71:ea:99:82:
         ef:9c:6c:ac:dd:7f:56:21:c9:9b:d6:01:95:29:27:4f:7b:51:
         87:39:bf:62:8b:6a:af:54:83:d1:b3:3e:bc:35:4d:a0:e6:8a:
         77:f8:b2:25:55:e9:ad:8b:95:33:19:d9:30:bd:77:93:7d:ac:
         87:3c:fb:df:0f:73:69:74:25:6f:4e:eb:f1:4f:ff:76:29:7c:
         aa:2f:ef:73:11:0f:43:00:cb:ad:65:4a:d1:1c:fc:e0:85:34:
         cf:c4:20:8f:8f:ec:3d:4b:68:22:99:0c:a0:f2:dc:08:00:13:
         3c:07:8a:eb:48:2a:21:64:81:84:a0:03:99:a4:d2:2e:6d:d5:
         56:4e:b6:51:28:1c:d5:2d:39:d2:49:93:94:df:9a:cd:1c:33:
         80:ca:a6:ce:8c:c6:d7:a6:24:49:6f:cf:b6:fe:22:ad:18:96:
         82:06:a9:5b:41:aa:b6:04:86:1b:da:96:36:dc:53:89:71:1e:
         5e:ab:63:19:54:34:e8:c5:f7:fc:a2:9f:f0:a1:7a:43:e9:b3:
         ee:02:8f:a2:5b:8c:e4:4c:7d:45:fb:3f:e4:24:24:0f:f1:8e:
         1c:8e:4d:2e:2b:8d:28:99:ff:5f:ff:12:cc:c7:a8:b8:d0:ab:
         09:25:9d:03
-----BEGIN CERTIFICATE-----
MIICwDCCAagCCQDJRIjJkkfadDANBgkqhkiG9w0BAQUFADAiMSAwHgYDVQQDDBdD
bGllbnQgQXV0aCBUZXN0IFJvb3QgMjAeFw0xMzAyMTIyMzQ0NThaFw0yMzAyMTAy
MzQ0NThaMCIxIDAeBgNVBAMMF0NsaWVudCBBdXRoIFRlc3QgUm9vdCAyMIIBIjAN
BgkqhkiG9w0BAQEFAAOCAQ8AMIIBCgKCAQEA1XXq2BsjGa2lds69wFRB5ODR9NE8
ED2LZBwKEcOvK0v0KEGn+fjDS+FNUiLtSPpe3h1upJOSdqO0QcvkLc6HkY5QweD7
UClFu9C1vA7kR9kjODN6JKTTuFchifDYRdpyEZp6YpYoKS+yxtTQPJ7VMEf+qFW2
voCa/GbtrAFLReQCJG2BzooKArnXXJMHjprcPAQzFkTmzSbitkDVHCoRUrgC8CgU
Z/np4aHpe6NT+7Xr6UV+qbPDrsx2rotTTpFMEli1AI8tLxmquzDK4UESqjt27aW1
P9bHsU8zx/QUIwirOdx2a4YLJEUrcNG/AA9Qk1uAZ0l+AYmbfB0G8xFPRQIDAQAB
MA0GCSqGSIb3DQEBBQUAA4IBAQAgCpr+y/rVSbnlg8BP/HHqmYLvnGys3X9WIcmb
1gGVKSdPe1GHOb9ii2qvVIPRsz68NU2g5op3+LIlVemti5UzGdkwvXeTfayHPPvf
D3NpdCVvTuvxT/92KXyqL+9zEQ9DAMutZUrRHPzghTTPxCCPj+w9S2gimQyg8twI
ABM8B4rrSCohZIGEoAOZpNIubdVWTrZRKBzVLTnSSZOU35rNHDOAyqbOjMbXpiRJ
b8+2/iKtGJaCBqlbQaq2BIYb2pY23FOJcR5eq2MZVDToxff8op/woXpD6bPuAo+i
W4zkTH1F+z/kJCQP8Y4cjk0uK40omf9f/xLMx6i40KsJJZ0D
-----END CERTIFICATE-----
