Certificate:
    Data:
        Version: 3 (0x2)
        Serial Number: 4098 (0x1002)
    Signature Algorithm: sha256WithRSAEncryption
        Issuer: CN=E CA
        Validity
            Not Before: Aug 14 02:46:37 2014 GMT
            Not After : Aug 11 02:46:37 2024 GMT
        Subject: CN=Client Cert D
        Subject Public Key Info:
            Public Key Algorithm: rsaEncryption
                Public-Key: (2048 bit)
                Modulus:
                    00:e7:b2:44:6e:f9:ef:0a:10:d3:eb:66:39:09:93:
                    96:40:22:3f:e4:bc:fb:89:ca:55:20:71:8e:04:18:
                    82:a4:36:18:85:26:3f:8b:26:c0:44:02:8b:8c:af:
                    f7:ab:72:0a:8f:33:42:9f:f1:4d:12:14:61:68:b3:
                    54:57:72:4b:fc:c5:61:f6:fc:5a:34:ce:1f:04:1e:
                    f6:e6:32:94:f7:11:e3:80:e4:61:06:c2:0c:2c:a8:
                    24:02:9d:1c:c1:e6:e8:0b:f5:43:17:6c:47:59:4a:
                    6f:8d:0f:97:4f:ac:59:13:02:e9:93:02:a2:16:15:
                    85:da:20:b9:87:3f:18:78:ca:d6:e0:15:55:e5:5b:
                    d2:60:4d:d5:60:24:c8:fc:ba:3c:4e:07:ca:ee:a3:
                    7c:32:bf:9a:e2:e2:02:e7:87:65:77:fb:ca:3d:e0:
                    4e:4a:3f:e3:c6:98:a7:56:3a:17:54:42:c5:ae:af:
                    05:f4:9b:b8:30:e6:ee:3a:1c:31:35:4b:73:d6:d3:
                    7c:4c:52:4d:1f:f8:0f:14:97:d9:d5:d7:67:d6:d7:
                    bb:a5:52:e9:d2:ad:68:8c:61:02:95:8d:b4:e1:37:
                    0c:3f:30:64:05:4f:76:49:9c:50:db:76:a5:ad:d2:
                    2d:b4:c3:d2:d2:ad:0d:64:9a:d6:cf:85:ba:0c:61:
                    00:e3
                Exponent: 65537 (0x10001)
        X509v3 extensions:
            X509v3 Basic Constraints: critical
                CA:FALSE
            X509v3 Extended Key Usage: 
                TLS Web Server Authentication, TLS Web Client Authentication
    Signature Algorithm: sha256WithRSAEncryption
         ce:8a:6b:a8:70:1a:a3:bb:54:2b:78:29:84:b3:08:fa:4f:0a:
         98:cd:10:1e:04:05:2d:e9:0d:d0:84:c1:49:21:74:30:2d:7e:
         fe:ec:69:a6:6c:5a:a1:7e:17:d1:b3:84:8c:a0:c1:88:c6:45:
         a6:26:82:ae:a6:54:ed:c2:80:49:e2:e1:94:06:02:42:bf:8d:
         9a:c2:bc:0c:1e:4a:02:74:b0:7e:90:04:23:c2:12:52:14:e8:
         c5:b2:b8:ef:77:7e:6b:ac:a0:cc:68:a8:02:2d:a6:6a:d2:17:
         7f:bd:14:21:8b:e3:07:02:cd:7f:e2:01:63:fa:e1:fd:9a:43:
         f9:81:52:56:7f:d2:42:71:ad:90:fe:b4:e3:ee:f9:76:14:86:
         4e:4b:9b:7f:94:51:c8:5c:ce:56:5d:c5:ee:2d:b4:e4:d1:15:
         d8:49:59:4f:12:d8:5e:ad:8f:9e:50:ab:61:18:0d:df:bc:56:
         f3:75:89:1b:0f:19:df:2d:6e:81:85:dc:c7:28:6a:4b:70:6d:
         85:8c:9d:7d:e1:5d:62:bb:47:18:dc:e8:83:c3:27:af:5b:ec:
         58:07:95:e9:e4:9f:94:b4:2a:4a:67:aa:d7:57:37:1b:21:07:
         11:d5:4e:ca:1e:72:8c:43:fe:cf:b9:ea:68:ea:5d:d7:d3:32:
         fb:8a:29:f6
-----BEGIN CERTIFICATE-----
MIIC0jCCAbqgAwIBAgICEAIwDQYJKoZIhvcNAQELBQAwDzENMAsGA1UEAwwERSBD
QTAeFw0xNDA4MTQwMjQ2MzdaFw0yNDA4MTEwMjQ2MzdaMBgxFjAUBgNVBAMMDUNs
aWVudCBDZXJ0IEQwggEiMA0GCSqGSIb3DQEBAQUAA4IBDwAwggEKAoIBAQDnskRu
+e8KENPrZjkJk5ZAIj/kvPuJylUgcY4EGIKkNhiFJj+LJsBEAouMr/ercgqPM0Kf
8U0SFGFos1RXckv8xWH2/Fo0zh8EHvbmMpT3EeOA5GEGwgwsqCQCnRzB5ugL9UMX
bEdZSm+ND5dPrFkTAumTAqIWFYXaILmHPxh4ytbgFVXlW9JgTdVgJMj8ujxOB8ru
o3wyv5ri4gLnh2V3+8o94E5KP+PGmKdWOhdUQsWurwX0m7gw5u46HDE1S3PW03xM
Uk0f+A8Ul9nV12fW17ulUunSrWiMYQKVjbThNww/MGQFT3ZJnFDbdqWt0i20w9LS
rQ1kmtbPhboMYQDjAgMBAAGjLzAtMAwGA1UdEwEB/wQCMAAwHQYDVR0lBBYwFAYI
KwYBBQUHAwEGCCsGAQUFBwMCMA0GCSqGSIb3DQEBCwUAA4IBAQDOimuocBqju1Qr
eCmEswj6TwqYzRAeBAUt6Q3QhMFJIXQwLX7+7GmmbFqhfhfRs4SMoMGIxkWmJoKu
plTtwoBJ4uGUBgJCv42awrwMHkoCdLB+kAQjwhJSFOjFsrjvd35rrKDMaKgCLaZq
0hd/vRQhi+MHAs1/4gFj+uH9mkP5gVJWf9JCca2Q/rTj7vl2FIZOS5t/lFHIXM5W
XcXuLbTk0RXYSVlPEtherY+eUKthGA3fvFbzdYkbDxnfLW6BhdzHKGpLcG2FjJ19
4V1iu0cY3OiDwyevW+xYB5Xp5J+UtCpKZ6rXVzcbIQcR1U7KHnKMQ/7Puepo6l3X
0zL7iin2
-----END CERTIFICATE-----
