Certificate:
    Data:
        Version: 1 (0x0)
        Serial Number: 236 (0xec)
    Signature Algorithm: sha1WithRSAEncryption
        Issuer: CN=Client Auth Test Root 1
        Validity
            Not Before: Feb 12 23:44:58 2013 GMT
            Not After : Feb 10 23:44:58 2023 GMT
        Subject: CN=Test Client
        Subject Public Key Info:
            Public Key Algorithm: rsaEncryption
                Public-Key: (2048 bit)
                Modulus:
                    00:c1:8c:b0:6b:58:ac:cd:62:4a:f5:d3:03:c4:61:
                    b0:be:2c:7a:58:2c:58:d7:88:34:06:a0:14:d5:ae:
                    17:83:24:3a:e2:51:1d:73:0a:df:8b:a5:f2:fa:aa:
                    82:5d:78:dd:9d:d5:73:7c:04:55:a5:72:14:a6:ac:
                    ff:ce:e8:ef:92:bf:b8:98:31:13:c9:96:ad:10:d4:
                    f0:56:a9:09:7f:18:cd:bb:52:6c:00:58:b7:b4:e5:
                    c7:ec:8e:44:90:90:5c:a3:a6:bb:dd:8f:26:ad:7d:
                    33:67:e1:6a:ad:a1:bf:96:2c:84:9d:57:1b:b2:23:
                    ae:11:b8:f0:34:9a:5d:c7:b6:88:3f:ac:4f:ed:dc:
                    4e:94:f5:de:0a:27:92:52:8e:77:ac:9a:4f:8b:d1:
                    d6:ca:b1:6d:11:55:83:cc:2b:03:7f:e5:48:1f:44:
                    b2:30:dd:7a:a9:15:25:b4:c4:fc:1d:b4:1d:a0:31:
                    9f:05:f9:67:04:35:05:7f:5d:d0:69:44:87:fa:be:
                    5e:fb:5a:6a:aa:9a:32:f0:e7:8a:27:b0:8e:b7:be:
                    5e:a1:7d:5b:ab:35:2b:8e:9a:ec:0b:b0:2a:2a:b2:
                    63:c1:91:c9:b5:f9:0a:2a:d7:f6:c2:c9:cb:44:e6:
                    22:bd:aa:23:c4:cb:13:0f:57:8a:62:03:9f:7e:77:
                    29:99
                Exponent: 65537 (0x10001)
    Signature Algorithm: sha1WithRSAEncryption
         83:b6:a5:c8:3b:50:23:b5:71:6d:f2:03:62:74:df:3c:ad:ab:
         34:76:e8:b4:c2:7c:3d:53:5e:82:95:b3:99:a1:4d:9f:8d:cd:
         ad:13:d5:70:14:84:72:83:59:0f:d4:5e:44:85:a9:3d:d7:a9:
         18:39:fe:da:42:54:27:be:ab:99:8f:f0:d2:f4:50:e2:06:eb:
         53:e7:4a:a1:92:e5:65:50:60:e6:c4:5b:c1:21:83:55:a1:ae:
         74:53:96:41:89:19:c0:98:98:be:44:a2:38:01:65:86:8a:82:
         3d:7d:26:ad:82:0f:e6:cd:c4:1d:3a:ec:47:08:a9:0f:6c:92:
         da:e1:14:33:22:f8:85:6f:91:e3:5d:c2:33:73:09:07:70:fc:
         e5:ee:be:79:98:9c:65:5d:dc:d9:36:53:6a:21:3e:4a:58:b8:
         c4:ac:b3:44:36:e3:90:5c:e4:91:b7:7a:cd:a8:57:64:c3:5c:
         fe:7a:e0:4d:e7:c5:b6:86:84:6c:11:73:6b:31:66:62:9f:26:
         d3:b6:00:df:66:ec:0e:6b:57:6e:39:9c:e9:a2:55:a9:74:f1:
         75:b7:7c:f6:c1:f5:d3:26:bf:8a:9e:c5:bd:23:06:8e:b9:f7:
         09:85:2f:62:14:cc:95:3a:5b:e4:06:26:07:b7:94:cd:fa:c8:
         13:48:41:38
-----BEGIN CERTIFICATE-----
MIICrTCCAZUCAgDsMA0GCSqGSIb3DQEBBQUAMCIxIDAeBgNVBAMMF0NsaWVudCBB
dXRoIFRlc3QgUm9vdCAxMB4XDTEzMDIxMjIzNDQ1OFoXDTIzMDIxMDIzNDQ1OFow
FjEUMBIGA1UEAwwLVGVzdCBDbGllbnQwggEiMA0GCSqGSIb3DQEBAQUAA4IBDwAw
ggEKAoIBAQDBjLBrWKzNYkr10wPEYbC+LHpYLFjXiDQGoBTVrheDJDriUR1zCt+L
pfL6qoJdeN2d1XN8BFWlchSmrP/O6O+Sv7iYMRPJlq0Q1PBWqQl/GM27UmwAWLe0
5cfsjkSQkFyjprvdjyatfTNn4Wqtob+WLISdVxuyI64RuPA0ml3Htog/rE/t3E6U
9d4KJ5JSjnesmk+L0dbKsW0RVYPMKwN/5UgfRLIw3XqpFSW0xPwdtB2gMZ8F+WcE
NQV/XdBpRIf6vl77WmqqmjLw54onsI63vl6hfVurNSuOmuwLsCoqsmPBkcm1+Qoq
1/bCyctE5iK9qiPEyxMPV4piA59+dymZAgMBAAEwDQYJKoZIhvcNAQEFBQADggEB
AIO2pcg7UCO1cW3yA2J03zytqzR26LTCfD1TXoKVs5mhTZ+Nza0T1XAUhHKDWQ/U
XkSFqT3XqRg5/tpCVCe+q5mP8NL0UOIG61PnSqGS5WVQYObEW8Ehg1WhrnRTlkGJ
GcCYmL5EojgBZYaKgj19Jq2CD+bNxB067EcIqQ9sktrhFDMi+IVvkeNdwjNzCQdw
/OXuvnmYnGVd3Nk2U2ohPkpYuMSss0Q245Bc5JG3es2oV2TDXP564E3nxbaGhGwR
c2sxZmKfJtO2AN9m7A5rV245nOmiVal08XW3fPbB9dMmv4qexb0jBo659wmFL2IU
zJU6W+QGJge3lM36yBNIQTg=
-----END CERTIFICATE-----
