Certificate:
    Data:
        Version: 3 (0x2)
        Serial Number: 4098 (0x1002)
    Signature Algorithm: sha256WithRSAEncryption
        Issuer: CN=C Root CA
        Validity
            Not Before: Aug 14 02:46:37 2014 GMT
            Not After : Aug 11 02:46:37 2024 GMT
        Subject: CN=E CA
        Subject Public Key Info:
            Public Key Algorithm: rsaEncryption
                Public-Key: (2048 bit)
                Modulus:
                    00:d5:07:2a:a9:ae:d5:c6:94:64:6f:84:5c:50:8c:
                    de:f4:7a:81:ce:1b:0c:5a:d5:e7:96:9b:84:3f:67:
                    04:c8:49:0f:50:70:ad:a3:c6:39:39:fe:bb:e1:95:
                    d0:3f:9a:4a:e7:67:0c:97:ae:ba:77:c8:d2:58:d9:
                    26:37:d3:29:37:c2:ec:60:41:1d:00:05:38:3a:75:
                    9c:93:e2:71:e1:eb:60:aa:a2:c6:18:74:9d:42:e6:
                    c4:42:b2:87:4a:6c:51:37:54:a1:da:4b:7f:14:ab:
                    a1:bc:e6:21:d1:fa:d6:bf:08:8c:17:54:13:86:27:
                    e4:6a:fe:10:f0:96:e9:45:a8:ed:45:28:4c:50:1f:
                    45:25:c9:88:54:a2:27:31:4d:8b:55:e4:82:59:29:
                    76:35:4d:92:91:8d:38:cf:b2:48:dc:45:fe:b0:0c:
                    14:eb:9c:40:55:d7:7f:79:17:b5:07:33:81:db:a5:
                    84:61:13:ad:cb:07:02:50:82:5a:d9:14:60:4a:ec:
                    79:95:7e:ba:75:73:45:2a:07:ab:3d:77:a2:6a:08:
                    18:a4:43:24:e1:6d:27:69:ef:a4:b8:d7:40:68:08:
                    4f:24:87:5b:64:8e:f5:ab:a0:88:14:70:b9:80:5f:
                    6a:1f:a4:d6:78:3c:24:99:44:65:b2:3a:0c:8d:04:
                    54:05
                Exponent: 65537 (0x10001)
        X509v3 extensions:
            X509v3 Basic Constraints: critical
                CA:TRUE
            X509v3 Key Usage: critical
                Certificate Sign, CRL Sign
    Signature Algorithm: sha256WithRSAEncryption
         1f:db:57:30:59:e1:e7:4a:2d:2f:d8:06:9e:d1:e5:f7:36:cc:
         68:13:1e:6c:83:56:d3:31:e1:d4:02:87:29:3e:90:aa:62:1b:
         26:1e:cd:a6:d2:72:8e:40:87:c4:72:f0:ad:7e:e9:5f:94:96:
         84:5e:06:71:e4:bb:0e:45:48:04:47:06:cf:10:b5:08:28:a5:
         95:96:23:67:2a:cb:8a:7c:20:80:26:f4:12:c1:34:54:2b:36:
         81:0b:37:a8:50:f8:6b:a5:59:ba:1f:94:f8:ed:83:95:90:e9:
         68:bb:ef:dd:85:79:fd:8d:94:51:5a:10:83:aa:c2:68:56:ed:
         22:90:23:f5:4c:a7:6e:6b:db:3f:7f:c1:74:54:ba:33:30:f1:
         cb:da:02:c2:bd:39:7c:bb:63:38:d0:e8:e1:81:bc:eb:3b:47:
         a4:66:67:74:ab:0c:a6:ae:e6:b5:ac:4c:a0:5d:df:4b:cf:e4:
         68:72:6f:e2:53:e8:1d:74:d4:d5:91:d4:58:9b:c3:ce:3a:22:
         17:06:ea:82:09:4d:d9:97:a5:09:a3:91:70:52:08:bb:21:7c:
         81:e2:3d:ee:6e:0c:ad:6c:f6:21:35:3b:f5:d6:d6:67:40:33:
         47:36:25:24:d7:9b:02:a5:b2:da:59:cd:a6:26:b0:9f:72:e8:
         44:3a:fb:50
-----BEGIN CERTIFICATE-----
MIICwjCCAaqgAwIBAgICEAIwDQYJKoZIhvcNAQELBQAwFDESMBAGA1UEAwwJQyBS
b290IENBMB4XDTE0MDgxNDAyNDYzN1oXDTI0MDgxMTAyNDYzN1owDzENMAsGA1UE
AwwERSBDQTCCASIwDQYJKoZIhvcNAQEBBQADggEPADCCAQoCggEBANUHKqmu1caU
ZG+EXFCM3vR6gc4bDFrV55abhD9nBMhJD1BwraPGOTn+u+GV0D+aSudnDJeuunfI
0ljZJjfTKTfC7GBBHQAFODp1nJPiceHrYKqixhh0nULmxEKyh0psUTdUodpLfxSr
obzmIdH61r8IjBdUE4Yn5Gr+EPCW6UWo7UUoTFAfRSXJiFSiJzFNi1XkglkpdjVN
kpGNOM+ySNxF/rAMFOucQFXXf3kXtQczgdulhGETrcsHAlCCWtkUYErseZV+unVz
RSoHqz13omoIGKRDJOFtJ2nvpLjXQGgITySHW2SO9augiBRwuYBfah+k1ng8JJlE
ZbI6DI0EVAUCAwEAAaMjMCEwDwYDVR0TAQH/BAUwAwEB/zAOBgNVHQ8BAf8EBAMC
AQYwDQYJKoZIhvcNAQELBQADggEBAB/bVzBZ4edKLS/YBp7R5fc2zGgTHmyDVtMx
4dQChyk+kKpiGyYezabSco5Ah8Ry8K1+6V+UloReBnHkuw5FSARHBs8QtQgopZWW
I2cqy4p8IIAm9BLBNFQrNoELN6hQ+GulWboflPjtg5WQ6Wi7792Fef2NlFFaEIOq
wmhW7SKQI/VMp25r2z9/wXRUujMw8cvaAsK9OXy7YzjQ6OGBvOs7R6RmZ3SrDKau
5rWsTKBd30vP5Ghyb+JT6B101NWR1Fibw846IhcG6oIJTdmXpQmjkXBSCLshfIHi
Pe5uDK1s9iE1O/XW1mdAM0c2JSTXmwKlstpZzaYmsJ9y6EQ6+1A=
-----END CERTIFICATE-----
