Certificate:
    Data:
        Version: 1 (0x0)
        Serial Number: 12799194924381938615 (0xb19fdff87ec4a3b7)
    Signature Algorithm: sha1WithRSAEncryption
        Issuer: CN=Client Auth Test Root 1
        Validity
            Not Before: Feb 12 23:44:58 2013 GMT
            Not After : Feb 10 23:44:58 2023 GMT
        Subject: CN=Client Auth Test Root 1
        Subject Public Key Info:
            Public Key Algorithm: rsaEncryption
                Public-Key: (2048 bit)
                Modulus:
                    00:d7:8f:ad:85:e4:36:c4:16:e2:59:65:e3:ba:9b:
                    60:da:8b:94:33:48:3a:5b:ab:80:00:92:20:08:26:
                    0d:4a:1f:d8:62:37:0d:42:8a:a5:ab:e6:c8:f6:5a:
                    83:42:62:0f:65:56:01:22:54:43:92:73:76:f8:18:
                    45:6d:a1:b0:80:a5:55:1e:75:c2:2c:1b:a0:68:3a:
                    43:57:88:e0:25:85:ff:42:a2:e0:61:17:23:fd:0d:
                    81:42:b9:43:21:65:66:de:42:73:eb:04:45:f3:64:
                    ce:f5:4c:e7:e6:a9:0c:ad:22:e6:03:20:e8:25:b6:
                    65:f9:b5:70:4a:10:98:db:38:d0:e9:1b:11:64:e0:
                    fa:71:46:c0:79:33:2a:81:5a:76:e7:4f:ca:14:79:
                    f6:a7:95:59:bd:c8:e0:85:79:95:59:bd:f0:38:bd:
                    f1:5a:d4:5c:f9:fb:46:73:aa:f8:51:51:0b:e1:3a:
                    23:93:21:80:85:fc:61:22:dc:ac:18:a1:e2:36:62:
                    41:ec:04:67:19:82:0f:8c:bb:a6:6c:43:6b:da:58:
                    16:76:dd:ec:89:4b:0e:ec:89:74:5d:2c:b2:b1:7f:
                    5b:57:d3:08:84:97:dc:d5:bd:0c:9e:8c:02:df:90:
                    21:e6:cf:02:ba:bc:fd:84:fc:77:8a:5a:a4:2c:91:
                    15:81
                Exponent: 65537 (0x10001)
    Signature Algorithm: sha1WithRSAEncryption
         bf:8b:7e:39:b1:07:8e:95:47:59:e6:9e:04:5f:2b:e6:c0:c9:
         73:a2:be:8f:f7:35:8f:bc:15:53:27:15:19:1d:a4:ca:e2:6c:
         cc:33:fb:d5:21:a3:40:6f:22:79:1a:20:0f:e7:3a:ab:76:05:
         cd:20:f1:9a:bc:a1:5e:0c:2a:63:20:5a:72:db:e8:62:ee:ba:
         d4:2a:90:61:b5:57:5f:a9:43:b5:cd:71:69:c5:d6:40:40:43:
         ff:b4:bf:8f:5b:b8:44:3d:c6:14:2a:17:f5:62:44:32:a0:99:
         a4:92:94:5a:41:14:b2:ff:26:91:c2:9f:12:33:fc:f6:44:63:
         c6:2f:dc:d6:0f:c5:c3:03:32:f9:8d:8a:49:8f:c0:27:d1:7c:
         61:b7:2b:22:03:9d:8e:b5:45:f4:94:a3:8a:be:06:af:d3:1c:
         1b:11:8e:e7:1b:38:89:70:5d:4a:1e:16:76:23:b4:d0:d1:ae:
         76:62:14:31:99:32:7a:9f:ef:fa:26:05:19:bb:76:b9:92:7d:
         2f:1f:f7:1f:19:6f:ad:42:c2:52:fb:3d:b5:4a:4e:15:d9:8a:
         07:82:98:fe:5a:88:16:68:62:79:eb:48:27:aa:b6:0a:21:08:
         d4:f6:85:9b:5e:8b:4b:34:c5:88:0c:a3:dd:d2:7d:d4:d5:0d:
         a7:75:e2:77
-----BEGIN CERTIFICATE-----
MIICwDCCAagCCQCxn9/4fsSjtzANBgkqhkiG9w0BAQUFADAiMSAwHgYDVQQDDBdD
bGllbnQgQXV0aCBUZXN0IFJvb3QgMTAeFw0xMzAyMTIyMzQ0NThaFw0yMzAyMTAy
MzQ0NThaMCIxIDAeBgNVBAMMF0NsaWVudCBBdXRoIFRlc3QgUm9vdCAxMIIBIjAN
BgkqhkiG9w0BAQEFAAOCAQ8AMIIBCgKCAQEA14+theQ2xBbiWWXjuptg2ouUM0g6
W6uAAJIgCCYNSh/YYjcNQoqlq+bI9lqDQmIPZVYBIlRDknN2+BhFbaGwgKVVHnXC
LBugaDpDV4jgJYX/QqLgYRcj/Q2BQrlDIWVm3kJz6wRF82TO9Uzn5qkMrSLmAyDo
JbZl+bVwShCY2zjQ6RsRZOD6cUbAeTMqgVp250/KFHn2p5VZvcjghXmVWb3wOL3x
WtRc+ftGc6r4UVEL4TojkyGAhfxhItysGKHiNmJB7ARnGYIPjLumbENr2lgWdt3s
iUsO7Il0XSyysX9bV9MIhJfc1b0MnowC35Ah5s8Curz9hPx3ilqkLJEVgQIDAQAB
MA0GCSqGSIb3DQEBBQUAA4IBAQC/i345sQeOlUdZ5p4EXyvmwMlzor6P9zWPvBVT
JxUZHaTK4mzMM/vVIaNAbyJ5GiAP5zqrdgXNIPGavKFeDCpjIFpy2+hi7rrUKpBh
tVdfqUO1zXFpxdZAQEP/tL+PW7hEPcYUKhf1YkQyoJmkkpRaQRSy/yaRwp8SM/z2
RGPGL9zWD8XDAzL5jYpJj8An0XxhtysiA52OtUX0lKOKvgav0xwbEY7nGziJcF1K
HhZ2I7TQ0a52YhQxmTJ6n+/6JgUZu3a5kn0vH/cfGW+tQsJS+z21Sk4V2YoHgpj+
WogWaGJ560gnqrYKIQjU9oWbXotLNMWIDKPd0n3U1Q2ndeJ3
-----END CERTIFICATE-----
