Certificate:
    Data:
        Version: 1 (0x0)
        Serial Number: 236 (0xec)
    Signature Algorithm: sha1WithRSAEncryption
        Issuer: CN=Client Auth Test Root 2
        Validity
            Not Before: Jan 15 20:10:50 2013 GMT
            Not After : Jan 13 20:10:50 2023 GMT
        Subject: CN=Test Client
        Subject Public Key Info:
            Public Key Algorithm: rsaEncryption
                Public-Key: (2048 bit)
                Modulus:
                    00:b0:82:b6:2d:f7:5b:13:39:fe:93:12:5a:0c:c9:
                    1d:f3:76:31:f4:54:09:7c:7e:f3:03:87:0e:8f:9a:
                    f5:98:99:f0:48:ae:68:90:a7:fd:85:e5:be:28:03:
                    a1:0e:f2:62:e2:73:ae:db:3d:41:65:d5:6c:82:0b:
                    8d:8e:78:ca:13:63:b6:df:1c:9b:0a:6f:7d:a1:26:
                    5f:e6:7b:ea:38:e1:32:c6:c5:80:61:f8:bb:94:a0:
                    e5:bb:2d:c0:3c:db:4c:fc:d3:83:5f:ca:42:e9:8c:
                    90:1a:4f:64:9c:56:7e:e8:d4:a1:3c:3a:a4:5a:24:
                    da:df:06:43:b5:c3:b8:a4:1a:c0:5b:1a:09:ff:f8:
                    bf:69:59:b6:5e:0a:92:8e:98:fd:29:41:90:b5:0a:
                    a7:33:f4:9c:0b:49:c4:93:b3:60:91:f3:6c:50:3f:
                    68:2a:83:89:19:e5:5f:72:07:f7:2d:55:a3:c9:2a:
                    e4:cc:d0:03:3c:27:ab:78:9d:01:8e:81:23:27:e7:
                    5a:00:f0:2b:85:cb:ce:12:79:7e:66:52:0d:b5:4f:
                    a8:db:9c:9d:97:d1:18:0d:44:7b:72:a6:af:52:30:
                    3d:7a:3f:c1:13:28:6e:9c:73:10:c0:82:01:3b:af:
                    d4:dd:0b:85:1f:bd:20:36:6b:5f:23:bf:9a:69:85:
                    19:43
                Exponent: 65537 (0x10001)
    Signature Algorithm: sha1WithRSAEncryption
         20:a9:75:4c:f6:0c:3e:03:ae:a4:3a:1f:51:93:81:c4:b7:d5:
         36:12:65:70:a6:8e:a0:79:ae:07:91:bb:07:68:6f:3b:bb:bc:
         97:1b:9d:63:1f:32:a7:88:40:83:f8:e5:29:a5:76:ef:bc:9e:
         59:2e:2a:7f:25:10:8b:4f:80:88:3e:b3:18:50:2f:d6:87:d0:
         1e:b3:7c:82:bf:ec:4f:b4:4a:5d:b5:0b:7c:06:1a:8e:9f:74:
         0d:03:b8:2b:9a:92:e2:e0:06:87:a6:20:54:51:db:bd:79:6f:
         6a:13:b7:b5:c3:c5:29:8c:3f:4a:ab:9c:0b:66:a8:db:ef:3e:
         4b:c6:25:f5:2c:25:6a:31:6a:da:3a:42:bc:4b:02:40:86:ff:
         ea:a1:33:18:31:47:68:1e:2e:80:67:95:b8:9a:8a:46:2f:d6:
         63:ce:9c:66:eb:23:fb:c2:3b:fd:ee:8d:b9:bb:14:ee:e4:85:
         95:b6:20:e8:1c:00:5a:07:5d:47:ed:34:92:77:80:43:cd:2a:
         44:ef:1e:56:56:12:b4:43:c6:1a:e4:9a:52:dd:06:d9:1b:87:
         98:e2:2b:80:22:39:7f:d3:30:ba:84:08:6a:40:e5:ea:9c:2e:
         0a:c7:7d:e7:c2:ca:b4:69:c7:4a:93:ce:c7:f6:db:24:c6:d5:
         a3:ab:4b:20
-----BEGIN CERTIFICATE-----
MIICrTCCAZUCAgDsMA0GCSqGSIb3DQEBBQUAMCIxIDAeBgNVBAMMF0NsaWVudCBB
dXRoIFRlc3QgUm9vdCAyMB4XDTEzMDExNTIwMTA1MFoXDTIzMDExMzIwMTA1MFow
FjEUMBIGA1UEAwwLVGVzdCBDbGllbnQwggEiMA0GCSqGSIb3DQEBAQUAA4IBDwAw
ggEKAoIBAQCwgrYt91sTOf6TEloMyR3zdjH0VAl8fvMDhw6PmvWYmfBIrmiQp/2F
5b4oA6EO8mLic67bPUFl1WyCC42OeMoTY7bfHJsKb32hJl/me+o44TLGxYBh+LuU
oOW7LcA820z804NfykLpjJAaT2ScVn7o1KE8OqRaJNrfBkO1w7ikGsBbGgn/+L9p
WbZeCpKOmP0pQZC1Cqcz9JwLScSTs2CR82xQP2gqg4kZ5V9yB/ctVaPJKuTM0AM8
J6t4nQGOgSMn51oA8CuFy84SeX5mUg21T6jbnJ2X0RgNRHtypq9SMD16P8ETKG6c
cxDAggE7r9TdC4UfvSA2a18jv5pphRlDAgMBAAEwDQYJKoZIhvcNAQEFBQADggEB
ACCpdUz2DD4DrqQ6H1GTgcS31TYSZXCmjqB5rgeRuwdobzu7vJcbnWMfMqeIQIP4
5Smldu+8nlkuKn8lEItPgIg+sxhQL9aH0B6zfIK/7E+0Sl21C3wGGo6fdA0DuCua
kuLgBoemIFRR2715b2oTt7XDxSmMP0qrnAtmqNvvPkvGJfUsJWoxato6QrxLAkCG
/+qhMxgxR2geLoBnlbiaikYv1mPOnGbrI/vCO/3ujbm7FO7khZW2IOgcAFoHXUft
NJJ3gEPNKkTvHlZWErRDxhrkmlLdBtkbh5jiK4AiOX/TMLqECGpA5eqcLgrHfefC
yrRpx0qTzsf22yTG1aOrSyA=
-----END CERTIFICATE-----
