Certificate:
    Data:
        Version: 3 (0x2)
        Serial Number: 236 (0xec)
    Signature Algorithm: sha1WithRSAEncryption
        Issuer: CN=Test Root CA
        Validity
            Not Before: Jun 28 00:12:46 2013 GMT
            Not After : Jun 26 00:12:46 2023 GMT
        Subject: C=US, ST=California, L=Mountain View, O=Test CA, CN=127.0.0.1
        Subject Public Key Info:
            Public Key Algorithm: rsaEncryption
                Public-Key: (2048 bit)
                Modulus:
                    00:cc:2a:6b:e1:75:e1:1b:b3:30:24:17:d2:bb:6e:
                    5e:d9:68:ff:b6:35:e5:6d:6e:46:77:0b:91:5a:89:
                    96:1e:dc:f6:95:a7:fb:37:c2:10:ee:92:71:23:35:
                    65:e5:a3:77:44:5f:f6:43:6f:80:ff:b9:fd:25:c6:
                    f4:61:9f:42:f3:0a:0a:6a:bf:79:16:69:64:db:7a:
                    d9:7d:07:ca:7d:31:97:5e:0a:e9:62:ce:3b:91:91:
                    3d:c0:95:f2:8e:56:94:f0:12:fe:11:f5:e2:e4:40:
                    90:cd:55:21:53:1f:bb:90:3c:fb:24:8e:b9:50:5c:
                    17:53:34:23:e5:0f:e6:ac:e1:44:7e:4d:54:4b:bb:
                    03:94:da:6e:9f:50:51:2a:d6:75:50:75:d1:50:01:
                    45:e9:24:74:3a:59:01:a0:64:a5:7d:91:99:7b:ea:
                    94:27:05:21:6b:1f:86:44:60:be:e4:66:5a:75:8f:
                    dd:ac:f1:16:a8:56:ea:fc:64:4a:17:61:f4:6c:92:
                    bc:b0:ff:a4:6c:67:19:ce:02:60:ef:ee:95:60:bc:
                    c6:47:25:a0:3a:ad:07:91:d4:74:35:f4:8f:ef:f9:
                    b5:00:6b:26:48:0e:ab:25:f9:e8:09:ce:55:31:b5:
                    5f:bb:3b:15:43:a2:4e:65:19:bd:44:3a:5f:dc:8b:
                    a5:8b
                Exponent: 65537 (0x10001)
        X509v3 extensions:
            X509v3 Basic Constraints: critical
                CA:FALSE
            X509v3 Subject Key Identifier: 
                E2:4A:5F:2A:EF:4C:76:8B:E7:E8:68:C8:0D:2B:D1:62:64:B6:1E:4F
            X509v3 Authority Key Identifier: 
                keyid:48:D7:06:DC:B7:D3:0C:D6:3A:F3:A3:7F:12:D4:44:4D:BC:0B:9A:E7

            X509v3 Extended Key Usage: 
                TLS Web Server Authentication, TLS Web Client Authentication
            X509v3 Subject Alternative Name: 
                IP Address:127.0.0.1
    Signature Algorithm: sha1WithRSAEncryption
         97:67:c6:3d:c4:9f:97:4e:b6:06:a4:e0:d5:56:16:f0:41:c9:
         a1:38:6c:c6:9d:ae:09:0a:ab:5b:63:3b:24:cd:4c:94:8d:69:
         2e:f2:98:64:05:a4:e8:60:12:31:d8:db:d1:7e:83:c6:11:9d:
         a4:7b:08:ba:3b:b9:34:9b:46:93:2c:01:7b:a3:5d:2d:ef:a6:
         32:29:9b:15:a0:f5:19:91:1b:21:b3:f6:4d:f2:1d:36:85:59:
         99:50:70:92:4f:e6:df:ea:dd:d1:f1:c6:fe:ad:81:82:ce:c4:
         d0:25:b7:60:14:4c:6b:4d:0c:69:c6:e2:7a:cb:92:a1:59:69:
         37:47:81:e8:d2:02:fa:0b:22:4d:18:0f:32:7c:68:07:b4:67:
         f9:36:db:f6:a0:77:da:68:a8:0b:7e:65:22:d7:0b:fd:65:11:
         b4:8f:a9:b7:20:50:81:b0:d7:71:cc:76:11:5b:28:9d:7d:98:
         21:c7:1f:d5:a1:d6:a6:12:ce:c7:90:5d:a0:22:03:3e:e3:aa:
         17:a5:cd:bb:f4:2e:d9:e5:61:de:24:f6:3d:8f:9f:4e:97:02:
         61:91:0e:28:a2:02:ff:a9:7b:52:c2:33:26:a3:26:7d:c2:43:
         e3:91:36:c9:55:e1:b8:12:c2:39:fe:5e:28:69:ea:13:f9:be:
         2a:72:0d:70
-----BEGIN CERTIFICATE-----
MIIDdDCCAlygAwIBAgICAOwwDQYJKoZIhvcNAQEFBQAwFzEVMBMGA1UEAwwMVGVz
dCBSb290IENBMB4XDTEzMDYyODAwMTI0NloXDTIzMDYyNjAwMTI0NlowYDELMAkG
A1UEBhMCVVMxEzARBgNVBAgMCkNhbGlmb3JuaWExFjAUBgNVBAcMDU1vdW50YWlu
IFZpZXcxEDAOBgNVBAoMB1Rlc3QgQ0ExEjAQBgNVBAMMCTEyNy4wLjAuMTCCASIw
DQYJKoZIhvcNAQEBBQADggEPADCCAQoCggEBAMwqa+F14RuzMCQX0rtuXtlo/7Y1
5W1uRncLkVqJlh7c9pWn+zfCEO6ScSM1ZeWjd0Rf9kNvgP+5/SXG9GGfQvMKCmq/
eRZpZNt62X0Hyn0xl14K6WLOO5GRPcCV8o5WlPAS/hH14uRAkM1VIVMfu5A8+ySO
uVBcF1M0I+UP5qzhRH5NVEu7A5Tabp9QUSrWdVB10VABRekkdDpZAaBkpX2RmXvq
lCcFIWsfhkRgvuRmWnWP3azxFqhW6vxkShdh9GySvLD/pGxnGc4CYO/ulWC8xkcl
oDqtB5HUdDX0j+/5tQBrJkgOqyX56AnOVTG1X7s7FUOiTmUZvUQ6X9yLpYsCAwEA
AaOBgDB+MAwGA1UdEwEB/wQCMAAwHQYDVR0OBBYEFOJKXyrvTHaL5+hoyA0r0WJk
th5PMB8GA1UdIwQYMBaAFEjXBty30wzWOvOjfxLURE28C5rnMB0GA1UdJQQWMBQG
CCsGAQUFBwMBBggrBgEFBQcDAjAPBgNVHREECDAGhwR/AAABMA0GCSqGSIb3DQEB
BQUAA4IBAQCXZ8Y9xJ+XTrYGpODVVhbwQcmhOGzGna4JCqtbYzskzUyUjWku8phk
BaToYBIx2NvRfoPGEZ2kewi6O7k0m0aTLAF7o10t76YyKZsVoPUZkRshs/ZN8h02
hVmZUHCST+bf6t3R8cb+rYGCzsTQJbdgFExrTQxpxuJ6y5KhWWk3R4Ho0gL6CyJN
GA8yfGgHtGf5Ntv2oHfaaKgLfmUi1wv9ZRG0j6m3IFCBsNdxzHYRWyidfZghxx/V
odamEs7HkF2gIgM+46oXpc279C7Z5WHeJPY9j59OlwJhkQ4oogL/qXtSwjMmoyZ9
wkPjkTbJVeG4EsI5/l4oaeoT+b4qcg1w
-----END CERTIFICATE-----
