Certificate:
    Data:
        Version: 3 (0x2)
        Serial Number: 13629438167319141160 (0xbd257dcd23355b28)
    Signature Algorithm: md5WithRSAEncryption
        Issuer: CN=Test Root CA
        Validity
            Not Before: Jun 28 00:12:46 2013 GMT
            Not After : Jun 26 00:12:46 2023 GMT
        Subject: CN=Test Root CA
        Subject Public Key Info:
            Public Key Algorithm: rsaEncryption
                Public-Key: (2048 bit)
                Modulus:
                    00:cf:54:79:c5:64:b3:a9:90:4f:9f:65:9a:8b:4e:
                    f1:70:be:71:04:da:98:e0:c6:0e:93:fe:d5:5d:31:
                    66:2f:13:61:65:0e:67:b0:6e:e9:ce:71:d5:03:57:
                    b4:a3:34:0c:7d:c1:50:1d:34:54:9b:92:61:94:4e:
                    bc:9e:ad:a7:af:ff:c3:30:42:00:f8:a8:aa:23:28:
                    b5:23:e2:58:7c:af:98:ed:22:bb:c2:38:fb:6f:bf:
                    de:da:41:49:23:e0:ed:7f:04:4b:35:ba:4f:99:bf:
                    b4:c1:9d:dc:91:f6:77:b3:b5:01:ea:a3:1e:bf:24:
                    15:27:c3:35:70:10:bf:ca:7f:a0:69:9b:3f:11:a9:
                    2c:70:b7:f0:e1:bb:77:c1:7b:92:b9:44:08:fd:0d:
                    31:58:4f:33:dc:03:6d:41:32:4f:bb:a1:cb:55:bc:
                    c3:f9:70:0a:f8:b8:c8:86:52:86:ca:5d:c1:8f:71:
                    7b:b6:e2:c8:18:a3:4e:ed:33:21:4d:89:ce:e3:e6:
                    4c:28:19:4f:53:84:f4:2b:a7:01:6c:bb:57:fb:6b:
                    f6:bf:08:2a:fe:e4:a6:36:12:c6:78:c7:b2:56:0d:
                    03:27:e5:4c:86:cc:43:dd:49:01:78:35:f8:1d:e4:
                    f1:2e:5c:14:51:51:8b:2c:b4:8a:7a:67:57:8d:2d:
                    3f:f5
                Exponent: 65537 (0x10001)
        X509v3 extensions:
            X509v3 Basic Constraints: critical
                CA:TRUE
            X509v3 Subject Key Identifier: 
                48:D7:06:DC:B7:D3:0C:D6:3A:F3:A3:7F:12:D4:44:4D:BC:0B:9A:E7
            X509v3 Key Usage: critical
                Certificate Sign, CRL Sign
    Signature Algorithm: md5WithRSAEncryption
         3e:87:a1:f1:b2:e3:70:2b:6c:9d:6b:a7:18:34:4c:69:29:cc:
         63:b1:c7:5c:4a:d1:4f:0c:97:db:e6:1b:92:16:d2:ac:f4:ae:
         7a:68:50:5f:06:c2:18:70:62:a5:7d:ee:35:d8:2c:8c:42:8d:
         d9:64:32:6d:88:d7:f9:62:56:b7:c6:d9:ae:ed:e1:a9:8f:e4:
         4f:97:fc:d8:21:fb:9b:86:eb:79:5b:93:c5:c1:51:ba:2c:48:
         36:83:e0:96:ab:10:9e:8c:1b:23:84:a5:2d:81:28:c0:8e:31:
         91:99:9a:3a:31:8d:c0:c4:3b:92:60:0c:ea:b1:a2:37:62:88:
         70:fc:9a:7b:2e:3c:a5:58:f7:d1:43:f4:e3:57:ea:1d:5e:1d:
         98:69:62:d9:1e:25:45:08:92:05:15:51:5b:85:97:23:66:06:
         45:2a:81:6b:7a:c9:d8:c6:46:14:cf:6e:85:c6:32:55:e5:4b:
         b3:f2:e9:ca:a1:c7:1d:e0:c4:a3:d2:c2:39:2a:a8:88:d2:d1:
         46:5c:78:10:c2:c4:fb:84:d9:0b:cd:17:54:fb:64:74:91:b7:
         ca:51:ce:f7:5b:f4:3d:e5:75:60:5b:ed:6a:6f:69:f1:fb:b0:
         e6:1e:08:09:51:0b:7b:8b:ab:20:ba:33:b7:c1:d8:f2:c7:2c:
         8f:2b:05:55
-----BEGIN CERTIFICATE-----
MIIC8zCCAdugAwIBAgIJAL0lfc0jNVsoMA0GCSqGSIb3DQEBBAUAMBcxFTATBgNV
BAMMDFRlc3QgUm9vdCBDQTAeFw0xMzA2MjgwMDEyNDZaFw0yMzA2MjYwMDEyNDZa
MBcxFTATBgNVBAMMDFRlc3QgUm9vdCBDQTCCASIwDQYJKoZIhvcNAQEBBQADggEP
ADCCAQoCggEBAM9UecVks6mQT59lmotO8XC+cQTamODGDpP+1V0xZi8TYWUOZ7Bu
6c5x1QNXtKM0DH3BUB00VJuSYZROvJ6tp6//wzBCAPioqiMotSPiWHyvmO0iu8I4
+2+/3tpBSSPg7X8ESzW6T5m/tMGd3JH2d7O1AeqjHr8kFSfDNXAQv8p/oGmbPxGp
LHC38OG7d8F7krlECP0NMVhPM9wDbUEyT7uhy1W8w/lwCvi4yIZShspdwY9xe7bi
yBijTu0zIU2JzuPmTCgZT1OE9CunAWy7V/tr9r8IKv7kpjYSxnjHslYNAyflTIbM
Q91JAXg1+B3k8S5cFFFRiyy0inpnV40tP/UCAwEAAaNCMEAwDwYDVR0TAQH/BAUw
AwEB/zAdBgNVHQ4EFgQUSNcG3LfTDNY686N/EtRETbwLmucwDgYDVR0PAQH/BAQD
AgEGMA0GCSqGSIb3DQEBBAUAA4IBAQA+h6HxsuNwK2yda6cYNExpKcxjscdcStFP
DJfb5huSFtKs9K56aFBfBsIYcGKlfe412CyMQo3ZZDJtiNf5Yla3xtmu7eGpj+RP
l/zYIfubhut5W5PFwVG6LEg2g+CWqxCejBsjhKUtgSjAjjGRmZo6MY3AxDuSYAzq
saI3Yohw/Jp7LjylWPfRQ/TjV+odXh2YaWLZHiVFCJIFFVFbhZcjZgZFKoFresnY
xkYUz26FxjJV5Uuz8unKoccd4MSj0sI5KqiI0tFGXHgQwsT7hNkLzRdU+2R0kbfK
Uc73W/Q95XVgW+1qb2nx+7DmHggJUQt7i6sgujO3wdjyxyyPKwVV
-----END CERTIFICATE-----
