Certificate:
    Data:
        Version: 3 (0x2)
        Serial Number: 18221780775539835148 (0xfce0c5127d18010c)
    Signature Algorithm: sha1WithRSAEncryption
        Issuer: CN=Test Root CA
        Validity
            Not Before: Jun 28 00:12:46 2013 GMT
            Not After : Jun 26 00:12:46 2023 GMT
        Subject: CN=Test Root CA
        Subject Public Key Info:
            Public Key Algorithm: rsaEncryption
                Public-Key: (2048 bit)
                Modulus:
                    00:cf:54:79:c5:64:b3:a9:90:4f:9f:65:9a:8b:4e:
                    f1:70:be:71:04:da:98:e0:c6:0e:93:fe:d5:5d:31:
                    66:2f:13:61:65:0e:67:b0:6e:e9:ce:71:d5:03:57:
                    b4:a3:34:0c:7d:c1:50:1d:34:54:9b:92:61:94:4e:
                    bc:9e:ad:a7:af:ff:c3:30:42:00:f8:a8:aa:23:28:
                    b5:23:e2:58:7c:af:98:ed:22:bb:c2:38:fb:6f:bf:
                    de:da:41:49:23:e0:ed:7f:04:4b:35:ba:4f:99:bf:
                    b4:c1:9d:dc:91:f6:77:b3:b5:01:ea:a3:1e:bf:24:
                    15:27:c3:35:70:10:bf:ca:7f:a0:69:9b:3f:11:a9:
                    2c:70:b7:f0:e1:bb:77:c1:7b:92:b9:44:08:fd:0d:
                    31:58:4f:33:dc:03:6d:41:32:4f:bb:a1:cb:55:bc:
                    c3:f9:70:0a:f8:b8:c8:86:52:86:ca:5d:c1:8f:71:
                    7b:b6:e2:c8:18:a3:4e:ed:33:21:4d:89:ce:e3:e6:
                    4c:28:19:4f:53:84:f4:2b:a7:01:6c:bb:57:fb:6b:
                    f6:bf:08:2a:fe:e4:a6:36:12:c6:78:c7:b2:56:0d:
                    03:27:e5:4c:86:cc:43:dd:49:01:78:35:f8:1d:e4:
                    f1:2e:5c:14:51:51:8b:2c:b4:8a:7a:67:57:8d:2d:
                    3f:f5
                Exponent: 65537 (0x10001)
        X509v3 extensions:
            X509v3 Basic Constraints: critical
                CA:TRUE
            X509v3 Subject Key Identifier: 
                48:D7:06:DC:B7:D3:0C:D6:3A:F3:A3:7F:12:D4:44:4D:BC:0B:9A:E7
            X509v3 Key Usage: critical
                Certificate Sign, CRL Sign
    Signature Algorithm: sha1WithRSAEncryption
         0d:83:79:c0:6b:7d:9e:fb:6a:a5:02:0b:53:3c:3c:38:ed:1f:
         bf:94:69:fc:66:56:19:86:a3:f7:72:5a:86:12:e6:d5:29:d9:
         75:5c:fe:a6:bf:15:05:cb:e1:3c:a1:2a:5c:b4:65:70:ed:1d:
         80:6d:50:8f:a5:d8:e9:22:c2:f5:53:71:6a:c1:15:87:03:11:
         5f:59:29:54:11:e7:c9:17:97:1e:56:46:ba:6e:c8:16:ae:3f:
         fd:af:a4:87:39:a2:14:1a:c8:94:bc:c5:b8:40:2e:41:e3:a5:
         bb:02:eb:d5:c1:74:b2:94:5c:b6:48:8c:83:57:54:56:aa:e6:
         cf:fb:23:4e:48:14:a9:b6:0c:c0:de:8e:67:83:d4:77:51:ee:
         75:4f:6e:d1:7c:5a:5b:3b:61:e0:73:47:0a:da:6f:52:62:34:
         db:37:8e:b0:66:1f:69:7e:e9:74:17:97:6d:3a:67:9d:0b:a3:
         24:8b:24:ce:0d:6d:29:30:08:ed:58:43:37:1f:ae:05:3b:e3:
         f1:d4:f4:95:ba:3b:d9:07:07:7f:26:6c:70:93:d9:8e:2c:04:
         b0:fe:a1:71:6c:0e:dd:a6:d0:73:59:a8:e0:a0:60:a6:02:cd:
         fc:ca:ca:da:7e:67:c1:4a:93:a6:57:3b:a5:2c:e0:f2:d8:58:
         a7:5d:ab:4b
-----BEGIN CERTIFICATE-----
MIIC8zCCAdugAwIBAgIJAPzgxRJ9GAEMMA0GCSqGSIb3DQEBBQUAMBcxFTATBgNV
BAMMDFRlc3QgUm9vdCBDQTAeFw0xMzA2MjgwMDEyNDZaFw0yMzA2MjYwMDEyNDZa
MBcxFTATBgNVBAMMDFRlc3QgUm9vdCBDQTCCASIwDQYJKoZIhvcNAQEBBQADggEP
ADCCAQoCggEBAM9UecVks6mQT59lmotO8XC+cQTamODGDpP+1V0xZi8TYWUOZ7Bu
6c5x1QNXtKM0DH3BUB00VJuSYZROvJ6tp6//wzBCAPioqiMotSPiWHyvmO0iu8I4
+2+/3tpBSSPg7X8ESzW6T5m/tMGd3JH2d7O1AeqjHr8kFSfDNXAQv8p/oGmbPxGp
LHC38OG7d8F7krlECP0NMVhPM9wDbUEyT7uhy1W8w/lwCvi4yIZShspdwY9xe7bi
yBijTu0zIU2JzuPmTCgZT1OE9CunAWy7V/tr9r8IKv7kpjYSxnjHslYNAyflTIbM
Q91JAXg1+B3k8S5cFFFRiyy0inpnV40tP/UCAwEAAaNCMEAwDwYDVR0TAQH/BAUw
AwEB/zAdBgNVHQ4EFgQUSNcG3LfTDNY686N/EtRETbwLmucwDgYDVR0PAQH/BAQD
AgEGMA0GCSqGSIb3DQEBBQUAA4IBAQANg3nAa32e+2qlAgtTPDw47R+/lGn8ZlYZ
hqP3clqGEubVKdl1XP6mvxUFy+E8oSpctGVw7R2AbVCPpdjpIsL1U3FqwRWHAxFf
WSlUEefJF5ceVka6bsgWrj/9r6SHOaIUGsiUvMW4QC5B46W7AuvVwXSylFy2SIyD
V1RWqubP+yNOSBSptgzA3o5ng9R3Ue51T27RfFpbO2Hgc0cK2m9SYjTbN46wZh9p
ful0F5dtOmedC6MkiyTODW0pMAjtWEM3H64FO+Px1PSVujvZBwd/Jmxwk9mOLASw
/qFxbA7dptBzWajgoGCmAs38ysrafmfBSpOmVzulLODy2FinXatL
-----END CERTIFICATE-----
