Certificate:
    Data:
        Version: 3 (0x2)
        Serial Number: 4098 (0x1002)
        Signature Algorithm: sha256WithRSAEncryption
        Issuer: CN=E Root CA
        Validity
            Not Before: Jan  2 00:00:00 2016 GMT
            Not After : Jan  2 00:00:00 2026 GMT
        Subject: CN=F CA
        Subject Public Key Info:
            Public Key Algorithm: rsaEncryption
            RSA Public Key: (2048 bit)
                Modulus (2048 bit):
                    00:9c:03:f6:3a:b6:1a:2e:f6:31:c6:97:e8:e8:47:
                    d2:ed:cf:b1:1d:89:05:55:fe:3a:3c:ca:33:83:c5:
                    cb:b2:fc:fc:cc:53:98:f4:9a:a1:51:eb:11:5b:74:
                    6b:d0:1c:b7:59:8f:ba:34:0b:17:9e:43:70:70:c1:
                    d8:d6:da:31:27:03:81:44:38:3f:b1:34:b8:98:85:
                    e9:ef:10:05:9d:03:cc:4a:52:af:01:0e:19:02:c4:
                    89:9a:0c:69:e3:2d:fc:47:12:1e:17:c0:cb:5e:aa:
                    dd:e1:7f:8b:8f:9e:25:e1:74:4c:bf:90:2b:5e:23:
                    85:95:11:67:ab:22:87:ac:d1:69:ab:df:96:90:4b:
                    d4:5a:57:1b:be:23:c5:c6:45:17:48:87:36:8b:ba:
                    a4:ce:b4:a8:1f:28:9e:b8:4e:c7:86:37:17:90:2a:
                    02:87:d0:ac:45:e6:ad:32:e3:6c:b9:e2:be:b8:60:
                    c0:cb:65:e8:b6:59:54:f0:1a:47:76:f2:c0:2c:5c:
                    bf:2f:76:05:85:90:e4:ab:3b:ea:98:04:70:1d:60:
                    cf:d1:8b:3d:68:51:aa:8e:d4:3f:b5:fa:db:61:4d:
                    f8:f8:d9:d7:17:3f:14:2e:6d:af:76:8f:4f:cd:7b:
                    15:65:34:34:b7:24:51:9f:89:a9:eb:f0:09:cc:3a:
                    23:b1
                Exponent: 65537 (0x10001)
        X509v3 extensions:
            X509v3 Basic Constraints: critical
                CA:TRUE
            X509v3 Subject Key Identifier: 
                6C:C0:28:78:3E:A8:BE:06:4C:85:97:F7:D6:F1:AE:44:39:E4:C1:79
            X509v3 Key Usage: critical
                Certificate Sign, CRL Sign
    Signature Algorithm: sha256WithRSAEncryption
        45:04:40:0e:a4:a0:6f:35:52:58:b8:b3:70:7f:a4:b5:2d:e0:
        74:d3:59:93:7a:0a:a4:a4:ee:f9:2e:c3:7f:d0:52:4a:d2:58:
        9d:22:17:73:3f:e0:6b:a6:2b:ee:11:01:1e:d3:4b:e4:cd:b1:
        51:fe:c2:0a:60:17:4c:86:e8:9b:62:29:93:97:9a:bf:7b:8b:
        d2:f6:11:14:68:d2:d4:59:bf:15:03:98:e4:e6:31:b8:8f:aa:
        b5:98:db:fa:a5:84:54:69:15:80:70:db:43:fd:45:76:19:1d:
        d5:e5:fc:ff:b0:a4:5d:ed:b1:3a:ac:21:44:5a:00:b8:a1:dc:
        88:f4:96:82:f1:04:06:5a:16:7d:c9:49:1a:62:92:a4:03:28:
        32:95:2d:9f:ed:9e:4c:5c:22:5f:dd:7f:1f:90:fc:a4:fd:a3:
        9c:3b:45:70:eb:f5:29:40:c1:9d:73:86:14:6d:40:70:e5:94:
        d8:55:79:78:b2:e4:82:61:c7:a2:3d:49:86:23:f5:4e:e9:8b:
        22:1d:1e:7e:83:3f:f3:d5:ab:f5:91:cd:bd:8c:3f:ef:28:de:
        66:19:c2:39:68:e9:30:4a:43:2e:d0:c9:50:fb:f1:56:4d:c5:
        ad:46:e6:db:80:3e:b8:f4:5f:c1:55:9d:de:aa:72:ab:db:65:
        71:a9:78:47
-----BEGIN CERTIFICATE-----
MIIC4TCCAcmgAwIBAgICEAIwDQYJKoZIhvcNAQELBQAwFDESMBAGA1UEAwwJRSBS
b290IENBMB4XDTE2MDEwMjAwMDAwMFoXDTI2MDEwMjAwMDAwMFowDzENMAsGA1UE
AwwERiBDQTCCASIwDQYJKoZIhvcNAQEBBQADggEPADCCAQoCggEBAJwD9jq2Gi72
McaX6OhH0u3PsR2JBVX+OjzKM4PFy7L8/MxTmPSaoVHrEVt0a9Act1mPujQLF55D
cHDB2NbaMScDgUQ4P7E0uJiF6e8QBZ0DzEpSrwEOGQLEiZoMaeMt/EcSHhfAy16q
3eF/i4+eJeF0TL+QK14jhZURZ6sih6zRaavflpBL1FpXG74jxcZFF0iHNou6pM60
qB8onrhOx4Y3F5AqAofQrEXmrTLjbLnivrhgwMtl6LZZVPAaR3bywCxcvy92BYWQ
5Ks76pgEcB1gz9GLPWhRqo7UP7X622FN+PjZ1xc/FC5tr3aPT817FWU0NLckUZ+J
qevwCcw6I7ECAwEAAaNCMEAwDwYDVR0TAQH/BAUwAwEB/zAdBgNVHQ4EFgQUbMAo
eD6ovgZMhZf31vGuRDnkwXkwDgYDVR0PAQH/BAQDAgEGMA0GCSqGSIb3DQEBCwUA
A4IBAQBFBEAOpKBvNVJYuLNwf6S1LeB001mTegqkpO75LsN/0FJK0lidIhdzP+Br
pivuEQEe00vkzbFR/sIKYBdMhuibYimTl5q/e4vS9hEUaNLUWb8VA5jk5jG4j6q1
mNv6pYRUaRWAcNtD/UV2GR3V5fz/sKRd7bE6rCFEWgC4odyI9JaC8QQGWhZ9yUka
YpKkAygylS2f7Z5MXCJf3X8fkPyk/aOcO0Vw6/UpQMGdc4YUbUBw5ZTYVXl4suSC
YceiPUmGI/VO6YsiHR5+gz/z1av1kc29jD/vKN5mGcI5aOkwSkMu0MlQ+/FWTcWt
RubbgD649F/BVZ3eqnKr22VxqXhH
-----END CERTIFICATE-----
