Certificate:
    Data:
        Version: 3 (0x2)
        Serial Number: 4096 (0x1000)
        Signature Algorithm: sha256WithRSAEncryption
        Issuer: CN=D Root CA
        Validity
            Not Before: Jan  2 00:00:00 2016 GMT
            Not After : Jan  2 00:00:00 2026 GMT
        Subject: CN=D Root CA
        Subject Public Key Info:
            Public Key Algorithm: rsaEncryption
            RSA Public Key: (2048 bit)
                Modulus (2048 bit):
                    00:e4:63:48:86:4d:1f:34:4d:c9:b2:f3:14:af:d3:
                    ec:68:bd:ac:b6:ac:e4:11:fd:81:d3:4c:7c:dd:03:
                    d7:4e:44:30:9d:53:7a:4d:cf:25:29:ef:b5:f5:83:
                    b3:30:10:3b:97:f2:63:8c:40:41:fd:18:88:81:c5:
                    53:26:90:f7:77:b1:01:5f:d7:7a:04:73:85:9a:b3:
                    e8:6e:40:7b:6a:2b:1c:b4:0f:52:83:ad:08:cb:58:
                    c2:71:87:85:b3:81:8c:21:88:aa:d5:4f:0b:84:c8:
                    52:b0:cf:c4:cf:c7:72:8f:6a:2f:07:a2:2b:33:3d:
                    6c:aa:00:1f:ef:c9:61:f6:58:8d:3a:8f:23:6b:75:
                    a0:cf:86:9d:02:0f:ca:2b:d2:75:f3:b6:fe:14:26:
                    31:d4:31:28:e4:d1:cf:f7:4d:12:58:d8:ac:f8:d3:
                    f2:ae:d6:6e:72:dc:07:b8:d2:f2:76:0d:bf:a3:c1:
                    18:63:58:55:84:4f:a5:82:d3:8f:17:8d:e1:0f:5a:
                    9e:7f:69:01:4c:da:90:a1:33:b2:36:4f:91:3d:1f:
                    0b:ea:8c:0d:ca:ff:e7:d1:0c:e0:ce:5b:54:6a:b9:
                    ed:46:38:8c:80:d4:24:9c:71:48:23:80:61:b8:71:
                    d4:8f:0d:96:b2:c1:f0:29:fc:c7:dd:9d:87:7a:f4:
                    16:0d
                Exponent: 65537 (0x10001)
        X509v3 extensions:
            X509v3 Basic Constraints: critical
                CA:TRUE
            X509v3 Subject Key Identifier: 
                B4:73:D6:1A:33:13:BC:9C:23:5D:F6:4B:A2:29:BD:F8:DC:73:49:11
            X509v3 Key Usage: critical
                Certificate Sign, CRL Sign
    Signature Algorithm: sha256WithRSAEncryption
        6d:f2:9a:c2:eb:36:2b:45:ad:58:b5:59:68:e9:64:ad:75:18:
        c0:73:b3:42:a4:ff:c3:25:02:f6:91:9b:a4:4d:0d:3d:49:3e:
        d2:6b:c5:75:89:48:7b:fa:34:40:4d:06:4e:a6:cf:c5:3c:d5:
        c2:a8:0e:77:2e:66:f1:fb:28:80:15:06:68:cb:9e:8e:27:1b:
        22:02:9f:c2:6b:fc:48:b0:20:25:4b:32:6a:db:99:53:89:4e:
        86:b7:a7:48:ed:1a:3a:f3:87:54:c6:e8:59:a3:95:49:31:39:
        01:54:56:ee:a8:6a:ba:f2:34:30:e1:75:84:1a:a6:4e:14:e0:
        25:58:8a:88:dc:2a:58:1e:22:c6:00:62:57:6d:d8:c3:2e:a6:
        19:05:8f:b9:b9:f3:e9:3e:39:4f:0a:1a:cc:59:ca:b6:89:29:
        59:b3:ad:92:86:8f:c0:ba:7d:7f:55:27:c6:db:aa:b0:0c:45:
        73:cc:18:6e:4d:0e:16:61:ad:d9:96:b6:d5:3e:29:e1:59:8c:
        4e:c9:6c:7a:63:0b:9b:37:0d:d6:31:bf:8c:90:33:97:60:f5:
        3b:24:1a:ad:eb:d0:8b:3c:0f:1c:0a:52:4b:83:ec:35:96:c6:
        bb:67:3b:d7:19:78:dc:49:25:c8:b2:44:f5:26:e7:5d:35:4f:
        6a:bd:00:0f
-----BEGIN CERTIFICATE-----
MIIC5jCCAc6gAwIBAgICEAAwDQYJKoZIhvcNAQELBQAwFDESMBAGA1UEAwwJRCBS
b290IENBMB4XDTE2MDEwMjAwMDAwMFoXDTI2MDEwMjAwMDAwMFowFDESMBAGA1UE
AwwJRCBSb290IENBMIIBIjANBgkqhkiG9w0BAQEFAAOCAQ8AMIIBCgKCAQEA5GNI
hk0fNE3JsvMUr9PsaL2stqzkEf2B00x83QPXTkQwnVN6Tc8lKe+19YOzMBA7l/Jj
jEBB/RiIgcVTJpD3d7EBX9d6BHOFmrPobkB7aisctA9Sg60Iy1jCcYeFs4GMIYiq
1U8LhMhSsM/Ez8dyj2ovB6IrMz1sqgAf78lh9liNOo8ja3Wgz4adAg/KK9J187b+
FCYx1DEo5NHP900SWNis+NPyrtZuctwHuNLydg2/o8EYY1hVhE+lgtOPF43hD1qe
f2kBTNqQoTOyNk+RPR8L6owNyv/n0QzgzltUarntRjiMgNQknHFII4BhuHHUjw2W
ssHwKfzH3Z2HevQWDQIDAQABo0IwQDAPBgNVHRMBAf8EBTADAQH/MB0GA1UdDgQW
BBS0c9YaMxO8nCNd9kuiKb343HNJETAOBgNVHQ8BAf8EBAMCAQYwDQYJKoZIhvcN
AQELBQADggEBAG3ymsLrNitFrVi1WWjpZK11GMBzs0Kk/8MlAvaRm6RNDT1JPtJr
xXWJSHv6NEBNBk6mz8U81cKoDncuZvH7KIAVBmjLno4nGyICn8Jr/EiwICVLMmrb
mVOJToa3p0jtGjrzh1TG6FmjlUkxOQFUVu6oarryNDDhdYQapk4U4CVYiojcKlge
IsYAYldt2MMuphkFj7m58+k+OU8KGsxZyraJKVmzrZKGj8C6fX9VJ8bbqrAMRXPM
GG5NDhZhrdmWttU+KeFZjE7JbHpjC5s3DdYxv4yQM5dg9TskGq3r0Is8DxwKUkuD
7DWWxrtnO9cZeNxJJciyRPUm5101T2q9AA8=
-----END CERTIFICATE-----
