Certificate:
    Data:
        Version: 3 (0x2)
        Serial Number: 4097 (0x1001)
        Signature Algorithm: sha256WithRSAEncryption
        Issuer: CN=D Root CA
        Validity
            Not Before: Jan  3 00:00:00 2016 GMT
            Not After : Jan  2 00:00:00 2026 GMT
        Subject: CN=C CA
        Subject Public Key Info:
            Public Key Algorithm: rsaEncryption
            RSA Public Key: (2048 bit)
                Modulus (2048 bit):
                    00:c2:21:aa:d2:67:ec:f5:95:9e:c9:00:f2:ee:83:
                    26:6c:3c:30:d4:a8:78:dd:0a:a5:d6:81:f0:54:25:
                    de:8f:9a:0e:8f:5c:06:96:b0:83:b7:13:56:33:9e:
                    d1:6a:7d:45:40:d8:e5:21:1d:c5:6d:31:34:6f:45:
                    22:cf:6f:01:b4:f8:6c:ce:70:d0:e9:0e:ed:04:d9:
                    34:7a:91:db:6f:90:94:66:95:26:0b:29:26:4c:6c:
                    8b:e3:13:a1:42:29:59:a0:2c:fe:83:a5:3c:3d:e8:
                    32:ac:37:a7:ae:b2:79:d3:12:98:5f:c7:fd:4c:49:
                    6b:e4:32:40:76:7b:78:ae:a1:61:b1:0a:d1:5c:f3:
                    96:13:5f:95:5a:a2:35:c5:63:1b:25:05:8d:3c:08:
                    d0:b0:28:2a:f3:f6:34:ab:a5:cd:e7:82:2c:35:38:
                    8b:f5:41:6c:71:32:c4:13:67:ef:9b:8f:32:ab:7c:
                    da:e1:6a:92:4b:5b:9e:39:7e:6b:00:f8:8d:e2:b3:
                    3b:ad:2f:11:3f:80:d5:19:0e:cc:d4:c1:21:42:46:
                    42:2d:d0:5e:ae:63:d1:0a:3e:66:fb:eb:0b:9b:e4:
                    fe:7a:ca:43:5c:cc:98:6a:e1:fd:32:18:4c:63:4c:
                    cd:98:9b:be:fa:5b:2d:c4:76:cc:8d:e5:6d:aa:bb:
                    5a:37
                Exponent: 65537 (0x10001)
        X509v3 extensions:
            X509v3 Basic Constraints: critical
                CA:TRUE
            X509v3 Subject Key Identifier: 
                34:19:53:D9:DA:11:B1:FF:00:35:2B:37:00:91:1F:91:C0:F7:2E:0A
            X509v3 Key Usage: critical
                Certificate Sign, CRL Sign
    Signature Algorithm: sha256WithRSAEncryption
        5a:aa:0a:cb:92:8a:cd:ca:49:b4:5e:34:32:46:0a:9e:fd:71:
        30:dd:af:b8:9a:6c:82:87:59:27:ed:df:11:1f:13:fa:c9:d9:
        fb:8a:e8:ba:7c:67:33:7e:ea:42:f3:1c:34:91:5c:5f:ed:68:
        d7:dc:06:8d:6a:75:38:42:4f:eb:52:55:84:c6:74:9d:53:87:
        d6:34:64:19:19:4c:6d:b7:3a:f9:e8:8a:14:4d:00:ec:07:71:
        00:6c:05:80:94:4b:4f:e7:a4:db:26:ee:e1:2b:98:d6:ad:ca:
        32:ab:d6:3a:23:83:30:e8:33:82:82:7d:a5:1e:00:97:be:a8:
        0f:68:d7:ae:8a:4a:52:be:d7:b5:0a:49:4d:a8:f1:25:e3:de:
        41:37:6a:53:1c:b5:0e:b0:fd:b6:db:25:b6:a2:cb:ff:d8:7f:
        98:30:84:15:f0:27:b5:fd:a3:71:35:ad:4c:83:8c:d1:da:49:
        a5:97:b3:7d:80:6f:03:40:fe:a3:22:38:58:70:6d:43:01:63:
        db:fb:ca:b6:5f:fc:f0:45:b3:57:5a:a6:cc:b9:d0:99:a8:f6:
        a4:4f:c6:20:a5:6e:dd:e0:3b:e7:b2:0a:8b:6f:4d:6f:67:57:
        e7:c4:58:80:26:5d:1d:27:f9:3e:22:ed:00:bc:fa:8d:8d:eb:
        bb:ab:91:a9
-----BEGIN CERTIFICATE-----
MIIC4TCCAcmgAwIBAgICEAEwDQYJKoZIhvcNAQELBQAwFDESMBAGA1UEAwwJRCBS
b290IENBMB4XDTE2MDEwMzAwMDAwMFoXDTI2MDEwMjAwMDAwMFowDzENMAsGA1UE
AwwEQyBDQTCCASIwDQYJKoZIhvcNAQEBBQADggEPADCCAQoCggEBAMIhqtJn7PWV
nskA8u6DJmw8MNSoeN0KpdaB8FQl3o+aDo9cBpawg7cTVjOe0Wp9RUDY5SEdxW0x
NG9FIs9vAbT4bM5w0OkO7QTZNHqR22+QlGaVJgspJkxsi+MToUIpWaAs/oOlPD3o
Mqw3p66yedMSmF/H/UxJa+QyQHZ7eK6hYbEK0VzzlhNflVqiNcVjGyUFjTwI0LAo
KvP2NKulzeeCLDU4i/VBbHEyxBNn75uPMqt82uFqkktbnjl+awD4jeKzO60vET+A
1RkOzNTBIUJGQi3QXq5j0Qo+ZvvrC5vk/nrKQ1zMmGrh/TIYTGNMzZibvvpbLcR2
zI3lbaq7WjcCAwEAAaNCMEAwDwYDVR0TAQH/BAUwAwEB/zAdBgNVHQ4EFgQUNBlT
2doRsf8ANSs3AJEfkcD3LgowDgYDVR0PAQH/BAQDAgEGMA0GCSqGSIb3DQEBCwUA
A4IBAQBaqgrLkorNykm0XjQyRgqe/XEw3a+4mmyCh1kn7d8RHxP6ydn7iui6fGcz
fupC8xw0kVxf7WjX3AaNanU4Qk/rUlWExnSdU4fWNGQZGUxttzr56IoUTQDsB3EA
bAWAlEtP56TbJu7hK5jWrcoyq9Y6I4Mw6DOCgn2lHgCXvqgPaNeuikpSvte1CklN
qPEl495BN2pTHLUOsP222yW2osv/2H+YMIQV8Ce1/aNxNa1Mg4zR2kmll7N9gG8D
QP6jIjhYcG1DAWPb+8q2X/zwRbNXWqbMudCZqPakT8YgpW7d4DvnsgqLb01vZ1fn
xFiAJl0dJ/k+Iu0AvPqNjeu7q5Gp
-----END CERTIFICATE-----
