Certificate:
    Data:
        Version: 3 (0x2)
        Serial Number: 4096 (0x1000)
        Signature Algorithm: sha256WithRSAEncryption
        Issuer: CN=F CA
        Validity
            Not Before: Jan  5 00:00:00 2016 GMT
            Not After : Jan  2 00:00:00 2026 GMT
        Subject: CN=B CA
        Subject Public Key Info:
            Public Key Algorithm: rsaEncryption
            RSA Public Key: (2048 bit)
                Modulus (2048 bit):
                    00:a2:a0:93:17:1e:ee:f0:fb:87:1f:71:ca:6b:b9:
                    bd:2d:67:38:2a:24:c7:c3:c2:88:4d:ca:f2:50:33:
                    60:1d:6f:61:a5:61:02:a4:a7:76:2b:89:43:78:a7:
                    0a:27:04:dc:a5:5b:6e:a8:4c:29:f2:25:c6:c0:32:
                    20:e0:01:8d:a1:16:15:c9:b5:d8:17:7d:e0:e8:90:
                    89:a3:f5:96:1f:90:c6:e3:10:1a:f9:f5:6a:d5:41:
                    ce:cd:a8:fc:36:77:2f:a2:d7:8e:39:50:36:65:4d:
                    a7:83:6c:e1:a4:cc:f6:6b:c0:7b:c8:98:f4:01:3f:
                    94:d3:d6:11:1d:b3:ef:95:c8:ea:07:d9:5e:fd:82:
                    4f:23:4d:08:89:fb:68:2d:82:12:98:e0:87:f2:7a:
                    c7:76:98:4c:ca:1d:3e:e8:bc:72:dd:b0:b7:41:84:
                    6e:39:cd:a9:35:e8:ee:2a:d1:54:cd:21:ed:6f:a4:
                    ab:e9:d8:c9:d2:e9:11:66:66:78:33:ae:d8:78:75:
                    ac:1e:ad:0e:23:82:35:13:96:ed:eb:3e:58:eb:27:
                    fb:1b:fd:27:6e:f0:c3:ff:88:cc:cc:63:35:23:3d:
                    ce:4d:2e:2d:dc:b3:91:8e:d8:d8:5b:6a:92:28:c5:
                    e9:a4:02:76:34:e0:6d:41:61:43:71:e1:59:b3:c2:
                    ce:f7
                Exponent: 65537 (0x10001)
        X509v3 extensions:
            X509v3 Basic Constraints: critical
                CA:TRUE
            X509v3 Subject Key Identifier: 
                0D:AF:BC:C3:31:09:C6:9D:F8:44:D2:51:E8:13:FF:24:78:9D:83:76
            X509v3 Key Usage: critical
                Certificate Sign, CRL Sign
    Signature Algorithm: sha256WithRSAEncryption
        97:0b:58:06:81:05:d1:e6:dd:04:fd:36:f6:e5:97:70:1f:b0:
        81:e5:9e:1e:d7:c2:47:31:0d:a2:0d:f8:f3:b3:db:71:7a:30:
        9f:4f:de:ba:e8:de:d1:b8:e8:a5:34:79:89:1d:46:b1:8e:ad:
        ff:5c:79:00:e9:08:b7:55:20:26:3e:cd:c3:18:b0:dc:c9:74:
        0b:2a:3c:90:3a:53:36:f4:33:b8:92:38:01:5a:7c:ab:ea:b2:
        33:bf:5b:8b:58:92:05:9f:0f:d6:ed:06:21:7d:71:b1:c8:a4:
        13:61:ef:59:09:d1:0a:c3:d1:91:5c:d7:87:59:a6:50:9c:66:
        bd:b7:24:d2:5f:a5:24:93:51:62:6e:57:35:d7:76:96:58:e2:
        44:4a:2a:03:37:25:7f:aa:c6:c8:5d:68:77:4a:f4:be:b8:be:
        fc:33:5f:86:71:32:09:24:38:7c:38:59:4d:dc:f2:23:17:22:
        0e:a5:44:b3:f6:e0:67:d1:f1:98:83:aa:6e:48:dd:d3:99:99:
        40:4f:18:3d:71:84:2c:58:e6:25:38:8f:14:de:54:3a:d3:8b:
        99:d6:aa:20:80:a2:50:27:a1:fa:28:6e:47:80:a7:33:c9:0c:
        4a:65:b7:6f:3c:97:b7:69:c7:20:16:01:ed:cb:eb:a5:82:f1:
        94:e6:8a:d7
-----BEGIN CERTIFICATE-----
MIIC3DCCAcSgAwIBAgICEAAwDQYJKoZIhvcNAQELBQAwDzENMAsGA1UEAwwERiBD
QTAeFw0xNjAxMDUwMDAwMDBaFw0yNjAxMDIwMDAwMDBaMA8xDTALBgNVBAMMBEIg
Q0EwggEiMA0GCSqGSIb3DQEBAQUAA4IBDwAwggEKAoIBAQCioJMXHu7w+4cfccpr
ub0tZzgqJMfDwohNyvJQM2Adb2GlYQKkp3YriUN4pwonBNylW26oTCnyJcbAMiDg
AY2hFhXJtdgXfeDokImj9ZYfkMbjEBr59WrVQc7NqPw2dy+i1445UDZlTaeDbOGk
zPZrwHvImPQBP5TT1hEds++VyOoH2V79gk8jTQiJ+2gtghKY4Ifyesd2mEzKHT7o
vHLdsLdBhG45zak16O4q0VTNIe1vpKvp2MnS6RFmZngzrth4dawerQ4jgjUTlu3r
PljrJ/sb/Sdu8MP/iMzMYzUjPc5NLi3cs5GO2NhbapIoxemkAnY04G1BYUNx4Vmz
ws73AgMBAAGjQjBAMA8GA1UdEwEB/wQFMAMBAf8wHQYDVR0OBBYEFA2vvMMxCcad
+ETSUegT/yR4nYN2MA4GA1UdDwEB/wQEAwIBBjANBgkqhkiG9w0BAQsFAAOCAQEA
lwtYBoEF0ebdBP029uWXcB+wgeWeHtfCRzENog3487PbcXown0/euuje0bjopTR5
iR1GsY6t/1x5AOkIt1UgJj7Nwxiw3Ml0Cyo8kDpTNvQzuJI4AVp8q+qyM79bi1iS
BZ8P1u0GIX1xscikE2HvWQnRCsPRkVzXh1mmUJxmvbck0l+lJJNRYm5XNdd2llji
REoqAzclf6rGyF1od0r0vri+/DNfhnEyCSQ4fDhZTdzyIxciDqVEs/bgZ9HxmIOq
bkjd05mZQE8YPXGELFjmJTiPFN5UOtOLmdaqIICiUCeh+ihuR4CnM8kMSmW3bzyX
t2nHIBYB7cvrpYLxlOaK1w==
-----END CERTIFICATE-----
