Certificate:
    Data:
        Version: 3 (0x2)
        Serial Number: 4096 (0x1000)
        Signature Algorithm: sha256WithRSAEncryption
        Issuer: CN=B CA
        Validity
            Not Before: Feb  8 23:34:58 2016 GMT
            Not After : Feb  5 23:34:58 2026 GMT
        Subject: C=US, ST=California, L=Mountain View, O=Test CA, CN=127.0.0.1
        Subject Public Key Info:
            Public Key Algorithm: rsaEncryption
            RSA Public Key: (2048 bit)
                Modulus (2048 bit):
                    00:ca:6c:3d:d6:ef:e6:c8:d4:a3:a8:52:e1:f8:5d:
                    f7:4e:77:ac:a3:64:6f:8b:d4:3e:cd:18:8c:39:f2:
                    10:64:f7:f3:61:1a:ce:8f:d8:32:1a:c1:f6:88:51:
                    0a:12:07:d5:88:5c:f5:45:56:d0:9f:87:17:78:de:
                    4d:d0:fd:fa:61:81:ef:a0:6b:38:02:3b:3d:8a:4e:
                    1f:25:74:f0:05:c3:1b:10:f3:a4:52:6d:68:83:af:
                    83:69:16:54:d4:f9:42:82:98:9e:92:4c:82:33:34:
                    29:b1:2f:60:d3:f2:00:3a:d6:9b:20:cc:27:57:be:
                    da:29:b4:74:f7:aa:f6:f0:5a:45:0e:85:da:02:d4:
                    c1:96:81:26:a0:a4:77:a5:54:b4:24:7a:f5:9f:e6:
                    08:42:ac:d8:ac:00:f7:fc:8a:43:0d:c9:b6:b7:a3:
                    4d:e6:50:d9:33:fa:18:28:b2:77:dd:a3:f5:fa:30:
                    32:f9:bf:25:2c:97:91:1f:69:26:5c:1e:e9:2b:24:
                    26:5d:90:91:b1:8e:5c:07:2a:bc:39:a4:07:b6:28:
                    84:dd:75:87:20:50:13:ab:b4:3c:51:23:e5:d7:ea:
                    89:f2:a9:fd:da:87:b0:d2:9a:14:20:ae:cf:f9:16:
                    1b:78:b8:a2:94:50:2f:86:4c:20:27:08:d0:44:80:
                    a3:79
                Exponent: 65537 (0x10001)
        X509v3 extensions:
            X509v3 Basic Constraints: critical
                CA:FALSE
            X509v3 Subject Key Identifier: 
                78:36:93:58:1F:73:7C:93:CA:AE:BB:9A:4E:A7:37:F1:83:03:4B:CF
            X509v3 Authority Key Identifier: 
                keyid:0D:AF:BC:C3:31:09:C6:9D:F8:44:D2:51:E8:13:FF:24:78:9D:83:76

            X509v3 Extended Key Usage: 
                TLS Web Server Authentication, TLS Web Client Authentication
    Signature Algorithm: sha256WithRSAEncryption
        5e:87:35:21:15:89:4e:ac:9a:8e:db:d2:dc:83:6e:9e:64:b9:
        30:f8:91:f7:9f:c4:de:b4:92:bf:05:4a:1b:e3:12:0f:b0:0d:
        d8:8f:fd:f9:e6:e8:2c:24:e0:88:cc:58:5d:3b:a3:23:95:86:
        b2:1f:0f:fb:02:95:c4:16:04:24:05:bb:65:e4:48:80:6e:64:
        33:ed:a0:71:7d:21:f5:6f:70:72:07:54:b2:e7:79:98:8d:b5:
        2b:0d:68:8e:3a:be:e3:91:f8:6a:60:d1:51:20:08:83:43:18:
        5a:49:e2:66:21:aa:df:d2:b1:90:96:5a:99:6f:64:a0:96:7f:
        e5:9b:3f:82:d5:42:8c:7d:fa:9f:b1:62:6c:e6:42:f6:1d:ab:
        aa:e2:a4:05:33:99:4e:67:18:46:14:16:23:b8:46:db:d1:28:
        a3:2c:2a:97:32:c3:02:e8:a0:9f:4f:e9:e6:c9:7e:c8:63:0d:
        ff:de:95:f4:4d:f0:ca:57:49:9a:07:4b:5a:13:96:bc:49:10:
        5c:3c:92:ce:1e:dd:10:d6:dc:6b:07:f0:ae:3e:0c:d0:05:1f:
        00:08:79:0c:2a:e5:03:96:7d:1e:cb:3f:b7:f6:30:07:39:66:
        8b:9a:b4:80:1c:e2:d2:7d:e8:bc:91:26:c5:9a:ec:a1:25:26:
        56:0a:7b:39
-----BEGIN CERTIFICATE-----
MIIDWjCCAkKgAwIBAgICEAAwDQYJKoZIhvcNAQELBQAwDzENMAsGA1UEAwwEQiBD
QTAeFw0xNjAyMDgyMzM0NThaFw0yNjAyMDUyMzM0NThaMGAxCzAJBgNVBAYTAlVT
MRMwEQYDVQQIDApDYWxpZm9ybmlhMRYwFAYDVQQHDA1Nb3VudGFpbiBWaWV3MRAw
DgYDVQQKDAdUZXN0IENBMRIwEAYDVQQDDAkxMjcuMC4wLjEwggEiMA0GCSqGSIb3
DQEBAQUAA4IBDwAwggEKAoIBAQDKbD3W7+bI1KOoUuH4XfdOd6yjZG+L1D7NGIw5
8hBk9/NhGs6P2DIawfaIUQoSB9WIXPVFVtCfhxd43k3Q/fphge+gazgCOz2KTh8l
dPAFwxsQ86RSbWiDr4NpFlTU+UKCmJ6STIIzNCmxL2DT8gA61psgzCdXvtoptHT3
qvbwWkUOhdoC1MGWgSagpHelVLQkevWf5ghCrNisAPf8ikMNyba3o03mUNkz+hgo
snfdo/X6MDL5vyUsl5EfaSZcHukrJCZdkJGxjlwHKrw5pAe2KITddYcgUBOrtDxR
I+XX6onyqf3ah7DSmhQgrs/5Fht4uKKUUC+GTCAnCNBEgKN5AgMBAAGjbzBtMAwG
A1UdEwEB/wQCMAAwHQYDVR0OBBYEFHg2k1gfc3yTyq67mk6nN/GDA0vPMB8GA1Ud
IwQYMBaAFA2vvMMxCcad+ETSUegT/yR4nYN2MB0GA1UdJQQWMBQGCCsGAQUFBwMB
BggrBgEFBQcDAjANBgkqhkiG9w0BAQsFAAOCAQEAXoc1IRWJTqyajtvS3INunmS5
MPiR95/E3rSSvwVKG+MSD7AN2I/9+eboLCTgiMxYXTujI5WGsh8P+wKVxBYEJAW7
ZeRIgG5kM+2gcX0h9W9wcgdUsud5mI21Kw1ojjq+45H4amDRUSAIg0MYWkniZiGq
39KxkJZamW9koJZ/5Zs/gtVCjH36n7FibOZC9h2rquKkBTOZTmcYRhQWI7hG29Eo
oywqlzLDAuign0/p5sl+yGMN/96V9E3wyldJmgdLWhOWvEkQXDySzh7dENbcawfw
rj4M0AUfAAh5DCrlA5Z9Hss/t/YwBzlmi5q0gBzi0n3ovJEmxZrsoSUmVgp7OQ==
-----END CERTIFICATE-----
Certificate:
    Data:
        Version: 3 (0x2)
        Serial Number: 4096 (0x1000)
        Signature Algorithm: sha256WithRSAEncryption
        Issuer: CN=C CA
        Validity
            Not Before: Jan  4 00:00:00 2016 GMT
            Not After : Jan  2 00:00:00 2026 GMT
        Subject: CN=B CA
        Subject Public Key Info:
            Public Key Algorithm: rsaEncryption
            RSA Public Key: (2048 bit)
                Modulus (2048 bit):
                    00:a2:a0:93:17:1e:ee:f0:fb:87:1f:71:ca:6b:b9:
                    bd:2d:67:38:2a:24:c7:c3:c2:88:4d:ca:f2:50:33:
                    60:1d:6f:61:a5:61:02:a4:a7:76:2b:89:43:78:a7:
                    0a:27:04:dc:a5:5b:6e:a8:4c:29:f2:25:c6:c0:32:
                    20:e0:01:8d:a1:16:15:c9:b5:d8:17:7d:e0:e8:90:
                    89:a3:f5:96:1f:90:c6:e3:10:1a:f9:f5:6a:d5:41:
                    ce:cd:a8:fc:36:77:2f:a2:d7:8e:39:50:36:65:4d:
                    a7:83:6c:e1:a4:cc:f6:6b:c0:7b:c8:98:f4:01:3f:
                    94:d3:d6:11:1d:b3:ef:95:c8:ea:07:d9:5e:fd:82:
                    4f:23:4d:08:89:fb:68:2d:82:12:98:e0:87:f2:7a:
                    c7:76:98:4c:ca:1d:3e:e8:bc:72:dd:b0:b7:41:84:
                    6e:39:cd:a9:35:e8:ee:2a:d1:54:cd:21:ed:6f:a4:
                    ab:e9:d8:c9:d2:e9:11:66:66:78:33:ae:d8:78:75:
                    ac:1e:ad:0e:23:82:35:13:96:ed:eb:3e:58:eb:27:
                    fb:1b:fd:27:6e:f0:c3:ff:88:cc:cc:63:35:23:3d:
                    ce:4d:2e:2d:dc:b3:91:8e:d8:d8:5b:6a:92:28:c5:
                    e9:a4:02:76:34:e0:6d:41:61:43:71:e1:59:b3:c2:
                    ce:f7
                Exponent: 65537 (0x10001)
        X509v3 extensions:
            X509v3 Basic Constraints: critical
                CA:TRUE
            X509v3 Subject Key Identifier: 
                0D:AF:BC:C3:31:09:C6:9D:F8:44:D2:51:E8:13:FF:24:78:9D:83:76
            X509v3 Key Usage: critical
                Certificate Sign, CRL Sign
    Signature Algorithm: sha256WithRSAEncryption
        28:52:54:55:5c:5b:4f:af:4c:66:cc:c3:71:dd:3e:60:48:76:
        c3:f0:c0:40:30:f6:44:06:73:2f:c5:b1:1c:6a:e9:6f:fd:92:
        8d:40:38:eb:46:de:58:cd:68:0f:cd:7f:28:a2:79:29:92:ae:
        68:f2:ba:0a:f1:e6:17:58:a4:3b:ee:61:6c:d6:5d:2a:07:61:
        b0:31:c9:9b:dc:08:32:b8:d8:ac:14:9c:1a:ec:21:7d:46:63:
        75:67:46:36:ec:25:f0:e6:ed:3f:5d:b7:fd:06:67:46:80:a0:
        b9:a8:25:e7:05:0a:f9:a7:20:48:d4:71:b4:3f:0b:1c:4d:f4:
        73:8b:cc:9f:67:cf:36:43:e2:82:d5:d5:4e:4c:71:74:5c:db:
        ba:35:bf:1e:9e:63:46:d0:c7:b9:f4:2a:92:23:c7:59:af:5d:
        b1:24:7c:ff:1c:08:0d:2a:50:79:57:1c:a2:45:38:a5:3e:d7:
        c8:5c:91:f2:69:70:d1:47:4a:55:bc:84:dc:9b:9f:ae:f2:94:
        1c:22:65:11:4c:7c:e1:3c:ae:d4:e6:11:fc:3f:d8:53:6b:65:
        4a:7c:44:bf:91:bd:b0:3e:df:b5:f5:c5:8e:1f:a5:19:83:2a:
        8d:4e:13:3d:58:45:8e:11:b6:9e:96:7a:7a:6e:0b:e5:1a:66:
        7a:00:0e:75
-----BEGIN CERTIFICATE-----
MIIC3DCCAcSgAwIBAgICEAAwDQYJKoZIhvcNAQELBQAwDzENMAsGA1UEAwwEQyBD
QTAeFw0xNjAxMDQwMDAwMDBaFw0yNjAxMDIwMDAwMDBaMA8xDTALBgNVBAMMBEIg
Q0EwggEiMA0GCSqGSIb3DQEBAQUAA4IBDwAwggEKAoIBAQCioJMXHu7w+4cfccpr
ub0tZzgqJMfDwohNyvJQM2Adb2GlYQKkp3YriUN4pwonBNylW26oTCnyJcbAMiDg
AY2hFhXJtdgXfeDokImj9ZYfkMbjEBr59WrVQc7NqPw2dy+i1445UDZlTaeDbOGk
zPZrwHvImPQBP5TT1hEds++VyOoH2V79gk8jTQiJ+2gtghKY4Ifyesd2mEzKHT7o
vHLdsLdBhG45zak16O4q0VTNIe1vpKvp2MnS6RFmZngzrth4dawerQ4jgjUTlu3r
PljrJ/sb/Sdu8MP/iMzMYzUjPc5NLi3cs5GO2NhbapIoxemkAnY04G1BYUNx4Vmz
ws73AgMBAAGjQjBAMA8GA1UdEwEB/wQFMAMBAf8wHQYDVR0OBBYEFA2vvMMxCcad
+ETSUegT/yR4nYN2MA4GA1UdDwEB/wQEAwIBBjANBgkqhkiG9w0BAQsFAAOCAQEA
KFJUVVxbT69MZszDcd0+YEh2w/DAQDD2RAZzL8WxHGrpb/2SjUA460beWM1oD81/
KKJ5KZKuaPK6CvHmF1ikO+5hbNZdKgdhsDHJm9wIMrjYrBScGuwhfUZjdWdGNuwl
8ObtP123/QZnRoCguagl5wUK+acgSNRxtD8LHE30c4vMn2fPNkPigtXVTkxxdFzb
ujW/Hp5jRtDHufQqkiPHWa9dsSR8/xwIDSpQeVccokU4pT7XyFyR8mlw0UdKVbyE
3JufrvKUHCJlEUx84Tyu1OYR/D/YU2tlSnxEv5G9sD7ftfXFjh+lGYMqjU4TPVhF
jhG2npZ6em4L5RpmegAOdQ==
-----END CERTIFICATE-----
Certificate:
    Data:
        Version: 3 (0x2)
        Serial Number: 4097 (0x1001)
        Signature Algorithm: sha256WithRSAEncryption
        Issuer: CN=E Root CA
        Validity
            Not Before: Jan  5 00:00:00 2016 GMT
            Not After : Jan  2 00:00:00 2026 GMT
        Subject: CN=C CA
        Subject Public Key Info:
            Public Key Algorithm: rsaEncryption
            RSA Public Key: (2048 bit)
                Modulus (2048 bit):
                    00:c2:21:aa:d2:67:ec:f5:95:9e:c9:00:f2:ee:83:
                    26:6c:3c:30:d4:a8:78:dd:0a:a5:d6:81:f0:54:25:
                    de:8f:9a:0e:8f:5c:06:96:b0:83:b7:13:56:33:9e:
                    d1:6a:7d:45:40:d8:e5:21:1d:c5:6d:31:34:6f:45:
                    22:cf:6f:01:b4:f8:6c:ce:70:d0:e9:0e:ed:04:d9:
                    34:7a:91:db:6f:90:94:66:95:26:0b:29:26:4c:6c:
                    8b:e3:13:a1:42:29:59:a0:2c:fe:83:a5:3c:3d:e8:
                    32:ac:37:a7:ae:b2:79:d3:12:98:5f:c7:fd:4c:49:
                    6b:e4:32:40:76:7b:78:ae:a1:61:b1:0a:d1:5c:f3:
                    96:13:5f:95:5a:a2:35:c5:63:1b:25:05:8d:3c:08:
                    d0:b0:28:2a:f3:f6:34:ab:a5:cd:e7:82:2c:35:38:
                    8b:f5:41:6c:71:32:c4:13:67:ef:9b:8f:32:ab:7c:
                    da:e1:6a:92:4b:5b:9e:39:7e:6b:00:f8:8d:e2:b3:
                    3b:ad:2f:11:3f:80:d5:19:0e:cc:d4:c1:21:42:46:
                    42:2d:d0:5e:ae:63:d1:0a:3e:66:fb:eb:0b:9b:e4:
                    fe:7a:ca:43:5c:cc:98:6a:e1:fd:32:18:4c:63:4c:
                    cd:98:9b:be:fa:5b:2d:c4:76:cc:8d:e5:6d:aa:bb:
                    5a:37
                Exponent: 65537 (0x10001)
        X509v3 extensions:
            X509v3 Basic Constraints: critical
                CA:TRUE
            X509v3 Subject Key Identifier: 
                34:19:53:D9:DA:11:B1:FF:00:35:2B:37:00:91:1F:91:C0:F7:2E:0A
            X509v3 Key Usage: critical
                Certificate Sign, CRL Sign
    Signature Algorithm: sha256WithRSAEncryption
        57:6d:1c:44:40:54:a1:e5:3c:a0:e1:e1:d0:72:41:61:93:91:
        38:65:8b:cc:35:d9:4c:04:80:12:4a:fd:84:71:9f:06:4f:de:
        06:1c:0d:93:51:b2:2d:d7:c8:f5:0d:4f:fd:14:58:9e:d2:c2:
        ac:5d:bf:f7:67:5f:68:2d:a2:cf:12:86:79:26:70:11:2d:3f:
        0c:5f:65:fc:44:fd:6e:87:5e:56:3a:dc:be:da:95:e2:45:aa:
        07:28:ff:46:1e:4b:bf:03:92:84:53:9b:c9:7a:dd:e7:5e:e9:
        57:ba:18:c2:23:12:26:27:74:b6:93:44:4c:1e:6a:e2:20:62:
        e5:33:db:86:14:41:7e:7c:76:5a:e5:d1:7f:fc:f4:f9:a3:23:
        c9:06:ec:cb:b5:62:1e:bc:7b:1c:70:57:a5:d3:1d:d6:0f:79:
        6a:f2:05:58:63:11:91:fb:b4:44:6a:b2:97:18:cf:ee:de:5d:
        ac:d4:d8:63:e2:4f:42:25:fa:44:a4:47:b1:e4:f7:7f:55:a0:
        e0:f7:09:f8:43:5c:54:1f:6a:e4:87:96:91:a0:8b:72:57:53:
        52:22:31:d1:26:d4:5f:38:43:17:2a:48:91:37:b6:d8:d2:b3:
        54:fc:f7:61:4e:c6:bc:39:89:e2:d8:3c:c0:d4:50:33:0b:de:
        3d:02:70:5d
-----BEGIN CERTIFICATE-----
MIIC4TCCAcmgAwIBAgICEAEwDQYJKoZIhvcNAQELBQAwFDESMBAGA1UEAwwJRSBS
b290IENBMB4XDTE2MDEwNTAwMDAwMFoXDTI2MDEwMjAwMDAwMFowDzENMAsGA1UE
AwwEQyBDQTCCASIwDQYJKoZIhvcNAQEBBQADggEPADCCAQoCggEBAMIhqtJn7PWV
nskA8u6DJmw8MNSoeN0KpdaB8FQl3o+aDo9cBpawg7cTVjOe0Wp9RUDY5SEdxW0x
NG9FIs9vAbT4bM5w0OkO7QTZNHqR22+QlGaVJgspJkxsi+MToUIpWaAs/oOlPD3o
Mqw3p66yedMSmF/H/UxJa+QyQHZ7eK6hYbEK0VzzlhNflVqiNcVjGyUFjTwI0LAo
KvP2NKulzeeCLDU4i/VBbHEyxBNn75uPMqt82uFqkktbnjl+awD4jeKzO60vET+A
1RkOzNTBIUJGQi3QXq5j0Qo+ZvvrC5vk/nrKQ1zMmGrh/TIYTGNMzZibvvpbLcR2
zI3lbaq7WjcCAwEAAaNCMEAwDwYDVR0TAQH/BAUwAwEB/zAdBgNVHQ4EFgQUNBlT
2doRsf8ANSs3AJEfkcD3LgowDgYDVR0PAQH/BAQDAgEGMA0GCSqGSIb3DQEBCwUA
A4IBAQBXbRxEQFSh5Tyg4eHQckFhk5E4ZYvMNdlMBIASSv2EcZ8GT94GHA2TUbIt
18j1DU/9FFie0sKsXb/3Z19oLaLPEoZ5JnARLT8MX2X8RP1uh15WOty+2pXiRaoH
KP9GHku/A5KEU5vJet3nXulXuhjCIxImJ3S2k0RMHmriIGLlM9uGFEF+fHZa5dF/
/PT5oyPJBuzLtWIevHsccFel0x3WD3lq8gVYYxGR+7REarKXGM/u3l2s1Nhj4k9C
JfpEpEex5Pd/VaDg9wn4Q1xUH2rkh5aRoItyV1NSIjHRJtRfOEMXKkiRN7bY0rNU
/PdhTsa8OYni2DzA1FAzC949AnBd
-----END CERTIFICATE-----
Certificate:
    Data:
        Version: 3 (0x2)
        Serial Number: 4096 (0x1000)
        Signature Algorithm: sha256WithRSAEncryption
        Issuer: CN=E Root CA
        Validity
            Not Before: Jan  2 00:00:00 2016 GMT
            Not After : Jan  2 00:00:00 2026 GMT
        Subject: CN=E Root CA
        Subject Public Key Info:
            Public Key Algorithm: rsaEncryption
            RSA Public Key: (2048 bit)
                Modulus (2048 bit):
                    00:a4:35:79:08:1a:d9:5a:a6:12:69:98:d6:3f:c7:
                    fb:31:f6:f1:d6:a4:1b:f3:6a:fb:36:51:04:f1:9d:
                    3b:94:81:77:35:7d:62:75:b4:b4:04:69:df:44:49:
                    fc:43:d5:a4:14:af:67:d0:fb:51:21:2b:8b:dc:8c:
                    89:d1:0b:08:26:17:3d:75:10:08:6f:ba:a4:24:8b:
                    7e:c3:fa:3d:ab:fb:f6:f5:14:80:f7:9a:45:00:b2:
                    84:12:e2:7d:c0:b7:40:ca:6f:06:1e:d2:3c:10:6f:
                    11:f0:52:a2:16:ef:52:91:09:6f:89:28:cf:70:fc:
                    e7:9e:1c:4b:5d:88:08:2f:2c:9e:75:c6:b9:6b:25:
                    68:05:01:98:f2:28:53:7d:be:a1:5f:3a:62:0b:4a:
                    c4:95:17:97:d0:4a:5d:8a:5f:52:07:7a:6a:8b:81:
                    41:a2:60:08:92:e8:d0:c2:c8:9c:19:b2:3c:c3:c6:
                    33:7d:5d:90:a6:0b:d3:ca:7b:8b:6f:70:aa:bb:d1:
                    90:81:6c:db:b8:48:f8:52:d1:47:32:ed:66:9e:67:
                    dd:e6:bc:9e:5d:60:33:9f:07:d8:b6:3e:d2:48:f5:
                    a8:4c:12:6f:19:32:32:a7:66:0c:66:00:79:9f:dc:
                    91:e4:54:bb:ff:b5:22:ad:0c:5f:f7:5d:d6:1a:f0:
                    82:59
                Exponent: 65537 (0x10001)
        X509v3 extensions:
            X509v3 Basic Constraints: critical
                CA:TRUE
            X509v3 Subject Key Identifier: 
                B7:51:AA:C9:B7:3E:03:E5:11:94:49:A2:26:0F:70:81:7B:4E:7A:A7
            X509v3 Key Usage: critical
                Certificate Sign, CRL Sign
    Signature Algorithm: sha256WithRSAEncryption
        6b:32:6f:7f:a4:6c:9c:21:a9:95:ab:b6:2a:50:59:72:36:1a:
        ad:86:c4:4e:2f:a2:0a:81:47:b1:37:ed:94:5a:e3:c3:ec:43:
        46:2b:39:6c:66:ba:61:74:44:a4:e6:f6:63:6c:98:4b:d1:01:
        74:93:77:81:fe:92:5c:4a:bf:a4:d2:0b:aa:c8:00:7b:df:74:
        75:6e:d7:1a:7d:3b:f4:07:99:bb:04:63:93:97:9f:1d:b0:f0:
        81:23:94:70:8b:c6:c1:24:c1:05:01:80:c6:4e:cc:ec:7f:05:
        c8:93:c4:9b:57:bb:ac:8e:b6:7f:ed:41:e6:49:2d:1b:bb:ec:
        74:47:ce:63:57:a2:e9:42:b5:f6:73:8d:f5:64:a5:53:f0:86:
        4b:34:29:80:0b:63:16:c6:98:af:d6:cb:17:52:8e:75:fc:95:
        03:ca:03:1d:a8:d3:83:f4:32:94:b1:6d:2e:f0:1c:87:81:b5:
        6a:f0:19:20:76:62:e1:da:39:9c:f7:ee:d3:f7:d3:14:39:89:
        a2:a9:eb:2f:8e:e6:0f:70:e5:63:d1:43:ff:d8:f0:68:13:55:
        c5:02:ab:f9:a5:d8:ae:7f:4c:c5:e4:1b:c2:ba:4a:e9:d7:d3:
        6e:69:80:39:d0:ad:0c:9d:2a:e6:6c:e6:e9:f7:49:eb:4b:4d:
        73:0d:d5:51
-----BEGIN CERTIFICATE-----
MIIC5jCCAc6gAwIBAgICEAAwDQYJKoZIhvcNAQELBQAwFDESMBAGA1UEAwwJRSBS
b290IENBMB4XDTE2MDEwMjAwMDAwMFoXDTI2MDEwMjAwMDAwMFowFDESMBAGA1UE
AwwJRSBSb290IENBMIIBIjANBgkqhkiG9w0BAQEFAAOCAQ8AMIIBCgKCAQEApDV5
CBrZWqYSaZjWP8f7Mfbx1qQb82r7NlEE8Z07lIF3NX1idbS0BGnfREn8Q9WkFK9n
0PtRISuL3IyJ0QsIJhc9dRAIb7qkJIt+w/o9q/v29RSA95pFALKEEuJ9wLdAym8G
HtI8EG8R8FKiFu9SkQlviSjPcPznnhxLXYgILyyedca5ayVoBQGY8ihTfb6hXzpi
C0rElReX0Epdil9SB3pqi4FBomAIkujQwsicGbI8w8YzfV2QpgvTynuLb3Cqu9GQ
gWzbuEj4UtFHMu1mnmfd5ryeXWAznwfYtj7SSPWoTBJvGTIyp2YMZgB5n9yR5FS7
/7UirQxf913WGvCCWQIDAQABo0IwQDAPBgNVHRMBAf8EBTADAQH/MB0GA1UdDgQW
BBS3UarJtz4D5RGUSaImD3CBe056pzAOBgNVHQ8BAf8EBAMCAQYwDQYJKoZIhvcN
AQELBQADggEBAGsyb3+kbJwhqZWrtipQWXI2Gq2GxE4vogqBR7E37ZRa48PsQ0Yr
OWxmumF0RKTm9mNsmEvRAXSTd4H+klxKv6TSC6rIAHvfdHVu1xp9O/QHmbsEY5OX
nx2w8IEjlHCLxsEkwQUBgMZOzOx/BciTxJtXu6yOtn/tQeZJLRu77HRHzmNXoulC
tfZzjfVkpVPwhks0KYALYxbGmK/WyxdSjnX8lQPKAx2o04P0MpSxbS7wHIeBtWrw
GSB2YuHaOZz37tP30xQ5iaKp6y+O5g9w5WPRQ//Y8GgTVcUCq/ml2K5/TMXkG8K6
SunX025pgDnQrQydKuZs5un3SetLTXMN1VE=
-----END CERTIFICATE-----
