-----BEGIN RSA PRIVATE KEY-----
MIIEogIBAAKCAQEAymw91u/myNSjqFLh+F33Tneso2Rvi9Q+zRiMOfIQZPfzYRrO
j9gyGsH2iFEKEgfViFz1RVbQn4cXeN5N0P36YYHvoGs4Ajs9ik4fJXTwBcMbEPOk
Um1og6+DaRZU1PlCgpiekkyCMzQpsS9g0/IAOtabIMwnV77aKbR096r28FpFDoXa
AtTBloEmoKR3pVS0JHr1n+YIQqzYrAD3/IpDDcm2t6NN5lDZM/oYKLJ33aP1+jAy
+b8lLJeRH2kmXB7pKyQmXZCRsY5cByq8OaQHtiiE3XWHIFATq7Q8USPl1+qJ8qn9
2oew0poUIK7P+RYbeLiilFAvhkwgJwjQRICjeQIDAQABAoIBAFZhkJYrdCHZ1Ckd
jX7Oop2iplJnps5V+aLOSfDkYqijwwF6ThHGYcNXaFxNsO122GHDwYsgfBDHtnWG
8FAyQengaCDeAF27aAygP9xdJZxf4Sn/vuzJ8aLYgEyVEgh8gix28pxd9+Xf6bbK
EBkCGaUCNdruJA/myvSnJI8YLx7rs7dMlwtQG1q9UD0cEJro9FkTBIsAUeXTyY+4
qyhSyCvDeAO99ytHyrm9PjrR5cOHeTI/ADUMyQ5pXzHlNLLGCAUYeGvj6G7nqPGl
gMRRxwM/oT9/uEtkBQwAjGw8o2rFQsX6q6e1r65MHAm+RPX8YPsEJ1QxGERl9AmD
largQp0CgYEA97N6RqA4+ithhEEPgBNiglJVvzDfd4JlAwGX2czryZ8430e9yqj/
J/QNTLkBmlsXC70yFu8iY6P0Me9wiJ0+DBSwm4j32o7qx9RSC5dqGSzYhs1LgBVd
MMJiFZigU1Isvz/IQc/rVYDIIDrEuHmHA+siaeSAKf0GaRkiOBnh80sCgYEA0TRp
/hAKjzdq7FcQ9K/a5W72Vx8GJ4mp5zoTMZnY/4vOSsC22SKU6FTcEj05xWCGMIgb
CkFln2OLLq4FuAHzGX3PT+CvfJceRpdZcP1yULDQUBZ4qMJbhIcpMab06nw3Iv4c
jNB2tEZe7yFiAdtSNh9k3KAZ3nkdNyC5X6zUxcsCgYAJ5ReLXrcn9zesCtVNrniO
8C8QtikXIxRZ7GRehPseUMf602jXgay/sdYeLH3N5rmi9Gnd1KuxA0mr/P6n1nA2
F1V+wRf1mSPz251zbRcF7m6v49+SPEg+vGUiq7gr2+qBsVCUoHOsNLrJ3s8g92nX
VDtJs6ETDFKHPEPLre0CxQKBgA2hap6BEQ8Pv0myyooGwy5bsnUuskn1MDq+j+2V
ZowP4dsA/2jaVfVlQgl2L8NqbJPQ6mIarLJb2/+omvrINbydc9pyezyU5AYZalxw
Rvh27LurGyVztF7IJ6jyhdaZTUZcZCPQmUtZomnWNPqF/a9FEF9HlyfloD+tRCa1
rg9NAoGAdTxat47SXzJFcF3JB8iMhnXUlXxLXSCKhGLN8dXUWQLnAOcy7QHuU627
efEpl3V2P7klamc+VDJC2eGwW3wZdKkSnsngHOpWDvp5kN1pS1TeGSuaNxeIamwK
y8MhHC/HzHdpCxLrNt22AA/li19PdXAxkbDg4p70ru6XTILQx9k=
-----END RSA PRIVATE KEY-----
Certificate:
    Data:
        Version: 3 (0x2)
        Serial Number: 4096 (0x1000)
        Signature Algorithm: sha256WithRSAEncryption
        Issuer: CN=B CA
        Validity
            Not Before: Feb  8 23:34:58 2016 GMT
            Not After : Feb  5 23:34:58 2026 GMT
        Subject: C=US, ST=California, L=Mountain View, O=Test CA, CN=127.0.0.1
        Subject Public Key Info:
            Public Key Algorithm: rsaEncryption
            RSA Public Key: (2048 bit)
                Modulus (2048 bit):
                    00:ca:6c:3d:d6:ef:e6:c8:d4:a3:a8:52:e1:f8:5d:
                    f7:4e:77:ac:a3:64:6f:8b:d4:3e:cd:18:8c:39:f2:
                    10:64:f7:f3:61:1a:ce:8f:d8:32:1a:c1:f6:88:51:
                    0a:12:07:d5:88:5c:f5:45:56:d0:9f:87:17:78:de:
                    4d:d0:fd:fa:61:81:ef:a0:6b:38:02:3b:3d:8a:4e:
                    1f:25:74:f0:05:c3:1b:10:f3:a4:52:6d:68:83:af:
                    83:69:16:54:d4:f9:42:82:98:9e:92:4c:82:33:34:
                    29:b1:2f:60:d3:f2:00:3a:d6:9b:20:cc:27:57:be:
                    da:29:b4:74:f7:aa:f6:f0:5a:45:0e:85:da:02:d4:
                    c1:96:81:26:a0:a4:77:a5:54:b4:24:7a:f5:9f:e6:
                    08:42:ac:d8:ac:00:f7:fc:8a:43:0d:c9:b6:b7:a3:
                    4d:e6:50:d9:33:fa:18:28:b2:77:dd:a3:f5:fa:30:
                    32:f9:bf:25:2c:97:91:1f:69:26:5c:1e:e9:2b:24:
                    26:5d:90:91:b1:8e:5c:07:2a:bc:39:a4:07:b6:28:
                    84:dd:75:87:20:50:13:ab:b4:3c:51:23:e5:d7:ea:
                    89:f2:a9:fd:da:87:b0:d2:9a:14:20:ae:cf:f9:16:
                    1b:78:b8:a2:94:50:2f:86:4c:20:27:08:d0:44:80:
                    a3:79
                Exponent: 65537 (0x10001)
        X509v3 extensions:
            X509v3 Basic Constraints: critical
                CA:FALSE
            X509v3 Subject Key Identifier: 
                78:36:93:58:1F:73:7C:93:CA:AE:BB:9A:4E:A7:37:F1:83:03:4B:CF
            X509v3 Authority Key Identifier: 
                keyid:0D:AF:BC:C3:31:09:C6:9D:F8:44:D2:51:E8:13:FF:24:78:9D:83:76

            X509v3 Extended Key Usage: 
                TLS Web Server Authentication, TLS Web Client Authentication
    Signature Algorithm: sha256WithRSAEncryption
        5e:87:35:21:15:89:4e:ac:9a:8e:db:d2:dc:83:6e:9e:64:b9:
        30:f8:91:f7:9f:c4:de:b4:92:bf:05:4a:1b:e3:12:0f:b0:0d:
        d8:8f:fd:f9:e6:e8:2c:24:e0:88:cc:58:5d:3b:a3:23:95:86:
        b2:1f:0f:fb:02:95:c4:16:04:24:05:bb:65:e4:48:80:6e:64:
        33:ed:a0:71:7d:21:f5:6f:70:72:07:54:b2:e7:79:98:8d:b5:
        2b:0d:68:8e:3a:be:e3:91:f8:6a:60:d1:51:20:08:83:43:18:
        5a:49:e2:66:21:aa:df:d2:b1:90:96:5a:99:6f:64:a0:96:7f:
        e5:9b:3f:82:d5:42:8c:7d:fa:9f:b1:62:6c:e6:42:f6:1d:ab:
        aa:e2:a4:05:33:99:4e:67:18:46:14:16:23:b8:46:db:d1:28:
        a3:2c:2a:97:32:c3:02:e8:a0:9f:4f:e9:e6:c9:7e:c8:63:0d:
        ff:de:95:f4:4d:f0:ca:57:49:9a:07:4b:5a:13:96:bc:49:10:
        5c:3c:92:ce:1e:dd:10:d6:dc:6b:07:f0:ae:3e:0c:d0:05:1f:
        00:08:79:0c:2a:e5:03:96:7d:1e:cb:3f:b7:f6:30:07:39:66:
        8b:9a:b4:80:1c:e2:d2:7d:e8:bc:91:26:c5:9a:ec:a1:25:26:
        56:0a:7b:39
-----BEGIN CERTIFICATE-----
MIIDWjCCAkKgAwIBAgICEAAwDQYJKoZIhvcNAQELBQAwDzENMAsGA1UEAwwEQiBD
QTAeFw0xNjAyMDgyMzM0NThaFw0yNjAyMDUyMzM0NThaMGAxCzAJBgNVBAYTAlVT
MRMwEQYDVQQIDApDYWxpZm9ybmlhMRYwFAYDVQQHDA1Nb3VudGFpbiBWaWV3MRAw
DgYDVQQKDAdUZXN0IENBMRIwEAYDVQQDDAkxMjcuMC4wLjEwggEiMA0GCSqGSIb3
DQEBAQUAA4IBDwAwggEKAoIBAQDKbD3W7+bI1KOoUuH4XfdOd6yjZG+L1D7NGIw5
8hBk9/NhGs6P2DIawfaIUQoSB9WIXPVFVtCfhxd43k3Q/fphge+gazgCOz2KTh8l
dPAFwxsQ86RSbWiDr4NpFlTU+UKCmJ6STIIzNCmxL2DT8gA61psgzCdXvtoptHT3
qvbwWkUOhdoC1MGWgSagpHelVLQkevWf5ghCrNisAPf8ikMNyba3o03mUNkz+hgo
snfdo/X6MDL5vyUsl5EfaSZcHukrJCZdkJGxjlwHKrw5pAe2KITddYcgUBOrtDxR
I+XX6onyqf3ah7DSmhQgrs/5Fht4uKKUUC+GTCAnCNBEgKN5AgMBAAGjbzBtMAwG
A1UdEwEB/wQCMAAwHQYDVR0OBBYEFHg2k1gfc3yTyq67mk6nN/GDA0vPMB8GA1Ud
IwQYMBaAFA2vvMMxCcad+ETSUegT/yR4nYN2MB0GA1UdJQQWMBQGCCsGAQUFBwMB
BggrBgEFBQcDAjANBgkqhkiG9w0BAQsFAAOCAQEAXoc1IRWJTqyajtvS3INunmS5
MPiR95/E3rSSvwVKG+MSD7AN2I/9+eboLCTgiMxYXTujI5WGsh8P+wKVxBYEJAW7
ZeRIgG5kM+2gcX0h9W9wcgdUsud5mI21Kw1ojjq+45H4amDRUSAIg0MYWkniZiGq
39KxkJZamW9koJZ/5Zs/gtVCjH36n7FibOZC9h2rquKkBTOZTmcYRhQWI7hG29Eo
oywqlzLDAuign0/p5sl+yGMN/96V9E3wyldJmgdLWhOWvEkQXDySzh7dENbcawfw
rj4M0AUfAAh5DCrlA5Z9Hss/t/YwBzlmi5q0gBzi0n3ovJEmxZrsoSUmVgp7OQ==
-----END CERTIFICATE-----
