Certificate:
    Data:
        Version: 3 (0x2)
        Serial Number: 4096 (0x1000)
        Signature Algorithm: sha256WithRSAEncryption
        Issuer: CN=E Root CA
        Validity
            Not Before: Jan  2 00:00:00 2016 GMT
            Not After : Jan  2 00:00:00 2026 GMT
        Subject: CN=E Root CA
        Subject Public Key Info:
            Public Key Algorithm: rsaEncryption
            RSA Public Key: (2048 bit)
                Modulus (2048 bit):
                    00:a4:35:79:08:1a:d9:5a:a6:12:69:98:d6:3f:c7:
                    fb:31:f6:f1:d6:a4:1b:f3:6a:fb:36:51:04:f1:9d:
                    3b:94:81:77:35:7d:62:75:b4:b4:04:69:df:44:49:
                    fc:43:d5:a4:14:af:67:d0:fb:51:21:2b:8b:dc:8c:
                    89:d1:0b:08:26:17:3d:75:10:08:6f:ba:a4:24:8b:
                    7e:c3:fa:3d:ab:fb:f6:f5:14:80:f7:9a:45:00:b2:
                    84:12:e2:7d:c0:b7:40:ca:6f:06:1e:d2:3c:10:6f:
                    11:f0:52:a2:16:ef:52:91:09:6f:89:28:cf:70:fc:
                    e7:9e:1c:4b:5d:88:08:2f:2c:9e:75:c6:b9:6b:25:
                    68:05:01:98:f2:28:53:7d:be:a1:5f:3a:62:0b:4a:
                    c4:95:17:97:d0:4a:5d:8a:5f:52:07:7a:6a:8b:81:
                    41:a2:60:08:92:e8:d0:c2:c8:9c:19:b2:3c:c3:c6:
                    33:7d:5d:90:a6:0b:d3:ca:7b:8b:6f:70:aa:bb:d1:
                    90:81:6c:db:b8:48:f8:52:d1:47:32:ed:66:9e:67:
                    dd:e6:bc:9e:5d:60:33:9f:07:d8:b6:3e:d2:48:f5:
                    a8:4c:12:6f:19:32:32:a7:66:0c:66:00:79:9f:dc:
                    91:e4:54:bb:ff:b5:22:ad:0c:5f:f7:5d:d6:1a:f0:
                    82:59
                Exponent: 65537 (0x10001)
        X509v3 extensions:
            X509v3 Basic Constraints: critical
                CA:TRUE
            X509v3 Subject Key Identifier: 
                B7:51:AA:C9:B7:3E:03:E5:11:94:49:A2:26:0F:70:81:7B:4E:7A:A7
            X509v3 Key Usage: critical
                Certificate Sign, CRL Sign
    Signature Algorithm: sha256WithRSAEncryption
        6b:32:6f:7f:a4:6c:9c:21:a9:95:ab:b6:2a:50:59:72:36:1a:
        ad:86:c4:4e:2f:a2:0a:81:47:b1:37:ed:94:5a:e3:c3:ec:43:
        46:2b:39:6c:66:ba:61:74:44:a4:e6:f6:63:6c:98:4b:d1:01:
        74:93:77:81:fe:92:5c:4a:bf:a4:d2:0b:aa:c8:00:7b:df:74:
        75:6e:d7:1a:7d:3b:f4:07:99:bb:04:63:93:97:9f:1d:b0:f0:
        81:23:94:70:8b:c6:c1:24:c1:05:01:80:c6:4e:cc:ec:7f:05:
        c8:93:c4:9b:57:bb:ac:8e:b6:7f:ed:41:e6:49:2d:1b:bb:ec:
        74:47:ce:63:57:a2:e9:42:b5:f6:73:8d:f5:64:a5:53:f0:86:
        4b:34:29:80:0b:63:16:c6:98:af:d6:cb:17:52:8e:75:fc:95:
        03:ca:03:1d:a8:d3:83:f4:32:94:b1:6d:2e:f0:1c:87:81:b5:
        6a:f0:19:20:76:62:e1:da:39:9c:f7:ee:d3:f7:d3:14:39:89:
        a2:a9:eb:2f:8e:e6:0f:70:e5:63:d1:43:ff:d8:f0:68:13:55:
        c5:02:ab:f9:a5:d8:ae:7f:4c:c5:e4:1b:c2:ba:4a:e9:d7:d3:
        6e:69:80:39:d0:ad:0c:9d:2a:e6:6c:e6:e9:f7:49:eb:4b:4d:
        73:0d:d5:51
-----BEGIN CERTIFICATE-----
MIIC5jCCAc6gAwIBAgICEAAwDQYJKoZIhvcNAQELBQAwFDESMBAGA1UEAwwJRSBS
b290IENBMB4XDTE2MDEwMjAwMDAwMFoXDTI2MDEwMjAwMDAwMFowFDESMBAGA1UE
AwwJRSBSb290IENBMIIBIjANBgkqhkiG9w0BAQEFAAOCAQ8AMIIBCgKCAQEApDV5
CBrZWqYSaZjWP8f7Mfbx1qQb82r7NlEE8Z07lIF3NX1idbS0BGnfREn8Q9WkFK9n
0PtRISuL3IyJ0QsIJhc9dRAIb7qkJIt+w/o9q/v29RSA95pFALKEEuJ9wLdAym8G
HtI8EG8R8FKiFu9SkQlviSjPcPznnhxLXYgILyyedca5ayVoBQGY8ihTfb6hXzpi
C0rElReX0Epdil9SB3pqi4FBomAIkujQwsicGbI8w8YzfV2QpgvTynuLb3Cqu9GQ
gWzbuEj4UtFHMu1mnmfd5ryeXWAznwfYtj7SSPWoTBJvGTIyp2YMZgB5n9yR5FS7
/7UirQxf913WGvCCWQIDAQABo0IwQDAPBgNVHRMBAf8EBTADAQH/MB0GA1UdDgQW
BBS3UarJtz4D5RGUSaImD3CBe056pzAOBgNVHQ8BAf8EBAMCAQYwDQYJKoZIhvcN
AQELBQADggEBAGsyb3+kbJwhqZWrtipQWXI2Gq2GxE4vogqBR7E37ZRa48PsQ0Yr
OWxmumF0RKTm9mNsmEvRAXSTd4H+klxKv6TSC6rIAHvfdHVu1xp9O/QHmbsEY5OX
nx2w8IEjlHCLxsEkwQUBgMZOzOx/BciTxJtXu6yOtn/tQeZJLRu77HRHzmNXoulC
tfZzjfVkpVPwhks0KYALYxbGmK/WyxdSjnX8lQPKAx2o04P0MpSxbS7wHIeBtWrw
GSB2YuHaOZz37tP30xQ5iaKp6y+O5g9w5WPRQ//Y8GgTVcUCq/ml2K5/TMXkG8K6
SunX025pgDnQrQydKuZs5un3SetLTXMN1VE=
-----END CERTIFICATE-----
