-----BEGIN RSA PRIVATE KEY-----
MIIEpQIBAAKCAQEAzDKsONWbnA5Lau2SquZbKzmbj0hH0A2cPWjVR6O4YadTgD7M
jUMRs+TJsYt42rXtEX2kTDXtkOsweRv/SJSGvh31uLBhQH/X1ZCFuOAUujqm+6vx
JRN1RYqSvcXUGOf+LasWutPgAPULz/8AKHX23Uue0RtuWv+3wH2Eck2wno+S7IHR
fGWP+W9fsuoGVyo0Iy3nd02BZtKCZeQUd9neAnkm8qSBssPbD2zi2OAve5MVsCkd
oQAWhw0Jc0QArZ6m33AEZu3hvj3s64Rn1/VAmSjrxipWPZEayVplVrlLCeO/LBkQ
oCRCTcQVhQVJnXFS00t7U2jHKjwnfajTwn7k/wIDAQABAoIBAQCKdiXP2BBPLmY3
WGbmmZLiaYqxCqsfSctS3L4aeMqy9Poq8OpVM1BSsmWNjWxiqY/aF18MCllPthrF
VJWzCnufeMNA++DGEqow93GlXdTQPqsx5nJ62InhoMhGBFoAlXcGUof0IW04WPEs
ldXumabOgdNsKXSYIePgk3v24fVMXgnvj1TxgMhtSSP5vmP8h0/7pNnnfjWrBZNg
B2bVqCYQ6AaxHRivLFsD85nBdSXl8La5lfoSCgvpWHKtIUvUeZrBAagxK2gGj6zg
sJvKs4EnGUdzX0eGheLaJtdVXEdxWIj9HmusLFF02wvgq5yS6Hyj1hz6YHaJomb5
mHGVcBDZAoGBAPNTRlNfiZ9fB21FFEufPx7YxEbqS4BFthBqLfatG8fM1gRkbz9m
Dy/FSmgPQMxaqA5vjE8jhVlVTOCXznT8TsAhuof/ORmmFDvHleJs1iaqw/xhgOJv
avMc+BZTOktBX4u9E4wSVwj+QfhutssCeG+SHtS9uVyiGAVUSIyhCNNjAoGBANbV
ozqAElO7pF0frWIIZ7gGbPuEIULVqWhNQWZF19gvBf8sJQ+gfT0OhPRvopr734sc
+/m2b1PORFVGVPmRYMXrNds7qvtFzoDSvki0X3dsi6TXFSY7lTI4lAyvCOxQcjbM
x8sD9Csaips/i3EAV885BkG2QPMH+jEmp5U0y9C1AoGBAIgDsroEG4/ktOgVx0SG
XehGT2E8srufPChs0gijt3W2QKPv6GfOCwsvA2qrrBMPUgXPwOSz/GR1VCXvdc7b
AsJPmE9REYAO4ByScmxBXmv65Nb9QehRU71WIi+IkntiraAVLwoLbm9ugT331WIh
nWTwjx9odmcbjMXd2TgTBDX1AoGAYysCygJMc3JukL4KnvIaToxIymFXqS5PoOHo
ink7BYPPVNbf1LLUnNaS8PKHMNuLeP/MIJziDuFsEaEBoKJG9ZV5qtWEO7Ehfb3K
MG1ylAH7BAB0ts1SNXiAfspdaBhKYJlusHwGvc7mpHtUtrjdz74W8UZb/NN13jJl
sS5J1vECgYEAnpWIaGs3BCJWW8BSuuOx6NMSwFDfcpzqnJ6KvowdWVkW7lYK7kfZ
JIZnNragGbybBDUcUcdSdz+V0GtzUj6oKYI420debUlQ6/Xc+Yud+esqf23ODS3A
MsuJkwHALBIiocA552KN4Bsd69HRd91r/14G5BXtsjpsfhCXVPJreJ0=
-----END RSA PRIVATE KEY-----
Certificate:
    Data:
        Version: 3 (0x2)
        Serial Number: 4096 (0x1000)
    Signature Algorithm: sha256WithRSAEncryption
        Issuer: CN=B CA
        Validity
            Not Before: Aug 14 02:47:31 2014 GMT
            Not After : Aug 11 02:47:31 2024 GMT
        Subject: C=US, ST=California, L=Mountain View, O=Test CA, CN=127.0.0.1
        Subject Public Key Info:
            Public Key Algorithm: rsaEncryption
                Public-Key: (2048 bit)
                Modulus:
                    00:cc:32:ac:38:d5:9b:9c:0e:4b:6a:ed:92:aa:e6:
                    5b:2b:39:9b:8f:48:47:d0:0d:9c:3d:68:d5:47:a3:
                    b8:61:a7:53:80:3e:cc:8d:43:11:b3:e4:c9:b1:8b:
                    78:da:b5:ed:11:7d:a4:4c:35:ed:90:eb:30:79:1b:
                    ff:48:94:86:be:1d:f5:b8:b0:61:40:7f:d7:d5:90:
                    85:b8:e0:14:ba:3a:a6:fb:ab:f1:25:13:75:45:8a:
                    92:bd:c5:d4:18:e7:fe:2d:ab:16:ba:d3:e0:00:f5:
                    0b:cf:ff:00:28:75:f6:dd:4b:9e:d1:1b:6e:5a:ff:
                    b7:c0:7d:84:72:4d:b0:9e:8f:92:ec:81:d1:7c:65:
                    8f:f9:6f:5f:b2:ea:06:57:2a:34:23:2d:e7:77:4d:
                    81:66:d2:82:65:e4:14:77:d9:de:02:79:26:f2:a4:
                    81:b2:c3:db:0f:6c:e2:d8:e0:2f:7b:93:15:b0:29:
                    1d:a1:00:16:87:0d:09:73:44:00:ad:9e:a6:df:70:
                    04:66:ed:e1:be:3d:ec:eb:84:67:d7:f5:40:99:28:
                    eb:c6:2a:56:3d:91:1a:c9:5a:65:56:b9:4b:09:e3:
                    bf:2c:19:10:a0:24:42:4d:c4:15:85:05:49:9d:71:
                    52:d3:4b:7b:53:68:c7:2a:3c:27:7d:a8:d3:c2:7e:
                    e4:ff
                Exponent: 65537 (0x10001)
        X509v3 extensions:
            X509v3 Basic Constraints: critical
                CA:FALSE
            X509v3 Subject Key Identifier: 
                7A:DF:61:82:66:73:E5:9F:E2:84:99:26:22:18:18:2D:5C:5B:36:A7
            X509v3 Authority Key Identifier: 
                keyid:76:7F:E8:F6:A1:F7:91:56:BD:9C:7E:66:5C:97:F0:A5:1D:6C:06:28

            X509v3 Extended Key Usage: 
                TLS Web Server Authentication, TLS Web Client Authentication
    Signature Algorithm: sha256WithRSAEncryption
         59:31:d6:e2:3c:0e:31:c5:5c:a4:40:51:5d:eb:15:3d:2e:58:
         13:c6:0f:26:cf:86:f7:ee:d1:30:31:81:83:86:83:ea:be:1c:
         bd:c9:20:6e:a0:47:4c:46:38:2e:1e:8f:70:da:80:38:f4:d7:
         9c:59:9d:7f:23:d8:2a:c9:fe:fe:e9:57:5f:d9:69:58:e6:86:
         19:af:3b:08:a1:ad:50:e5:c4:e8:33:c9:44:66:8c:12:b9:02:
         19:4f:a7:18:a0:48:34:58:14:2d:c0:dc:44:b8:d9:ce:76:01:
         21:0e:51:a8:7b:ba:db:93:e4:65:ab:b2:cb:b9:e1:30:26:b5:
         9e:5e:df:62:15:86:45:99:f9:25:03:e3:b9:36:7f:8c:a7:e2:
         85:d1:ac:09:5b:9f:d5:e3:ad:e5:a2:9b:e0:75:f0:61:8d:cd:
         b8:9d:5e:2f:b4:92:aa:6b:ca:05:95:84:b9:27:bd:e4:1e:d9:
         b6:74:1d:db:ec:08:35:39:a3:c0:64:7c:ab:86:8a:74:06:e1:
         4d:f1:e6:bd:81:5d:2b:be:4d:d9:b2:b0:6e:cb:0a:df:e8:6d:
         64:b3:c6:5a:28:22:82:d5:5b:e2:9e:84:1e:d1:06:1d:32:1b:
         05:26:fd:e8:19:c9:25:81:4b:f7:78:09:b7:16:a1:63:82:b0:
         79:68:89:72
-----BEGIN CERTIFICATE-----
MIIDWjCCAkKgAwIBAgICEAAwDQYJKoZIhvcNAQELBQAwDzENMAsGA1UEAwwEQiBD
QTAeFw0xNDA4MTQwMjQ3MzFaFw0yNDA4MTEwMjQ3MzFaMGAxCzAJBgNVBAYTAlVT
MRMwEQYDVQQIDApDYWxpZm9ybmlhMRYwFAYDVQQHDA1Nb3VudGFpbiBWaWV3MRAw
DgYDVQQKDAdUZXN0IENBMRIwEAYDVQQDDAkxMjcuMC4wLjEwggEiMA0GCSqGSIb3
DQEBAQUAA4IBDwAwggEKAoIBAQDMMqw41ZucDktq7ZKq5lsrOZuPSEfQDZw9aNVH
o7hhp1OAPsyNQxGz5Mmxi3jate0RfaRMNe2Q6zB5G/9IlIa+HfW4sGFAf9fVkIW4
4BS6Oqb7q/ElE3VFipK9xdQY5/4tqxa60+AA9QvP/wAodfbdS57RG25a/7fAfYRy
TbCej5LsgdF8ZY/5b1+y6gZXKjQjLed3TYFm0oJl5BR32d4CeSbypIGyw9sPbOLY
4C97kxWwKR2hABaHDQlzRACtnqbfcARm7eG+PezrhGfX9UCZKOvGKlY9kRrJWmVW
uUsJ478sGRCgJEJNxBWFBUmdcVLTS3tTaMcqPCd9qNPCfuT/AgMBAAGjbzBtMAwG
A1UdEwEB/wQCMAAwHQYDVR0OBBYEFHrfYYJmc+Wf4oSZJiIYGC1cWzanMB8GA1Ud
IwQYMBaAFHZ/6Pah95FWvZx+ZlyX8KUdbAYoMB0GA1UdJQQWMBQGCCsGAQUFBwMB
BggrBgEFBQcDAjANBgkqhkiG9w0BAQsFAAOCAQEAWTHW4jwOMcVcpEBRXesVPS5Y
E8YPJs+G9+7RMDGBg4aD6r4cvckgbqBHTEY4Lh6PcNqAOPTXnFmdfyPYKsn+/ulX
X9lpWOaGGa87CKGtUOXE6DPJRGaMErkCGU+nGKBINFgULcDcRLjZznYBIQ5RqHu6
25PkZauyy7nhMCa1nl7fYhWGRZn5JQPjuTZ/jKfihdGsCVuf1eOt5aKb4HXwYY3N
uJ1eL7SSqmvKBZWEuSe95B7ZtnQd2+wINTmjwGR8q4aKdAbhTfHmvYFdK75N2bKw
bssK3+htZLPGWigigtVb4p6EHtEGHTIbBSb96BnJJYFL93gJtxahY4KweWiJcg==
-----END CERTIFICATE-----
Certificate:
    Data:
        Version: 3 (0x2)
        Serial Number: 4097 (0x1001)
    Signature Algorithm: sha256WithRSAEncryption
        Issuer: CN=C CA
        Validity
            Not Before: Aug 14 02:47:31 2014 GMT
            Not After : Aug 11 02:47:31 2024 GMT
        Subject: CN=B CA
        Subject Public Key Info:
            Public Key Algorithm: rsaEncryption
                Public-Key: (2048 bit)
                Modulus:
                    00:af:0f:4e:5f:ef:a4:fe:fc:3e:e4:30:fa:e3:d5:
                    9a:9f:32:e2:64:a3:d9:4a:80:f4:1d:51:19:88:79:
                    fe:1f:a0:02:f5:55:e3:66:03:32:51:20:15:55:09:
                    48:e5:28:87:0e:95:f3:fc:4d:15:4c:34:ce:eb:e4:
                    53:0a:44:72:db:ca:b4:53:72:74:34:82:33:ee:51:
                    46:fa:9b:95:5a:cf:2a:da:ba:ae:46:c7:f2:da:0b:
                    b9:db:ea:8f:8d:09:98:a1:d4:a9:48:85:fd:d4:3c:
                    59:69:90:e9:9c:91:88:6e:af:3b:16:ec:66:7d:a8:
                    1f:5b:4d:d9:64:19:ed:8d:e1:11:db:d6:1e:24:05:
                    8b:25:17:41:9f:a2:99:17:19:9a:d5:a2:00:93:c2:
                    2d:f0:34:aa:84:39:82:ff:e8:cd:2d:62:82:33:5d:
                    07:6b:35:b6:74:cc:10:c2:9e:69:f4:54:2a:45:17:
                    0f:d7:7c:f2:6d:22:c5:be:55:11:3c:40:25:24:f9:
                    88:79:f7:32:eb:2a:5a:00:cd:fe:29:fa:14:74:67:
                    24:62:51:f3:76:d7:e2:2f:7f:10:15:2d:a8:1c:17:
                    c6:9b:ab:be:f3:4b:16:30:f1:82:8c:e7:da:f0:9e:
                    4e:14:1b:5d:92:41:61:ce:26:c0:53:7b:1d:21:b5:
                    73:9f
                Exponent: 65537 (0x10001)
        X509v3 extensions:
            X509v3 Basic Constraints: critical
                CA:TRUE
            X509v3 Subject Key Identifier: 
                76:7F:E8:F6:A1:F7:91:56:BD:9C:7E:66:5C:97:F0:A5:1D:6C:06:28
            X509v3 Key Usage: critical
                Certificate Sign, CRL Sign
    Signature Algorithm: sha256WithRSAEncryption
         bc:3e:d1:ed:69:da:91:cf:32:bc:0f:39:17:ec:d5:37:46:1e:
         0e:d9:d3:78:d8:62:ea:03:d3:1c:d0:c6:34:45:cb:b2:50:ce:
         e2:03:96:a7:43:3f:1c:ff:58:93:70:bf:b2:98:e8:31:21:be:
         b6:89:e7:dc:ae:9d:5d:12:36:78:6f:ef:cc:be:b3:bb:ec:27:
         d4:56:ef:69:49:d8:cd:33:7a:ec:76:34:de:bd:91:3f:b1:9c:
         67:23:94:fa:60:44:82:47:30:c1:84:f8:a5:d3:e1:fb:cf:c0:
         bd:53:fb:a9:ef:96:79:aa:34:4a:d1:b3:e4:f2:68:a4:d3:a8:
         75:1c:19:a7:42:a7:62:0b:46:b8:e0:05:3d:c6:51:2c:77:09:
         a1:fc:b7:e8:a6:5d:b6:d2:9d:75:09:2b:5c:b7:00:42:31:a4:
         be:ea:c5:3c:3d:9f:02:8d:69:bc:d0:ad:d5:1c:99:51:4c:3e:
         0b:96:47:c5:85:79:3c:10:5b:5c:9e:e8:a7:ee:f2:46:47:b4:
         fc:13:94:7b:1d:a5:3f:da:b0:3c:7a:08:bd:9e:1d:36:44:27:
         0a:ab:07:b3:91:d0:ba:d2:6a:d5:a0:a5:91:62:b1:73:0b:07:
         07:6f:00:e9:6a:e7:f5:60:cb:f6:84:38:8b:2e:5e:02:dd:7e:
         f3:d9:1e:1d
-----BEGIN CERTIFICATE-----
MIIC3DCCAcSgAwIBAgICEAEwDQYJKoZIhvcNAQELBQAwDzENMAsGA1UEAwwEQyBD
QTAeFw0xNDA4MTQwMjQ3MzFaFw0yNDA4MTEwMjQ3MzFaMA8xDTALBgNVBAMMBEIg
Q0EwggEiMA0GCSqGSIb3DQEBAQUAA4IBDwAwggEKAoIBAQCvD05f76T+/D7kMPrj
1ZqfMuJko9lKgPQdURmIef4foAL1VeNmAzJRIBVVCUjlKIcOlfP8TRVMNM7r5FMK
RHLbyrRTcnQ0gjPuUUb6m5Vazyrauq5Gx/LaC7nb6o+NCZih1KlIhf3UPFlpkOmc
kYhurzsW7GZ9qB9bTdlkGe2N4RHb1h4kBYslF0GfopkXGZrVogCTwi3wNKqEOYL/
6M0tYoIzXQdrNbZ0zBDCnmn0VCpFFw/XfPJtIsW+VRE8QCUk+Yh59zLrKloAzf4p
+hR0ZyRiUfN21+IvfxAVLagcF8abq77zSxYw8YKM59rwnk4UG12SQWHOJsBTex0h
tXOfAgMBAAGjQjBAMA8GA1UdEwEB/wQFMAMBAf8wHQYDVR0OBBYEFHZ/6Pah95FW
vZx+ZlyX8KUdbAYoMA4GA1UdDwEB/wQEAwIBBjANBgkqhkiG9w0BAQsFAAOCAQEA
vD7R7Wnakc8yvA85F+zVN0YeDtnTeNhi6gPTHNDGNEXLslDO4gOWp0M/HP9Yk3C/
spjoMSG+tonn3K6dXRI2eG/vzL6zu+wn1FbvaUnYzTN67HY03r2RP7GcZyOU+mBE
gkcwwYT4pdPh+8/AvVP7qe+Weao0StGz5PJopNOodRwZp0KnYgtGuOAFPcZRLHcJ
ofy36KZdttKddQkrXLcAQjGkvurFPD2fAo1pvNCt1RyZUUw+C5ZHxYV5PBBbXJ7o
p+7yRke0/BOUex2lP9qwPHoIvZ4dNkQnCqsHs5HQutJq1aClkWKxcwsHB28A6Wrn
9WDL9oQ4iy5eAt1+89keHQ==
-----END CERTIFICATE-----
Certificate:
    Data:
        Version: 3 (0x2)
        Serial Number: 4099 (0x1003)
    Signature Algorithm: sha256WithRSAEncryption
        Issuer: CN=D Root CA
        Validity
            Not Before: Aug 14 02:47:31 2014 GMT
            Not After : Aug 11 02:47:31 2024 GMT
        Subject: CN=C CA
        Subject Public Key Info:
            Public Key Algorithm: rsaEncryption
                Public-Key: (2048 bit)
                Modulus:
                    00:ce:78:cf:1a:cb:5f:9f:b8:fb:9b:35:ee:dd:24:
                    f1:6a:f4:cc:6a:63:1f:89:20:20:be:51:ba:2b:a5:
                    e1:46:ad:df:4e:1e:ab:8d:2c:7b:ac:8f:d4:a1:48:
                    f0:72:51:d8:4a:a4:b7:7c:c1:cd:92:c2:4d:74:d7:
                    43:e5:58:66:73:57:5d:e0:a6:30:72:38:ad:7a:04:
                    1a:45:4a:19:72:16:06:e1:3e:04:fa:06:29:69:61:
                    62:48:af:51:17:4f:31:a2:65:6b:61:9d:5a:54:91:
                    f9:67:47:7b:4e:37:60:3a:86:03:cd:68:df:5c:a8:
                    0a:d0:33:e7:51:b0:b3:be:ba:90:9b:d1:e3:69:6e:
                    5c:17:9a:b2:5b:cf:af:c5:6a:fd:32:f5:56:06:8c:
                    d8:11:dd:ed:fd:09:1f:88:6e:e3:e5:49:21:70:e2:
                    c3:ff:f9:04:fd:09:62:e4:24:a0:f8:63:7b:e8:2d:
                    c7:41:cf:b5:6f:76:8a:25:3f:a3:27:df:16:d0:cd:
                    74:ac:c2:91:16:6d:00:1e:73:f0:19:f6:08:70:bd:
                    d1:46:82:82:ac:98:1b:df:a0:7c:c7:39:f6:ce:0a:
                    f8:64:f6:3a:60:9b:f0:61:6d:24:9c:d9:bd:6e:38:
                    f1:78:19:2b:7f:e8:c0:e3:e7:85:93:02:6e:8c:6d:
                    09:f7
                Exponent: 65537 (0x10001)
        X509v3 extensions:
            X509v3 Basic Constraints: critical
                CA:TRUE
            X509v3 Subject Key Identifier: 
                51:35:6F:D5:40:65:74:E3:C8:7B:0C:47:12:B5:FC:58:73:7C:16:D1
            X509v3 Key Usage: critical
                Certificate Sign, CRL Sign
    Signature Algorithm: sha256WithRSAEncryption
         93:da:2d:fb:32:eb:ce:98:0d:0a:8b:53:17:0f:c9:42:cb:b4:
         70:2d:56:5c:b0:dc:70:2a:d6:2a:b9:21:76:c2:a8:ef:c0:6b:
         7c:ec:d8:c3:1f:e1:7f:41:8d:8a:bd:18:ea:90:08:77:72:19:
         c6:aa:97:59:fc:dd:31:e6:73:bb:a6:01:9f:a8:f0:a9:5e:ab:
         14:9a:6d:75:2f:c7:3b:67:a6:4f:74:05:cd:3e:13:c1:e9:39:
         52:99:50:7f:7c:1e:dc:8b:50:40:87:07:30:6d:fb:2b:b9:a0:
         6e:4a:da:3c:ae:66:94:3b:49:a2:e0:24:16:80:d7:8b:56:79:
         4e:b8:6f:1d:f9:9a:21:73:48:bb:11:f8:2e:f9:aa:f4:49:09:
         fb:98:6b:87:b8:7b:62:e7:cc:cd:cb:b7:14:1a:d4:38:51:ed:
         b3:4c:9f:62:b7:a8:23:e5:f4:1c:a9:e5:d3:2a:61:02:00:83:
         3f:e3:35:a9:50:29:2b:20:51:dd:9f:a4:05:56:bc:2c:0a:a7:
         c2:c0:ac:85:48:b0:8f:be:e5:d0:76:81:45:5a:61:8d:65:c6:
         0e:88:21:70:fb:5a:d1:37:ea:dc:d3:a4:c0:43:c8:98:06:b6:
         37:95:14:76:fb:84:97:9f:ca:92:4e:a4:06:23:d1:1a:ce:1f:
         36:3c:a1:47
-----BEGIN CERTIFICATE-----
MIIC4TCCAcmgAwIBAgICEAMwDQYJKoZIhvcNAQELBQAwFDESMBAGA1UEAwwJRCBS
b290IENBMB4XDTE0MDgxNDAyNDczMVoXDTI0MDgxMTAyNDczMVowDzENMAsGA1UE
AwwEQyBDQTCCASIwDQYJKoZIhvcNAQEBBQADggEPADCCAQoCggEBAM54zxrLX5+4
+5s17t0k8Wr0zGpjH4kgIL5Ruiul4Uat304eq40se6yP1KFI8HJR2Eqkt3zBzZLC
TXTXQ+VYZnNXXeCmMHI4rXoEGkVKGXIWBuE+BPoGKWlhYkivURdPMaJla2GdWlSR
+WdHe043YDqGA81o31yoCtAz51Gws766kJvR42luXBeaslvPr8Vq/TL1VgaM2BHd
7f0JH4hu4+VJIXDiw//5BP0JYuQkoPhje+gtx0HPtW92iiU/oyffFtDNdKzCkRZt
AB5z8Bn2CHC90UaCgqyYG9+gfMc59s4K+GT2OmCb8GFtJJzZvW448XgZK3/owOPn
hZMCboxtCfcCAwEAAaNCMEAwDwYDVR0TAQH/BAUwAwEB/zAdBgNVHQ4EFgQUUTVv
1UBldOPIewxHErX8WHN8FtEwDgYDVR0PAQH/BAQDAgEGMA0GCSqGSIb3DQEBCwUA
A4IBAQCT2i37MuvOmA0Ki1MXD8lCy7RwLVZcsNxwKtYquSF2wqjvwGt87NjDH+F/
QY2KvRjqkAh3chnGqpdZ/N0x5nO7pgGfqPCpXqsUmm11L8c7Z6ZPdAXNPhPB6TlS
mVB/fB7ci1BAhwcwbfsruaBuSto8rmaUO0mi4CQWgNeLVnlOuG8d+Zohc0i7Efgu
+ar0SQn7mGuHuHti58zNy7cUGtQ4Ue2zTJ9it6gj5fQcqeXTKmECAIM/4zWpUCkr
IFHdn6QFVrwsCqfCwKyFSLCPvuXQdoFFWmGNZcYOiCFw+1rRN+rc06TAQ8iYBrY3
lRR2+4SXn8qSTqQGI9Eazh82PKFH
-----END CERTIFICATE-----
Certificate:
    Data:
        Version: 3 (0x2)
        Serial Number: 12250836319051526300 (0xaa03b6b97685309c)
    Signature Algorithm: sha1WithRSAEncryption
        Issuer: CN=D Root CA
        Validity
            Not Before: Aug 14 02:47:31 2014 GMT
            Not After : Aug 11 02:47:31 2024 GMT
        Subject: CN=D Root CA
        Subject Public Key Info:
            Public Key Algorithm: rsaEncryption
                Public-Key: (2048 bit)
                Modulus:
                    00:c4:52:21:76:b2:08:c5:8f:63:c4:ec:37:5d:4d:
                    8c:26:63:fb:47:7c:fa:20:d1:54:9e:f4:82:bb:bc:
                    03:40:cd:6c:cc:65:07:f7:3b:63:7e:bf:c8:39:a1:
                    11:05:e3:e0:58:82:1c:ad:04:a2:08:16:08:c8:64:
                    44:09:7e:50:eb:6c:b7:5e:ee:51:81:1d:80:47:b2:
                    51:7e:ed:9b:37:79:0e:0a:06:61:7f:e0:26:0d:bb:
                    72:14:01:f0:a1:4d:71:fd:cc:c2:77:73:7a:bd:f4:
                    6a:08:35:5e:ee:02:2d:96:9a:aa:60:c3:5b:ba:79:
                    48:a3:7a:95:f9:d5:22:9c:7b:10:ca:8e:b2:57:d7:
                    dd:7a:e9:c4:8d:79:7f:e9:71:04:15:4f:73:be:ed:
                    6a:04:f0:ce:9e:57:00:a2:92:92:c6:17:d3:05:c2:
                    ef:86:45:50:f4:53:5e:97:62:f6:4a:ee:5f:fb:99:
                    f9:bf:9c:47:27:63:5b:59:3e:06:3a:0c:5a:a4:9a:
                    7f:cd:bf:42:96:7c:ad:f5:06:98:d9:8a:f2:fe:a9:
                    1b:4b:c9:16:e1:ed:56:24:2a:21:c8:92:10:53:c7:
                    5c:4b:e0:a5:62:59:c7:93:b5:69:de:23:c9:f4:a5:
                    e4:a4:fd:88:ce:59:48:e3:dc:6b:f4:de:5b:8d:5e:
                    05:53
                Exponent: 65537 (0x10001)
        X509v3 extensions:
            X509v3 Basic Constraints: critical
                CA:TRUE
            X509v3 Subject Key Identifier: 
                06:8D:1F:27:78:21:80:08:1A:7E:7F:F8:F7:4D:A2:24:02:4E:3F:01
            X509v3 Key Usage: critical
                Certificate Sign, CRL Sign
    Signature Algorithm: sha1WithRSAEncryption
         11:ce:c4:71:a2:28:64:97:e8:19:3f:b8:0e:5e:b6:95:30:2b:
         a9:12:c8:eb:c6:bb:8a:82:e2:f1:10:68:75:d9:a2:d0:85:48:
         d0:62:54:b6:e2:b9:08:6c:04:57:d6:ed:3c:bd:98:52:9e:5f:
         3b:91:aa:70:20:d7:b9:75:07:69:c7:ab:98:85:15:63:d0:13:
         58:08:47:61:eb:b9:fc:b3:3f:a8:fd:50:d6:c2:78:ad:03:07:
         24:50:af:43:a2:21:4f:a3:3d:9e:34:c2:bf:22:2a:69:e0:96:
         b0:02:c0:40:81:c3:8b:a7:c8:5f:33:d5:47:0a:4e:35:fe:85:
         3d:2f:e2:aa:5b:e1:46:b9:6d:04:34:0f:c8:90:bc:48:26:a5:
         a0:b4:ca:23:8b:f5:a9:47:d2:47:ee:23:c6:7f:b4:01:87:85:
         8a:81:25:47:fc:03:20:1f:26:d6:3e:af:ea:96:66:3d:4b:9e:
         cb:cc:e2:9f:99:21:a6:60:51:e5:28:7a:8b:a2:71:cf:db:18:
         62:1d:ce:a8:1c:6e:ed:b9:ae:2d:10:b2:0f:10:65:da:2f:fc:
         d4:ab:52:04:b1:f2:bd:1f:0b:6e:50:7e:93:5a:f0:61:8f:a4:
         24:a4:8c:4c:71:e2:36:26:8e:88:b8:8c:5a:3a:a0:75:c3:04:
         de:dd:b5:60
-----BEGIN CERTIFICATE-----
MIIC7TCCAdWgAwIBAgIJAKoDtrl2hTCcMA0GCSqGSIb3DQEBBQUAMBQxEjAQBgNV
BAMMCUQgUm9vdCBDQTAeFw0xNDA4MTQwMjQ3MzFaFw0yNDA4MTEwMjQ3MzFaMBQx
EjAQBgNVBAMMCUQgUm9vdCBDQTCCASIwDQYJKoZIhvcNAQEBBQADggEPADCCAQoC
ggEBAMRSIXayCMWPY8TsN11NjCZj+0d8+iDRVJ70gru8A0DNbMxlB/c7Y36/yDmh
EQXj4FiCHK0EoggWCMhkRAl+UOtst17uUYEdgEeyUX7tmzd5DgoGYX/gJg27chQB
8KFNcf3Mwndzer30agg1Xu4CLZaaqmDDW7p5SKN6lfnVIpx7EMqOslfX3XrpxI15
f+lxBBVPc77tagTwzp5XAKKSksYX0wXC74ZFUPRTXpdi9kruX/uZ+b+cRydjW1k+
BjoMWqSaf82/QpZ8rfUGmNmK8v6pG0vJFuHtViQqIciSEFPHXEvgpWJZx5O1ad4j
yfSl5KT9iM5ZSOPca/TeW41eBVMCAwEAAaNCMEAwDwYDVR0TAQH/BAUwAwEB/zAd
BgNVHQ4EFgQUBo0fJ3ghgAgafn/4902iJAJOPwEwDgYDVR0PAQH/BAQDAgEGMA0G
CSqGSIb3DQEBBQUAA4IBAQARzsRxoihkl+gZP7gOXraVMCupEsjrxruKguLxEGh1
2aLQhUjQYlS24rkIbARX1u08vZhSnl87kapwINe5dQdpx6uYhRVj0BNYCEdh67n8
sz+o/VDWwnitAwckUK9DoiFPoz2eNMK/Iipp4JawAsBAgcOLp8hfM9VHCk41/oU9
L+KqW+FGuW0ENA/IkLxIJqWgtMoji/WpR9JH7iPGf7QBh4WKgSVH/AMgHybWPq/q
lmY9S57LzOKfmSGmYFHlKHqLonHP2xhiHc6oHG7tua4tELIPEGXaL/zUq1IEsfK9
HwtuUH6TWvBhj6QkpIxMceI2Jo6IuIxaOqB1wwTe3bVg
-----END CERTIFICATE-----
