Certificate:
    Data:
        Version: 3 (0x2)
        Serial Number: 4096 (0x1000)
        Signature Algorithm: sha256WithRSAEncryption
        Issuer: CN=B CA
        Validity
            Not Before: Feb  8 23:34:58 2016 GMT
            Not After : Feb  5 23:34:58 2026 GMT
        Subject: C=US, ST=California, L=Mountain View, O=Test CA, CN=127.0.0.1
        Subject Public Key Info:
            Public Key Algorithm: rsaEncryption
            RSA Public Key: (2048 bit)
                Modulus (2048 bit):
                    00:ca:6c:3d:d6:ef:e6:c8:d4:a3:a8:52:e1:f8:5d:
                    f7:4e:77:ac:a3:64:6f:8b:d4:3e:cd:18:8c:39:f2:
                    10:64:f7:f3:61:1a:ce:8f:d8:32:1a:c1:f6:88:51:
                    0a:12:07:d5:88:5c:f5:45:56:d0:9f:87:17:78:de:
                    4d:d0:fd:fa:61:81:ef:a0:6b:38:02:3b:3d:8a:4e:
                    1f:25:74:f0:05:c3:1b:10:f3:a4:52:6d:68:83:af:
                    83:69:16:54:d4:f9:42:82:98:9e:92:4c:82:33:34:
                    29:b1:2f:60:d3:f2:00:3a:d6:9b:20:cc:27:57:be:
                    da:29:b4:74:f7:aa:f6:f0:5a:45:0e:85:da:02:d4:
                    c1:96:81:26:a0:a4:77:a5:54:b4:24:7a:f5:9f:e6:
                    08:42:ac:d8:ac:00:f7:fc:8a:43:0d:c9:b6:b7:a3:
                    4d:e6:50:d9:33:fa:18:28:b2:77:dd:a3:f5:fa:30:
                    32:f9:bf:25:2c:97:91:1f:69:26:5c:1e:e9:2b:24:
                    26:5d:90:91:b1:8e:5c:07:2a:bc:39:a4:07:b6:28:
                    84:dd:75:87:20:50:13:ab:b4:3c:51:23:e5:d7:ea:
                    89:f2:a9:fd:da:87:b0:d2:9a:14:20:ae:cf:f9:16:
                    1b:78:b8:a2:94:50:2f:86:4c:20:27:08:d0:44:80:
                    a3:79
                Exponent: 65537 (0x10001)
        X509v3 extensions:
            X509v3 Basic Constraints: critical
                CA:FALSE
            X509v3 Subject Key Identifier: 
                78:36:93:58:1F:73:7C:93:CA:AE:BB:9A:4E:A7:37:F1:83:03:4B:CF
            X509v3 Authority Key Identifier: 
                keyid:0D:AF:BC:C3:31:09:C6:9D:F8:44:D2:51:E8:13:FF:24:78:9D:83:76

            X509v3 Extended Key Usage: 
                TLS Web Server Authentication, TLS Web Client Authentication
    Signature Algorithm: sha256WithRSAEncryption
        5e:87:35:21:15:89:4e:ac:9a:8e:db:d2:dc:83:6e:9e:64:b9:
        30:f8:91:f7:9f:c4:de:b4:92:bf:05:4a:1b:e3:12:0f:b0:0d:
        d8:8f:fd:f9:e6:e8:2c:24:e0:88:cc:58:5d:3b:a3:23:95:86:
        b2:1f:0f:fb:02:95:c4:16:04:24:05:bb:65:e4:48:80:6e:64:
        33:ed:a0:71:7d:21:f5:6f:70:72:07:54:b2:e7:79:98:8d:b5:
        2b:0d:68:8e:3a:be:e3:91:f8:6a:60:d1:51:20:08:83:43:18:
        5a:49:e2:66:21:aa:df:d2:b1:90:96:5a:99:6f:64:a0:96:7f:
        e5:9b:3f:82:d5:42:8c:7d:fa:9f:b1:62:6c:e6:42:f6:1d:ab:
        aa:e2:a4:05:33:99:4e:67:18:46:14:16:23:b8:46:db:d1:28:
        a3:2c:2a:97:32:c3:02:e8:a0:9f:4f:e9:e6:c9:7e:c8:63:0d:
        ff:de:95:f4:4d:f0:ca:57:49:9a:07:4b:5a:13:96:bc:49:10:
        5c:3c:92:ce:1e:dd:10:d6:dc:6b:07:f0:ae:3e:0c:d0:05:1f:
        00:08:79:0c:2a:e5:03:96:7d:1e:cb:3f:b7:f6:30:07:39:66:
        8b:9a:b4:80:1c:e2:d2:7d:e8:bc:91:26:c5:9a:ec:a1:25:26:
        56:0a:7b:39
-----BEGIN CERTIFICATE-----
MIIDWjCCAkKgAwIBAgICEAAwDQYJKoZIhvcNAQELBQAwDzENMAsGA1UEAwwEQiBD
QTAeFw0xNjAyMDgyMzM0NThaFw0yNjAyMDUyMzM0NThaMGAxCzAJBgNVBAYTAlVT
MRMwEQYDVQQIDApDYWxpZm9ybmlhMRYwFAYDVQQHDA1Nb3VudGFpbiBWaWV3MRAw
DgYDVQQKDAdUZXN0IENBMRIwEAYDVQQDDAkxMjcuMC4wLjEwggEiMA0GCSqGSIb3
DQEBAQUAA4IBDwAwggEKAoIBAQDKbD3W7+bI1KOoUuH4XfdOd6yjZG+L1D7NGIw5
8hBk9/NhGs6P2DIawfaIUQoSB9WIXPVFVtCfhxd43k3Q/fphge+gazgCOz2KTh8l
dPAFwxsQ86RSbWiDr4NpFlTU+UKCmJ6STIIzNCmxL2DT8gA61psgzCdXvtoptHT3
qvbwWkUOhdoC1MGWgSagpHelVLQkevWf5ghCrNisAPf8ikMNyba3o03mUNkz+hgo
snfdo/X6MDL5vyUsl5EfaSZcHukrJCZdkJGxjlwHKrw5pAe2KITddYcgUBOrtDxR
I+XX6onyqf3ah7DSmhQgrs/5Fht4uKKUUC+GTCAnCNBEgKN5AgMBAAGjbzBtMAwG
A1UdEwEB/wQCMAAwHQYDVR0OBBYEFHg2k1gfc3yTyq67mk6nN/GDA0vPMB8GA1Ud
IwQYMBaAFA2vvMMxCcad+ETSUegT/yR4nYN2MB0GA1UdJQQWMBQGCCsGAQUFBwMB
BggrBgEFBQcDAjANBgkqhkiG9w0BAQsFAAOCAQEAXoc1IRWJTqyajtvS3INunmS5
MPiR95/E3rSSvwVKG+MSD7AN2I/9+eboLCTgiMxYXTujI5WGsh8P+wKVxBYEJAW7
ZeRIgG5kM+2gcX0h9W9wcgdUsud5mI21Kw1ojjq+45H4amDRUSAIg0MYWkniZiGq
39KxkJZamW9koJZ/5Zs/gtVCjH36n7FibOZC9h2rquKkBTOZTmcYRhQWI7hG29Eo
oywqlzLDAuign0/p5sl+yGMN/96V9E3wyldJmgdLWhOWvEkQXDySzh7dENbcawfw
rj4M0AUfAAh5DCrlA5Z9Hss/t/YwBzlmi5q0gBzi0n3ovJEmxZrsoSUmVgp7OQ==
-----END CERTIFICATE-----
Certificate:
    Data:
        Version: 3 (0x2)
        Serial Number: 4096 (0x1000)
        Signature Algorithm: sha256WithRSAEncryption
        Issuer: CN=C CA
        Validity
            Not Before: Jan  4 00:00:00 2016 GMT
            Not After : Jan  2 00:00:00 2026 GMT
        Subject: CN=B CA
        Subject Public Key Info:
            Public Key Algorithm: rsaEncryption
            RSA Public Key: (2048 bit)
                Modulus (2048 bit):
                    00:a2:a0:93:17:1e:ee:f0:fb:87:1f:71:ca:6b:b9:
                    bd:2d:67:38:2a:24:c7:c3:c2:88:4d:ca:f2:50:33:
                    60:1d:6f:61:a5:61:02:a4:a7:76:2b:89:43:78:a7:
                    0a:27:04:dc:a5:5b:6e:a8:4c:29:f2:25:c6:c0:32:
                    20:e0:01:8d:a1:16:15:c9:b5:d8:17:7d:e0:e8:90:
                    89:a3:f5:96:1f:90:c6:e3:10:1a:f9:f5:6a:d5:41:
                    ce:cd:a8:fc:36:77:2f:a2:d7:8e:39:50:36:65:4d:
                    a7:83:6c:e1:a4:cc:f6:6b:c0:7b:c8:98:f4:01:3f:
                    94:d3:d6:11:1d:b3:ef:95:c8:ea:07:d9:5e:fd:82:
                    4f:23:4d:08:89:fb:68:2d:82:12:98:e0:87:f2:7a:
                    c7:76:98:4c:ca:1d:3e:e8:bc:72:dd:b0:b7:41:84:
                    6e:39:cd:a9:35:e8:ee:2a:d1:54:cd:21:ed:6f:a4:
                    ab:e9:d8:c9:d2:e9:11:66:66:78:33:ae:d8:78:75:
                    ac:1e:ad:0e:23:82:35:13:96:ed:eb:3e:58:eb:27:
                    fb:1b:fd:27:6e:f0:c3:ff:88:cc:cc:63:35:23:3d:
                    ce:4d:2e:2d:dc:b3:91:8e:d8:d8:5b:6a:92:28:c5:
                    e9:a4:02:76:34:e0:6d:41:61:43:71:e1:59:b3:c2:
                    ce:f7
                Exponent: 65537 (0x10001)
        X509v3 extensions:
            X509v3 Basic Constraints: critical
                CA:TRUE
            X509v3 Subject Key Identifier: 
                0D:AF:BC:C3:31:09:C6:9D:F8:44:D2:51:E8:13:FF:24:78:9D:83:76
            X509v3 Key Usage: critical
                Certificate Sign, CRL Sign
    Signature Algorithm: sha256WithRSAEncryption
        28:52:54:55:5c:5b:4f:af:4c:66:cc:c3:71:dd:3e:60:48:76:
        c3:f0:c0:40:30:f6:44:06:73:2f:c5:b1:1c:6a:e9:6f:fd:92:
        8d:40:38:eb:46:de:58:cd:68:0f:cd:7f:28:a2:79:29:92:ae:
        68:f2:ba:0a:f1:e6:17:58:a4:3b:ee:61:6c:d6:5d:2a:07:61:
        b0:31:c9:9b:dc:08:32:b8:d8:ac:14:9c:1a:ec:21:7d:46:63:
        75:67:46:36:ec:25:f0:e6:ed:3f:5d:b7:fd:06:67:46:80:a0:
        b9:a8:25:e7:05:0a:f9:a7:20:48:d4:71:b4:3f:0b:1c:4d:f4:
        73:8b:cc:9f:67:cf:36:43:e2:82:d5:d5:4e:4c:71:74:5c:db:
        ba:35:bf:1e:9e:63:46:d0:c7:b9:f4:2a:92:23:c7:59:af:5d:
        b1:24:7c:ff:1c:08:0d:2a:50:79:57:1c:a2:45:38:a5:3e:d7:
        c8:5c:91:f2:69:70:d1:47:4a:55:bc:84:dc:9b:9f:ae:f2:94:
        1c:22:65:11:4c:7c:e1:3c:ae:d4:e6:11:fc:3f:d8:53:6b:65:
        4a:7c:44:bf:91:bd:b0:3e:df:b5:f5:c5:8e:1f:a5:19:83:2a:
        8d:4e:13:3d:58:45:8e:11:b6:9e:96:7a:7a:6e:0b:e5:1a:66:
        7a:00:0e:75
-----BEGIN CERTIFICATE-----
MIIC3DCCAcSgAwIBAgICEAAwDQYJKoZIhvcNAQELBQAwDzENMAsGA1UEAwwEQyBD
QTAeFw0xNjAxMDQwMDAwMDBaFw0yNjAxMDIwMDAwMDBaMA8xDTALBgNVBAMMBEIg
Q0EwggEiMA0GCSqGSIb3DQEBAQUAA4IBDwAwggEKAoIBAQCioJMXHu7w+4cfccpr
ub0tZzgqJMfDwohNyvJQM2Adb2GlYQKkp3YriUN4pwonBNylW26oTCnyJcbAMiDg
AY2hFhXJtdgXfeDokImj9ZYfkMbjEBr59WrVQc7NqPw2dy+i1445UDZlTaeDbOGk
zPZrwHvImPQBP5TT1hEds++VyOoH2V79gk8jTQiJ+2gtghKY4Ifyesd2mEzKHT7o
vHLdsLdBhG45zak16O4q0VTNIe1vpKvp2MnS6RFmZngzrth4dawerQ4jgjUTlu3r
PljrJ/sb/Sdu8MP/iMzMYzUjPc5NLi3cs5GO2NhbapIoxemkAnY04G1BYUNx4Vmz
ws73AgMBAAGjQjBAMA8GA1UdEwEB/wQFMAMBAf8wHQYDVR0OBBYEFA2vvMMxCcad
+ETSUegT/yR4nYN2MA4GA1UdDwEB/wQEAwIBBjANBgkqhkiG9w0BAQsFAAOCAQEA
KFJUVVxbT69MZszDcd0+YEh2w/DAQDD2RAZzL8WxHGrpb/2SjUA460beWM1oD81/
KKJ5KZKuaPK6CvHmF1ikO+5hbNZdKgdhsDHJm9wIMrjYrBScGuwhfUZjdWdGNuwl
8ObtP123/QZnRoCguagl5wUK+acgSNRxtD8LHE30c4vMn2fPNkPigtXVTkxxdFzb
ujW/Hp5jRtDHufQqkiPHWa9dsSR8/xwIDSpQeVccokU4pT7XyFyR8mlw0UdKVbyE
3JufrvKUHCJlEUx84Tyu1OYR/D/YU2tlSnxEv5G9sD7ftfXFjh+lGYMqjU4TPVhF
jhG2npZ6em4L5RpmegAOdQ==
-----END CERTIFICATE-----
Certificate:
    Data:
        Version: 3 (0x2)
        Serial Number: 4097 (0x1001)
        Signature Algorithm: sha256WithRSAEncryption
        Issuer: CN=D Root CA
        Validity
            Not Before: Jan  3 00:00:00 2016 GMT
            Not After : Jan  2 00:00:00 2026 GMT
        Subject: CN=C CA
        Subject Public Key Info:
            Public Key Algorithm: rsaEncryption
            RSA Public Key: (2048 bit)
                Modulus (2048 bit):
                    00:c2:21:aa:d2:67:ec:f5:95:9e:c9:00:f2:ee:83:
                    26:6c:3c:30:d4:a8:78:dd:0a:a5:d6:81:f0:54:25:
                    de:8f:9a:0e:8f:5c:06:96:b0:83:b7:13:56:33:9e:
                    d1:6a:7d:45:40:d8:e5:21:1d:c5:6d:31:34:6f:45:
                    22:cf:6f:01:b4:f8:6c:ce:70:d0:e9:0e:ed:04:d9:
                    34:7a:91:db:6f:90:94:66:95:26:0b:29:26:4c:6c:
                    8b:e3:13:a1:42:29:59:a0:2c:fe:83:a5:3c:3d:e8:
                    32:ac:37:a7:ae:b2:79:d3:12:98:5f:c7:fd:4c:49:
                    6b:e4:32:40:76:7b:78:ae:a1:61:b1:0a:d1:5c:f3:
                    96:13:5f:95:5a:a2:35:c5:63:1b:25:05:8d:3c:08:
                    d0:b0:28:2a:f3:f6:34:ab:a5:cd:e7:82:2c:35:38:
                    8b:f5:41:6c:71:32:c4:13:67:ef:9b:8f:32:ab:7c:
                    da:e1:6a:92:4b:5b:9e:39:7e:6b:00:f8:8d:e2:b3:
                    3b:ad:2f:11:3f:80:d5:19:0e:cc:d4:c1:21:42:46:
                    42:2d:d0:5e:ae:63:d1:0a:3e:66:fb:eb:0b:9b:e4:
                    fe:7a:ca:43:5c:cc:98:6a:e1:fd:32:18:4c:63:4c:
                    cd:98:9b:be:fa:5b:2d:c4:76:cc:8d:e5:6d:aa:bb:
                    5a:37
                Exponent: 65537 (0x10001)
        X509v3 extensions:
            X509v3 Basic Constraints: critical
                CA:TRUE
            X509v3 Subject Key Identifier: 
                34:19:53:D9:DA:11:B1:FF:00:35:2B:37:00:91:1F:91:C0:F7:2E:0A
            X509v3 Key Usage: critical
                Certificate Sign, CRL Sign
    Signature Algorithm: sha256WithRSAEncryption
        5a:aa:0a:cb:92:8a:cd:ca:49:b4:5e:34:32:46:0a:9e:fd:71:
        30:dd:af:b8:9a:6c:82:87:59:27:ed:df:11:1f:13:fa:c9:d9:
        fb:8a:e8:ba:7c:67:33:7e:ea:42:f3:1c:34:91:5c:5f:ed:68:
        d7:dc:06:8d:6a:75:38:42:4f:eb:52:55:84:c6:74:9d:53:87:
        d6:34:64:19:19:4c:6d:b7:3a:f9:e8:8a:14:4d:00:ec:07:71:
        00:6c:05:80:94:4b:4f:e7:a4:db:26:ee:e1:2b:98:d6:ad:ca:
        32:ab:d6:3a:23:83:30:e8:33:82:82:7d:a5:1e:00:97:be:a8:
        0f:68:d7:ae:8a:4a:52:be:d7:b5:0a:49:4d:a8:f1:25:e3:de:
        41:37:6a:53:1c:b5:0e:b0:fd:b6:db:25:b6:a2:cb:ff:d8:7f:
        98:30:84:15:f0:27:b5:fd:a3:71:35:ad:4c:83:8c:d1:da:49:
        a5:97:b3:7d:80:6f:03:40:fe:a3:22:38:58:70:6d:43:01:63:
        db:fb:ca:b6:5f:fc:f0:45:b3:57:5a:a6:cc:b9:d0:99:a8:f6:
        a4:4f:c6:20:a5:6e:dd:e0:3b:e7:b2:0a:8b:6f:4d:6f:67:57:
        e7:c4:58:80:26:5d:1d:27:f9:3e:22:ed:00:bc:fa:8d:8d:eb:
        bb:ab:91:a9
-----BEGIN CERTIFICATE-----
MIIC4TCCAcmgAwIBAgICEAEwDQYJKoZIhvcNAQELBQAwFDESMBAGA1UEAwwJRCBS
b290IENBMB4XDTE2MDEwMzAwMDAwMFoXDTI2MDEwMjAwMDAwMFowDzENMAsGA1UE
AwwEQyBDQTCCASIwDQYJKoZIhvcNAQEBBQADggEPADCCAQoCggEBAMIhqtJn7PWV
nskA8u6DJmw8MNSoeN0KpdaB8FQl3o+aDo9cBpawg7cTVjOe0Wp9RUDY5SEdxW0x
NG9FIs9vAbT4bM5w0OkO7QTZNHqR22+QlGaVJgspJkxsi+MToUIpWaAs/oOlPD3o
Mqw3p66yedMSmF/H/UxJa+QyQHZ7eK6hYbEK0VzzlhNflVqiNcVjGyUFjTwI0LAo
KvP2NKulzeeCLDU4i/VBbHEyxBNn75uPMqt82uFqkktbnjl+awD4jeKzO60vET+A
1RkOzNTBIUJGQi3QXq5j0Qo+ZvvrC5vk/nrKQ1zMmGrh/TIYTGNMzZibvvpbLcR2
zI3lbaq7WjcCAwEAAaNCMEAwDwYDVR0TAQH/BAUwAwEB/zAdBgNVHQ4EFgQUNBlT
2doRsf8ANSs3AJEfkcD3LgowDgYDVR0PAQH/BAQDAgEGMA0GCSqGSIb3DQEBCwUA
A4IBAQBaqgrLkorNykm0XjQyRgqe/XEw3a+4mmyCh1kn7d8RHxP6ydn7iui6fGcz
fupC8xw0kVxf7WjX3AaNanU4Qk/rUlWExnSdU4fWNGQZGUxttzr56IoUTQDsB3EA
bAWAlEtP56TbJu7hK5jWrcoyq9Y6I4Mw6DOCgn2lHgCXvqgPaNeuikpSvte1CklN
qPEl495BN2pTHLUOsP222yW2osv/2H+YMIQV8Ce1/aNxNa1Mg4zR2kmll7N9gG8D
QP6jIjhYcG1DAWPb+8q2X/zwRbNXWqbMudCZqPakT8YgpW7d4DvnsgqLb01vZ1fn
xFiAJl0dJ/k+Iu0AvPqNjeu7q5Gp
-----END CERTIFICATE-----
Certificate:
    Data:
        Version: 3 (0x2)
        Serial Number: 4096 (0x1000)
        Signature Algorithm: sha256WithRSAEncryption
        Issuer: CN=D Root CA
        Validity
            Not Before: Jan  2 00:00:00 2016 GMT
            Not After : Jan  2 00:00:00 2026 GMT
        Subject: CN=D Root CA
        Subject Public Key Info:
            Public Key Algorithm: rsaEncryption
            RSA Public Key: (2048 bit)
                Modulus (2048 bit):
                    00:e4:63:48:86:4d:1f:34:4d:c9:b2:f3:14:af:d3:
                    ec:68:bd:ac:b6:ac:e4:11:fd:81:d3:4c:7c:dd:03:
                    d7:4e:44:30:9d:53:7a:4d:cf:25:29:ef:b5:f5:83:
                    b3:30:10:3b:97:f2:63:8c:40:41:fd:18:88:81:c5:
                    53:26:90:f7:77:b1:01:5f:d7:7a:04:73:85:9a:b3:
                    e8:6e:40:7b:6a:2b:1c:b4:0f:52:83:ad:08:cb:58:
                    c2:71:87:85:b3:81:8c:21:88:aa:d5:4f:0b:84:c8:
                    52:b0:cf:c4:cf:c7:72:8f:6a:2f:07:a2:2b:33:3d:
                    6c:aa:00:1f:ef:c9:61:f6:58:8d:3a:8f:23:6b:75:
                    a0:cf:86:9d:02:0f:ca:2b:d2:75:f3:b6:fe:14:26:
                    31:d4:31:28:e4:d1:cf:f7:4d:12:58:d8:ac:f8:d3:
                    f2:ae:d6:6e:72:dc:07:b8:d2:f2:76:0d:bf:a3:c1:
                    18:63:58:55:84:4f:a5:82:d3:8f:17:8d:e1:0f:5a:
                    9e:7f:69:01:4c:da:90:a1:33:b2:36:4f:91:3d:1f:
                    0b:ea:8c:0d:ca:ff:e7:d1:0c:e0:ce:5b:54:6a:b9:
                    ed:46:38:8c:80:d4:24:9c:71:48:23:80:61:b8:71:
                    d4:8f:0d:96:b2:c1:f0:29:fc:c7:dd:9d:87:7a:f4:
                    16:0d
                Exponent: 65537 (0x10001)
        X509v3 extensions:
            X509v3 Basic Constraints: critical
                CA:TRUE
            X509v3 Subject Key Identifier: 
                B4:73:D6:1A:33:13:BC:9C:23:5D:F6:4B:A2:29:BD:F8:DC:73:49:11
            X509v3 Key Usage: critical
                Certificate Sign, CRL Sign
    Signature Algorithm: sha256WithRSAEncryption
        6d:f2:9a:c2:eb:36:2b:45:ad:58:b5:59:68:e9:64:ad:75:18:
        c0:73:b3:42:a4:ff:c3:25:02:f6:91:9b:a4:4d:0d:3d:49:3e:
        d2:6b:c5:75:89:48:7b:fa:34:40:4d:06:4e:a6:cf:c5:3c:d5:
        c2:a8:0e:77:2e:66:f1:fb:28:80:15:06:68:cb:9e:8e:27:1b:
        22:02:9f:c2:6b:fc:48:b0:20:25:4b:32:6a:db:99:53:89:4e:
        86:b7:a7:48:ed:1a:3a:f3:87:54:c6:e8:59:a3:95:49:31:39:
        01:54:56:ee:a8:6a:ba:f2:34:30:e1:75:84:1a:a6:4e:14:e0:
        25:58:8a:88:dc:2a:58:1e:22:c6:00:62:57:6d:d8:c3:2e:a6:
        19:05:8f:b9:b9:f3:e9:3e:39:4f:0a:1a:cc:59:ca:b6:89:29:
        59:b3:ad:92:86:8f:c0:ba:7d:7f:55:27:c6:db:aa:b0:0c:45:
        73:cc:18:6e:4d:0e:16:61:ad:d9:96:b6:d5:3e:29:e1:59:8c:
        4e:c9:6c:7a:63:0b:9b:37:0d:d6:31:bf:8c:90:33:97:60:f5:
        3b:24:1a:ad:eb:d0:8b:3c:0f:1c:0a:52:4b:83:ec:35:96:c6:
        bb:67:3b:d7:19:78:dc:49:25:c8:b2:44:f5:26:e7:5d:35:4f:
        6a:bd:00:0f
-----BEGIN CERTIFICATE-----
MIIC5jCCAc6gAwIBAgICEAAwDQYJKoZIhvcNAQELBQAwFDESMBAGA1UEAwwJRCBS
b290IENBMB4XDTE2MDEwMjAwMDAwMFoXDTI2MDEwMjAwMDAwMFowFDESMBAGA1UE
AwwJRCBSb290IENBMIIBIjANBgkqhkiG9w0BAQEFAAOCAQ8AMIIBCgKCAQEA5GNI
hk0fNE3JsvMUr9PsaL2stqzkEf2B00x83QPXTkQwnVN6Tc8lKe+19YOzMBA7l/Jj
jEBB/RiIgcVTJpD3d7EBX9d6BHOFmrPobkB7aisctA9Sg60Iy1jCcYeFs4GMIYiq
1U8LhMhSsM/Ez8dyj2ovB6IrMz1sqgAf78lh9liNOo8ja3Wgz4adAg/KK9J187b+
FCYx1DEo5NHP900SWNis+NPyrtZuctwHuNLydg2/o8EYY1hVhE+lgtOPF43hD1qe
f2kBTNqQoTOyNk+RPR8L6owNyv/n0QzgzltUarntRjiMgNQknHFII4BhuHHUjw2W
ssHwKfzH3Z2HevQWDQIDAQABo0IwQDAPBgNVHRMBAf8EBTADAQH/MB0GA1UdDgQW
BBS0c9YaMxO8nCNd9kuiKb343HNJETAOBgNVHQ8BAf8EBAMCAQYwDQYJKoZIhvcN
AQELBQADggEBAG3ymsLrNitFrVi1WWjpZK11GMBzs0Kk/8MlAvaRm6RNDT1JPtJr
xXWJSHv6NEBNBk6mz8U81cKoDncuZvH7KIAVBmjLno4nGyICn8Jr/EiwICVLMmrb
mVOJToa3p0jtGjrzh1TG6FmjlUkxOQFUVu6oarryNDDhdYQapk4U4CVYiojcKlge
IsYAYldt2MMuphkFj7m58+k+OU8KGsxZyraJKVmzrZKGj8C6fX9VJ8bbqrAMRXPM
GG5NDhZhrdmWttU+KeFZjE7JbHpjC5s3DdYxv4yQM5dg9TskGq3r0Is8DxwKUkuD
7DWWxrtnO9cZeNxJJciyRPUm5101T2q9AA8=
-----END CERTIFICATE-----
