Certificate:
    Data:
        Version: 3 (0x2)
        Serial Number: 4097 (0x1001)
        Signature Algorithm: sha256WithRSAEncryption
        Issuer: CN=E Root CA
        Validity
            Not Before: Jan  5 00:00:00 2016 GMT
            Not After : Jan  2 00:00:00 2026 GMT
        Subject: CN=C CA
        Subject Public Key Info:
            Public Key Algorithm: rsaEncryption
            RSA Public Key: (2048 bit)
                Modulus (2048 bit):
                    00:c2:21:aa:d2:67:ec:f5:95:9e:c9:00:f2:ee:83:
                    26:6c:3c:30:d4:a8:78:dd:0a:a5:d6:81:f0:54:25:
                    de:8f:9a:0e:8f:5c:06:96:b0:83:b7:13:56:33:9e:
                    d1:6a:7d:45:40:d8:e5:21:1d:c5:6d:31:34:6f:45:
                    22:cf:6f:01:b4:f8:6c:ce:70:d0:e9:0e:ed:04:d9:
                    34:7a:91:db:6f:90:94:66:95:26:0b:29:26:4c:6c:
                    8b:e3:13:a1:42:29:59:a0:2c:fe:83:a5:3c:3d:e8:
                    32:ac:37:a7:ae:b2:79:d3:12:98:5f:c7:fd:4c:49:
                    6b:e4:32:40:76:7b:78:ae:a1:61:b1:0a:d1:5c:f3:
                    96:13:5f:95:5a:a2:35:c5:63:1b:25:05:8d:3c:08:
                    d0:b0:28:2a:f3:f6:34:ab:a5:cd:e7:82:2c:35:38:
                    8b:f5:41:6c:71:32:c4:13:67:ef:9b:8f:32:ab:7c:
                    da:e1:6a:92:4b:5b:9e:39:7e:6b:00:f8:8d:e2:b3:
                    3b:ad:2f:11:3f:80:d5:19:0e:cc:d4:c1:21:42:46:
                    42:2d:d0:5e:ae:63:d1:0a:3e:66:fb:eb:0b:9b:e4:
                    fe:7a:ca:43:5c:cc:98:6a:e1:fd:32:18:4c:63:4c:
                    cd:98:9b:be:fa:5b:2d:c4:76:cc:8d:e5:6d:aa:bb:
                    5a:37
                Exponent: 65537 (0x10001)
        X509v3 extensions:
            X509v3 Basic Constraints: critical
                CA:TRUE
            X509v3 Subject Key Identifier: 
                34:19:53:D9:DA:11:B1:FF:00:35:2B:37:00:91:1F:91:C0:F7:2E:0A
            X509v3 Key Usage: critical
                Certificate Sign, CRL Sign
    Signature Algorithm: sha256WithRSAEncryption
        57:6d:1c:44:40:54:a1:e5:3c:a0:e1:e1:d0:72:41:61:93:91:
        38:65:8b:cc:35:d9:4c:04:80:12:4a:fd:84:71:9f:06:4f:de:
        06:1c:0d:93:51:b2:2d:d7:c8:f5:0d:4f:fd:14:58:9e:d2:c2:
        ac:5d:bf:f7:67:5f:68:2d:a2:cf:12:86:79:26:70:11:2d:3f:
        0c:5f:65:fc:44:fd:6e:87:5e:56:3a:dc:be:da:95:e2:45:aa:
        07:28:ff:46:1e:4b:bf:03:92:84:53:9b:c9:7a:dd:e7:5e:e9:
        57:ba:18:c2:23:12:26:27:74:b6:93:44:4c:1e:6a:e2:20:62:
        e5:33:db:86:14:41:7e:7c:76:5a:e5:d1:7f:fc:f4:f9:a3:23:
        c9:06:ec:cb:b5:62:1e:bc:7b:1c:70:57:a5:d3:1d:d6:0f:79:
        6a:f2:05:58:63:11:91:fb:b4:44:6a:b2:97:18:cf:ee:de:5d:
        ac:d4:d8:63:e2:4f:42:25:fa:44:a4:47:b1:e4:f7:7f:55:a0:
        e0:f7:09:f8:43:5c:54:1f:6a:e4:87:96:91:a0:8b:72:57:53:
        52:22:31:d1:26:d4:5f:38:43:17:2a:48:91:37:b6:d8:d2:b3:
        54:fc:f7:61:4e:c6:bc:39:89:e2:d8:3c:c0:d4:50:33:0b:de:
        3d:02:70:5d
-----BEGIN CERTIFICATE-----
MIIC4TCCAcmgAwIBAgICEAEwDQYJKoZIhvcNAQELBQAwFDESMBAGA1UEAwwJRSBS
b290IENBMB4XDTE2MDEwNTAwMDAwMFoXDTI2MDEwMjAwMDAwMFowDzENMAsGA1UE
AwwEQyBDQTCCASIwDQYJKoZIhvcNAQEBBQADggEPADCCAQoCggEBAMIhqtJn7PWV
nskA8u6DJmw8MNSoeN0KpdaB8FQl3o+aDo9cBpawg7cTVjOe0Wp9RUDY5SEdxW0x
NG9FIs9vAbT4bM5w0OkO7QTZNHqR22+QlGaVJgspJkxsi+MToUIpWaAs/oOlPD3o
Mqw3p66yedMSmF/H/UxJa+QyQHZ7eK6hYbEK0VzzlhNflVqiNcVjGyUFjTwI0LAo
KvP2NKulzeeCLDU4i/VBbHEyxBNn75uPMqt82uFqkktbnjl+awD4jeKzO60vET+A
1RkOzNTBIUJGQi3QXq5j0Qo+ZvvrC5vk/nrKQ1zMmGrh/TIYTGNMzZibvvpbLcR2
zI3lbaq7WjcCAwEAAaNCMEAwDwYDVR0TAQH/BAUwAwEB/zAdBgNVHQ4EFgQUNBlT
2doRsf8ANSs3AJEfkcD3LgowDgYDVR0PAQH/BAQDAgEGMA0GCSqGSIb3DQEBCwUA
A4IBAQBXbRxEQFSh5Tyg4eHQckFhk5E4ZYvMNdlMBIASSv2EcZ8GT94GHA2TUbIt
18j1DU/9FFie0sKsXb/3Z19oLaLPEoZ5JnARLT8MX2X8RP1uh15WOty+2pXiRaoH
KP9GHku/A5KEU5vJet3nXulXuhjCIxImJ3S2k0RMHmriIGLlM9uGFEF+fHZa5dF/
/PT5oyPJBuzLtWIevHsccFel0x3WD3lq8gVYYxGR+7REarKXGM/u3l2s1Nhj4k9C
JfpEpEex5Pd/VaDg9wn4Q1xUH2rkh5aRoItyV1NSIjHRJtRfOEMXKkiRN7bY0rNU
/PdhTsa8OYni2DzA1FAzC949AnBd
-----END CERTIFICATE-----
