Certificate:
    Data:
        Version: 3 (0x2)
        Serial Number: 4096 (0x1000)
        Signature Algorithm: sha256WithRSAEncryption
        Issuer: CN=C CA
        Validity
            Not Before: Jan  4 00:00:00 2016 GMT
            Not After : Jan  2 00:00:00 2026 GMT
        Subject: CN=B CA
        Subject Public Key Info:
            Public Key Algorithm: rsaEncryption
            RSA Public Key: (2048 bit)
                Modulus (2048 bit):
                    00:a2:a0:93:17:1e:ee:f0:fb:87:1f:71:ca:6b:b9:
                    bd:2d:67:38:2a:24:c7:c3:c2:88:4d:ca:f2:50:33:
                    60:1d:6f:61:a5:61:02:a4:a7:76:2b:89:43:78:a7:
                    0a:27:04:dc:a5:5b:6e:a8:4c:29:f2:25:c6:c0:32:
                    20:e0:01:8d:a1:16:15:c9:b5:d8:17:7d:e0:e8:90:
                    89:a3:f5:96:1f:90:c6:e3:10:1a:f9:f5:6a:d5:41:
                    ce:cd:a8:fc:36:77:2f:a2:d7:8e:39:50:36:65:4d:
                    a7:83:6c:e1:a4:cc:f6:6b:c0:7b:c8:98:f4:01:3f:
                    94:d3:d6:11:1d:b3:ef:95:c8:ea:07:d9:5e:fd:82:
                    4f:23:4d:08:89:fb:68:2d:82:12:98:e0:87:f2:7a:
                    c7:76:98:4c:ca:1d:3e:e8:bc:72:dd:b0:b7:41:84:
                    6e:39:cd:a9:35:e8:ee:2a:d1:54:cd:21:ed:6f:a4:
                    ab:e9:d8:c9:d2:e9:11:66:66:78:33:ae:d8:78:75:
                    ac:1e:ad:0e:23:82:35:13:96:ed:eb:3e:58:eb:27:
                    fb:1b:fd:27:6e:f0:c3:ff:88:cc:cc:63:35:23:3d:
                    ce:4d:2e:2d:dc:b3:91:8e:d8:d8:5b:6a:92:28:c5:
                    e9:a4:02:76:34:e0:6d:41:61:43:71:e1:59:b3:c2:
                    ce:f7
                Exponent: 65537 (0x10001)
        X509v3 extensions:
            X509v3 Basic Constraints: critical
                CA:TRUE
            X509v3 Subject Key Identifier: 
                0D:AF:BC:C3:31:09:C6:9D:F8:44:D2:51:E8:13:FF:24:78:9D:83:76
            X509v3 Key Usage: critical
                Certificate Sign, CRL Sign
    Signature Algorithm: sha256WithRSAEncryption
        28:52:54:55:5c:5b:4f:af:4c:66:cc:c3:71:dd:3e:60:48:76:
        c3:f0:c0:40:30:f6:44:06:73:2f:c5:b1:1c:6a:e9:6f:fd:92:
        8d:40:38:eb:46:de:58:cd:68:0f:cd:7f:28:a2:79:29:92:ae:
        68:f2:ba:0a:f1:e6:17:58:a4:3b:ee:61:6c:d6:5d:2a:07:61:
        b0:31:c9:9b:dc:08:32:b8:d8:ac:14:9c:1a:ec:21:7d:46:63:
        75:67:46:36:ec:25:f0:e6:ed:3f:5d:b7:fd:06:67:46:80:a0:
        b9:a8:25:e7:05:0a:f9:a7:20:48:d4:71:b4:3f:0b:1c:4d:f4:
        73:8b:cc:9f:67:cf:36:43:e2:82:d5:d5:4e:4c:71:74:5c:db:
        ba:35:bf:1e:9e:63:46:d0:c7:b9:f4:2a:92:23:c7:59:af:5d:
        b1:24:7c:ff:1c:08:0d:2a:50:79:57:1c:a2:45:38:a5:3e:d7:
        c8:5c:91:f2:69:70:d1:47:4a:55:bc:84:dc:9b:9f:ae:f2:94:
        1c:22:65:11:4c:7c:e1:3c:ae:d4:e6:11:fc:3f:d8:53:6b:65:
        4a:7c:44:bf:91:bd:b0:3e:df:b5:f5:c5:8e:1f:a5:19:83:2a:
        8d:4e:13:3d:58:45:8e:11:b6:9e:96:7a:7a:6e:0b:e5:1a:66:
        7a:00:0e:75
-----BEGIN CERTIFICATE-----
MIIC3DCCAcSgAwIBAgICEAAwDQYJKoZIhvcNAQELBQAwDzENMAsGA1UEAwwEQyBD
QTAeFw0xNjAxMDQwMDAwMDBaFw0yNjAxMDIwMDAwMDBaMA8xDTALBgNVBAMMBEIg
Q0EwggEiMA0GCSqGSIb3DQEBAQUAA4IBDwAwggEKAoIBAQCioJMXHu7w+4cfccpr
ub0tZzgqJMfDwohNyvJQM2Adb2GlYQKkp3YriUN4pwonBNylW26oTCnyJcbAMiDg
AY2hFhXJtdgXfeDokImj9ZYfkMbjEBr59WrVQc7NqPw2dy+i1445UDZlTaeDbOGk
zPZrwHvImPQBP5TT1hEds++VyOoH2V79gk8jTQiJ+2gtghKY4Ifyesd2mEzKHT7o
vHLdsLdBhG45zak16O4q0VTNIe1vpKvp2MnS6RFmZngzrth4dawerQ4jgjUTlu3r
PljrJ/sb/Sdu8MP/iMzMYzUjPc5NLi3cs5GO2NhbapIoxemkAnY04G1BYUNx4Vmz
ws73AgMBAAGjQjBAMA8GA1UdEwEB/wQFMAMBAf8wHQYDVR0OBBYEFA2vvMMxCcad
+ETSUegT/yR4nYN2MA4GA1UdDwEB/wQEAwIBBjANBgkqhkiG9w0BAQsFAAOCAQEA
KFJUVVxbT69MZszDcd0+YEh2w/DAQDD2RAZzL8WxHGrpb/2SjUA460beWM1oD81/
KKJ5KZKuaPK6CvHmF1ikO+5hbNZdKgdhsDHJm9wIMrjYrBScGuwhfUZjdWdGNuwl
8ObtP123/QZnRoCguagl5wUK+acgSNRxtD8LHE30c4vMn2fPNkPigtXVTkxxdFzb
ujW/Hp5jRtDHufQqkiPHWa9dsSR8/xwIDSpQeVccokU4pT7XyFyR8mlw0UdKVbyE
3JufrvKUHCJlEUx84Tyu1OYR/D/YU2tlSnxEv5G9sD7ftfXFjh+lGYMqjU4TPVhF
jhG2npZ6em4L5RpmegAOdQ==
-----END CERTIFICATE-----
