-----BEGIN PRIVATE KEY-----
MIIEvQIBADANBgkqhkiG9w0BAQEFAASCBKcwggSjAgEAAoIBAQC1+PQy2PX0Zcrp
0Mvd6ZehbpDi9LKyFtCb4plX7XvGW29JwZQAqQ1dtTX0Ons8GAajeFpo/6YFH30Q
CK4JbNzv3biXnmzOy6DcMysele8d+9Pa+D5X7YuOnoZNEqYMMCPvCEVPIRJCiIcB
2KUyn7c472Ctt0drO0umXCtWclzRtTiHmew7/8YC74Y47uIFxvBm4hiRUOVXIyeZ
u9tJJIhmqBSWfhptKuH/GPVqN9KIqHnJuVD1mmgLBJ5oAh2hceCJFboqSAZ6eNPR
DHeDmIP4ueJgIJIHm9TIwPpaWp0mQMI1ZQDzoOLTIU2lxJGIkBSnXvcTt+oror3X
hBgat3tdAgMBAAECggEABykz2uhkzWhQEuFvlF0D5YtnUjcU7SMutGO3axliXIzu
lTVz8I62gvCFngXLIbNEV5x92lHtI5h4oG/nAWHyU9Ii2HyYhY7H1sKAuORnk4N8
c8p/EZC8hDFC0behJyuhzl9B8vo3ML0UqwLuhU55tFjfMhbbTaH4uSQ5ZF59vpbV
BLe+j3+0BWINSi65KrE/V9PAlH0IuSir4YYuFcJApZIMdiXGqb1mnnUn4CkMmmeH
JvRaYvrxD14T/lzMVzBkR0bez5jYe7syspCe+mmyqIS0mTOw8rQER1vL/DHcyJsG
inG5IazyDaCvgqNAEKzeh0AC3aoel86lURIlt/TrFQKBgQDrSKIvDDXFpYxtpJYt
Q+gyUqN/QPwGVL39n7kSpBoFWKsP9eSGKjVfD4PJboYjE0pcoci4ohsOHmyHpaqi
lAzy4oGd5VqEfu4qz65W7xFwZnMnxLv7OZeHzZG7nw2PIT6k57hNd0/IEndFLHZU
zBm56Ow/Czkb4HA/IR5RQG4SywKBgQDF/qst7PVtWOm6wJ3boJNl7QasWTRKsNxg
DkEo76dOwq2BSFTO+WYKWFPsOYrlnHbf3Ni869WB/vGwE8IecOH0Ir39plbRb2nc
WRW13mljwTET9AGb0/nhPkduYPyN7Gjvy1DTTz5e47rk5881siU8dPCSvgygo9DO
vy+ZlAtddwKBgQCIGa3ndTKtsAO5cNmGOZ/ZbEAzXk3rA54bVgdipxZ+PTpGs0CL
82KIKJtdK9ff9kqvps5LL0pjMmopVUWNYgLThP7hbUidGCeBED2TABugX0MBoCX1
Pu1OmzVPyMO5Jcvs7DWKahf2begcVYnlp2LCTeBK350baQrFGc1FxvVlXQKBgHrS
y7/2oh1OLdgTCxoml6mAC0a5I6493sebsCJD4McED3wGsc2fewRp3M3KuHZNxJSE
vNMdfVpiG+39o8scfZ7kOnXyTSMo+UOe48/pg/lE7DwTfzf6nKV06/z2H1WvVT2E
I8SiAO/+V38OqkUGGQFTDbYKPW0dkjfe9BlSdGZrAoGAfbDe3biBtcMw57AKTf78
i+dku+lnVkAmPOr1I6nnN2qGUdbXjbV2EE88BSo4OF6TF7C6dwicQuv5PxpozCRM
NkdqZ7UT2h7JX0KybnrIvHefboG/pK/Jjg9cEBhN1P6y6+pyzWKa7Nc1c0pXRqz6
FzMv6eiJALyDSTm0ChEm6ug=
-----END PRIVATE KEY-----
Certificate:
    Data:
        Version: 3 (0x2)
        Serial Number: 3 (0x3)
    Signature Algorithm: sha256WithRSAEncryption
        Issuer: CN=Test Root CA
        Validity
            Not Before: Aug 14 03:05:29 2014 GMT
            Not After : Aug 11 03:05:29 2024 GMT
        Subject: CN=Leaf certificate
        Subject Public Key Info:
            Public Key Algorithm: rsaEncryption
                Public-Key: (2048 bit)
                Modulus:
                    00:b5:f8:f4:32:d8:f5:f4:65:ca:e9:d0:cb:dd:e9:
                    97:a1:6e:90:e2:f4:b2:b2:16:d0:9b:e2:99:57:ed:
                    7b:c6:5b:6f:49:c1:94:00:a9:0d:5d:b5:35:f4:3a:
                    7b:3c:18:06:a3:78:5a:68:ff:a6:05:1f:7d:10:08:
                    ae:09:6c:dc:ef:dd:b8:97:9e:6c:ce:cb:a0:dc:33:
                    2b:1e:95:ef:1d:fb:d3:da:f8:3e:57:ed:8b:8e:9e:
                    86:4d:12:a6:0c:30:23:ef:08:45:4f:21:12:42:88:
                    87:01:d8:a5:32:9f:b7:38:ef:60:ad:b7:47:6b:3b:
                    4b:a6:5c:2b:56:72:5c:d1:b5:38:87:99:ec:3b:ff:
                    c6:02:ef:86:38:ee:e2:05:c6:f0:66:e2:18:91:50:
                    e5:57:23:27:99:bb:db:49:24:88:66:a8:14:96:7e:
                    1a:6d:2a:e1:ff:18:f5:6a:37:d2:88:a8:79:c9:b9:
                    50:f5:9a:68:0b:04:9e:68:02:1d:a1:71:e0:89:15:
                    ba:2a:48:06:7a:78:d3:d1:0c:77:83:98:83:f8:b9:
                    e2:60:20:92:07:9b:d4:c8:c0:fa:5a:5a:9d:26:40:
                    c2:35:65:00:f3:a0:e2:d3:21:4d:a5:c4:91:88:90:
                    14:a7:5e:f7:13:b7:ea:2b:a2:bd:d7:84:18:1a:b7:
                    7b:5d
                Exponent: 65537 (0x10001)
        X509v3 extensions:
            X509v3 Basic Constraints: critical
                CA:FALSE
            X509v3 Subject Key Identifier: 
                82:04:1D:BD:05:71:83:6F:F6:98:19:4D:4F:11:46:88:4D:9B:BF:A8
            X509v3 Authority Key Identifier: 
                keyid:BC:F7:30:D1:3C:C0:F2:79:FA:EF:9F:C9:6C:5C:93:F3:8A:68:AB:83

            X509v3 Extended Key Usage: 
                TLS Web Server Authentication, TLS Web Client Authentication
            X509v3 Subject Alternative Name: 
                DNS:test.ExAmPlE.CoM, DNS:test.ExAmPlE.OrG
    Signature Algorithm: sha256WithRSAEncryption
         a6:90:20:7b:27:40:64:b3:df:ec:56:9e:71:67:02:e7:88:7e:
         c2:f0:ed:24:19:53:27:c9:97:95:18:76:16:52:4c:78:57:63:
         4b:3d:17:3d:7f:f3:d6:e2:1e:5a:cd:84:ea:be:0c:82:5d:4e:
         69:b9:d8:66:a3:a0:2f:e5:50:c8:84:bd:50:15:5f:25:fe:30:
         a0:41:b6:e6:b6:cf:fc:87:db:23:4e:3e:f4:0e:75:74:3c:9e:
         f1:d6:af:11:ad:11:80:b0:60:42:06:f5:bf:e4:5f:0c:73:7a:
         62:49:f2:e5:62:15:f1:8f:bd:ed:34:75:cf:50:11:cc:ee:a3:
         59:21:22:b7:ec:44:22:f7:98:77:1f:64:50:0f:f3:ab:5a:ff:
         d2:62:cc:1b:46:81:56:2a:76:00:e0:ff:0e:9e:e0:d4:d0:03:
         2d:1d:23:c9:d3:a4:f0:2f:a5:b3:30:12:82:46:f0:71:7e:91:
         b9:1a:ae:3e:25:74:cf:79:35:d2:82:33:55:ac:54:94:43:7f:
         de:cc:3e:ef:0d:a6:03:2a:c8:f5:8d:3b:ba:d2:97:ed:6d:d5:
         a9:90:5f:8b:df:3e:d3:be:4b:43:7f:28:ce:9e:3e:90:f7:fb:
         db:34:21:69:5c:94:f5:32:f0:ba:30:f5:60:4c:1f:3b:9b:43:
         94:6c:8d:cc
-----BEGIN CERTIFICATE-----
MIIDTTCCAjWgAwIBAgIBAzANBgkqhkiG9w0BAQsFADAXMRUwEwYDVQQDDAxUZXN0
IFJvb3QgQ0EwHhcNMTQwODE0MDMwNTI5WhcNMjQwODExMDMwNTI5WjAbMRkwFwYD
VQQDExBMZWFmIGNlcnRpZmljYXRlMIIBIjANBgkqhkiG9w0BAQEFAAOCAQ8AMIIB
CgKCAQEAtfj0Mtj19GXK6dDL3emXoW6Q4vSyshbQm+KZV+17xltvScGUAKkNXbU1
9Dp7PBgGo3haaP+mBR99EAiuCWzc7924l55szsug3DMrHpXvHfvT2vg+V+2Ljp6G
TRKmDDAj7whFTyESQoiHAdilMp+3OO9grbdHaztLplwrVnJc0bU4h5nsO//GAu+G
OO7iBcbwZuIYkVDlVyMnmbvbSSSIZqgUln4abSrh/xj1ajfSiKh5yblQ9ZpoCwSe
aAIdoXHgiRW6KkgGenjT0Qx3g5iD+LniYCCSB5vUyMD6WlqdJkDCNWUA86Di0yFN
pcSRiJAUp173E7fqK6K914QYGrd7XQIDAQABo4GfMIGcMAwGA1UdEwEB/wQCMAAw
HQYDVR0OBBYEFIIEHb0FcYNv9pgZTU8RRohNm7+oMB8GA1UdIwQYMBaAFLz3MNE8
wPJ5+u+fyWxck/OKaKuDMB0GA1UdJQQWMBQGCCsGAQUFBwMBBggrBgEFBQcDAjAt
BgNVHREEJjAkghB0ZXN0LkV4QW1QbEUuQ29NghB0ZXN0LkV4QW1QbEUuT3JHMA0G
CSqGSIb3DQEBCwUAA4IBAQCmkCB7J0Bks9/sVp5xZwLniH7C8O0kGVMnyZeVGHYW
Ukx4V2NLPRc9f/PW4h5azYTqvgyCXU5pudhmo6Av5VDIhL1QFV8l/jCgQbbmts/8
h9sjTj70DnV0PJ7x1q8RrRGAsGBCBvW/5F8Mc3piSfLlYhXxj73tNHXPUBHM7qNZ
ISK37EQi95h3H2RQD/OrWv/SYswbRoFWKnYA4P8OnuDU0AMtHSPJ06TwL6WzMBKC
RvBxfpG5Gq4+JXTPeTXSgjNVrFSUQ3/ezD7vDaYDKsj1jTu60pftbdWpkF+L3z7T
vktDfyjOnj6Q9/vbNCFpXJT1MvC6MPVgTB87m0OUbI3M
-----END CERTIFICATE-----
