-----BEGIN PRIVATE KEY-----
MIIEvQIBADANBgkqhkiG9w0BAQEFAASCBKcwggSjAgEAAoIBAQC1+PQy2PX0Zcrp
0Mvd6ZehbpDi9LKyFtCb4plX7XvGW29JwZQAqQ1dtTX0Ons8GAajeFpo/6YFH30Q
CK4JbNzv3biXnmzOy6DcMysele8d+9Pa+D5X7YuOnoZNEqYMMCPvCEVPIRJCiIcB
2KUyn7c472Ctt0drO0umXCtWclzRtTiHmew7/8YC74Y47uIFxvBm4hiRUOVXIyeZ
u9tJJIhmqBSWfhptKuH/GPVqN9KIqHnJuVD1mmgLBJ5oAh2hceCJFboqSAZ6eNPR
DHeDmIP4ueJgIJIHm9TIwPpaWp0mQMI1ZQDzoOLTIU2lxJGIkBSnXvcTt+oror3X
hBgat3tdAgMBAAECggEABykz2uhkzWhQEuFvlF0D5YtnUjcU7SMutGO3axliXIzu
lTVz8I62gvCFngXLIbNEV5x92lHtI5h4oG/nAWHyU9Ii2HyYhY7H1sKAuORnk4N8
c8p/EZC8hDFC0behJyuhzl9B8vo3ML0UqwLuhU55tFjfMhbbTaH4uSQ5ZF59vpbV
BLe+j3+0BWINSi65KrE/V9PAlH0IuSir4YYuFcJApZIMdiXGqb1mnnUn4CkMmmeH
JvRaYvrxD14T/lzMVzBkR0bez5jYe7syspCe+mmyqIS0mTOw8rQER1vL/DHcyJsG
inG5IazyDaCvgqNAEKzeh0AC3aoel86lURIlt/TrFQKBgQDrSKIvDDXFpYxtpJYt
Q+gyUqN/QPwGVL39n7kSpBoFWKsP9eSGKjVfD4PJboYjE0pcoci4ohsOHmyHpaqi
lAzy4oGd5VqEfu4qz65W7xFwZnMnxLv7OZeHzZG7nw2PIT6k57hNd0/IEndFLHZU
zBm56Ow/Czkb4HA/IR5RQG4SywKBgQDF/qst7PVtWOm6wJ3boJNl7QasWTRKsNxg
DkEo76dOwq2BSFTO+WYKWFPsOYrlnHbf3Ni869WB/vGwE8IecOH0Ir39plbRb2nc
WRW13mljwTET9AGb0/nhPkduYPyN7Gjvy1DTTz5e47rk5881siU8dPCSvgygo9DO
vy+ZlAtddwKBgQCIGa3ndTKtsAO5cNmGOZ/ZbEAzXk3rA54bVgdipxZ+PTpGs0CL
82KIKJtdK9ff9kqvps5LL0pjMmopVUWNYgLThP7hbUidGCeBED2TABugX0MBoCX1
Pu1OmzVPyMO5Jcvs7DWKahf2begcVYnlp2LCTeBK350baQrFGc1FxvVlXQKBgHrS
y7/2oh1OLdgTCxoml6mAC0a5I6493sebsCJD4McED3wGsc2fewRp3M3KuHZNxJSE
vNMdfVpiG+39o8scfZ7kOnXyTSMo+UOe48/pg/lE7DwTfzf6nKV06/z2H1WvVT2E
I8SiAO/+V38OqkUGGQFTDbYKPW0dkjfe9BlSdGZrAoGAfbDe3biBtcMw57AKTf78
i+dku+lnVkAmPOr1I6nnN2qGUdbXjbV2EE88BSo4OF6TF7C6dwicQuv5PxpozCRM
NkdqZ7UT2h7JX0KybnrIvHefboG/pK/Jjg9cEBhN1P6y6+pyzWKa7Nc1c0pXRqz6
FzMv6eiJALyDSTm0ChEm6ug=
-----END PRIVATE KEY-----
Certificate:
    Data:
        Version: 3 (0x2)
        Serial Number: 4 (0x4)
    Signature Algorithm: sha256WithRSAEncryption
        Issuer: CN=Test Root CA
        Validity
            Not Before: Aug 14 03:05:29 2014 GMT
            Not After : Aug 11 03:05:29 2024 GMT
        Subject: CN=Leaf Certificate
        Subject Public Key Info:
            Public Key Algorithm: rsaEncryption
                Public-Key: (2048 bit)
                Modulus:
                    00:b5:f8:f4:32:d8:f5:f4:65:ca:e9:d0:cb:dd:e9:
                    97:a1:6e:90:e2:f4:b2:b2:16:d0:9b:e2:99:57:ed:
                    7b:c6:5b:6f:49:c1:94:00:a9:0d:5d:b5:35:f4:3a:
                    7b:3c:18:06:a3:78:5a:68:ff:a6:05:1f:7d:10:08:
                    ae:09:6c:dc:ef:dd:b8:97:9e:6c:ce:cb:a0:dc:33:
                    2b:1e:95:ef:1d:fb:d3:da:f8:3e:57:ed:8b:8e:9e:
                    86:4d:12:a6:0c:30:23:ef:08:45:4f:21:12:42:88:
                    87:01:d8:a5:32:9f:b7:38:ef:60:ad:b7:47:6b:3b:
                    4b:a6:5c:2b:56:72:5c:d1:b5:38:87:99:ec:3b:ff:
                    c6:02:ef:86:38:ee:e2:05:c6:f0:66:e2:18:91:50:
                    e5:57:23:27:99:bb:db:49:24:88:66:a8:14:96:7e:
                    1a:6d:2a:e1:ff:18:f5:6a:37:d2:88:a8:79:c9:b9:
                    50:f5:9a:68:0b:04:9e:68:02:1d:a1:71:e0:89:15:
                    ba:2a:48:06:7a:78:d3:d1:0c:77:83:98:83:f8:b9:
                    e2:60:20:92:07:9b:d4:c8:c0:fa:5a:5a:9d:26:40:
                    c2:35:65:00:f3:a0:e2:d3:21:4d:a5:c4:91:88:90:
                    14:a7:5e:f7:13:b7:ea:2b:a2:bd:d7:84:18:1a:b7:
                    7b:5d
                Exponent: 65537 (0x10001)
        X509v3 extensions:
            X509v3 Basic Constraints: critical
                CA:FALSE
            X509v3 Subject Key Identifier: 
                82:04:1D:BD:05:71:83:6F:F6:98:19:4D:4F:11:46:88:4D:9B:BF:A8
            X509v3 Authority Key Identifier: 
                keyid:BC:F7:30:D1:3C:C0:F2:79:FA:EF:9F:C9:6C:5C:93:F3:8A:68:AB:83

            X509v3 Extended Key Usage: 
                TLS Web Server Authentication, TLS Web Client Authentication
            X509v3 Subject Alternative Name: 
                DNS:test.ExAmPlE.CoM, DNS:example.notarealtld
    Signature Algorithm: sha256WithRSAEncryption
         36:cf:f0:0a:f6:e9:6b:30:2b:d2:46:1b:c8:e4:4d:d2:2b:4d:
         0e:45:c8:e0:93:83:bb:f3:37:c2:81:65:fd:ea:cc:72:18:f6:
         0b:60:a3:a0:7d:80:ca:28:ac:61:ec:bd:3b:e2:80:22:2f:40:
         6f:a0:0f:33:3c:73:31:58:3e:16:ad:82:69:fe:02:51:e9:0f:
         64:4f:e7:c9:f7:b6:63:fb:b3:d9:90:b3:18:a0:01:59:73:44:
         c3:bf:ea:96:a9:9b:71:ef:78:c5:ba:82:30:15:5f:b6:20:3e:
         ed:57:c4:8b:50:5f:44:8f:41:1e:63:9d:5c:a1:b1:87:d1:96:
         da:21:21:ac:91:16:66:3a:c8:ca:84:c1:47:52:9f:55:e3:09:
         82:38:c7:ca:e3:8b:c0:10:e2:d0:aa:c6:b8:de:b8:39:80:8d:
         49:37:1a:17:7a:90:8e:66:b7:b5:61:c0:85:13:86:ef:37:03:
         2e:77:ba:8a:eb:3c:82:be:0a:27:51:5e:33:ec:92:33:5d:f5:
         cf:ed:43:79:41:f5:6e:0f:54:80:a7:a4:a2:bc:84:c5:36:1c:
         5e:f5:19:b4:89:31:7b:c4:38:54:09:b1:a5:7c:b7:18:95:fc:
         e1:bf:86:42:fc:0b:41:4c:4a:fd:0b:4c:5d:db:c6:11:a7:0d:
         99:07:e9:22
-----BEGIN CERTIFICATE-----
MIIDUDCCAjigAwIBAgIBBDANBgkqhkiG9w0BAQsFADAXMRUwEwYDVQQDDAxUZXN0
IFJvb3QgQ0EwHhcNMTQwODE0MDMwNTI5WhcNMjQwODExMDMwNTI5WjAbMRkwFwYD
VQQDExBMZWFmIENlcnRpZmljYXRlMIIBIjANBgkqhkiG9w0BAQEFAAOCAQ8AMIIB
CgKCAQEAtfj0Mtj19GXK6dDL3emXoW6Q4vSyshbQm+KZV+17xltvScGUAKkNXbU1
9Dp7PBgGo3haaP+mBR99EAiuCWzc7924l55szsug3DMrHpXvHfvT2vg+V+2Ljp6G
TRKmDDAj7whFTyESQoiHAdilMp+3OO9grbdHaztLplwrVnJc0bU4h5nsO//GAu+G
OO7iBcbwZuIYkVDlVyMnmbvbSSSIZqgUln4abSrh/xj1ajfSiKh5yblQ9ZpoCwSe
aAIdoXHgiRW6KkgGenjT0Qx3g5iD+LniYCCSB5vUyMD6WlqdJkDCNWUA86Di0yFN
pcSRiJAUp173E7fqK6K914QYGrd7XQIDAQABo4GiMIGfMAwGA1UdEwEB/wQCMAAw
HQYDVR0OBBYEFIIEHb0FcYNv9pgZTU8RRohNm7+oMB8GA1UdIwQYMBaAFLz3MNE8
wPJ5+u+fyWxck/OKaKuDMB0GA1UdJQQWMBQGCCsGAQUFBwMBBggrBgEFBQcDAjAw
BgNVHREEKTAnghB0ZXN0LkV4QW1QbEUuQ29NghNleGFtcGxlLm5vdGFyZWFsdGxk
MA0GCSqGSIb3DQEBCwUAA4IBAQA2z/AK9ulrMCvSRhvI5E3SK00ORcjgk4O78zfC
gWX96sxyGPYLYKOgfYDKKKxh7L074oAiL0BvoA8zPHMxWD4WrYJp/gJR6Q9kT+fJ
97Zj+7PZkLMYoAFZc0TDv+qWqZtx73jFuoIwFV+2ID7tV8SLUF9Ej0EeY51cobGH
0ZbaISGskRZmOsjKhMFHUp9V4wmCOMfK44vAEOLQqsa43rg5gI1JNxoXepCOZre1
YcCFE4bvNwMud7qK6zyCvgonUV4z7JIzXfXP7UN5QfVuD1SAp6SivITFNhxe9Rm0
iTF7xDhUCbGlfLcYlfzhv4ZC/AtBTEr9C0xd28YRpw2ZB+ki
-----END CERTIFICATE-----
