Certificate:
    Data:
        Version: 3 (0x2)
        Serial Number: 4 (0x4)
    Signature Algorithm: sha256WithRSAEncryption
        Issuer: CN=2048 RSA Test Root CA
        Validity
            Not Before: Aug 14 02:47:20 2014 GMT
            Not After : Aug 11 02:47:20 2024 GMT
        Subject: CN=prime256v1 ecdsa Test intermediate CA
        Subject Public Key Info:
            Public Key Algorithm: id-ecPublicKey
                Public-Key: (256 bit)
                pub: 
                    04:db:98:07:bc:61:dd:2d:e6:b3:cc:f7:d5:ea:f7:
                    a1:0d:28:de:f2:7c:26:97:ca:eb:d1:db:a3:1e:c1:
                    8f:e9:e0:1e:fe:31:bb:aa:4a:5c:85:37:a6:ff:9e:
                    2e:96:23:22:b8:30:5f:8f:22:ae:b9:8b:6d:4f:bd:
                    4e:f3:52:12:d4
                ASN1 OID: prime256v1
        X509v3 extensions:
            X509v3 Basic Constraints: critical
                CA:TRUE
            X509v3 Subject Key Identifier: 
                F9:79:A6:FA:F2:A4:36:A2:35:25:5F:4C:2A:5E:2A:E5:A0:57:59:3C
            X509v3 Key Usage: critical
                Certificate Sign, CRL Sign
    Signature Algorithm: sha256WithRSAEncryption
         66:47:20:8e:c7:41:90:12:7d:7d:56:65:4c:b0:16:f2:8b:6b:
         78:94:e4:91:b4:a9:67:04:9b:e1:40:9a:e1:a2:16:20:e5:16:
         6e:4a:24:b3:5f:08:a2:a3:59:1a:01:27:a4:1f:b8:a7:e9:ab:
         16:05:4f:8b:2a:4d:f5:8c:28:c9:5b:66:57:02:79:35:86:e7:
         f2:ca:67:0b:8a:a6:1e:09:d6:b1:05:33:ec:10:83:27:c8:c1:
         1f:84:45:8d:b2:31:c2:3f:b3:5d:e7:b2:cb:70:e7:c7:41:1b:
         f9:59:6a:ac:f7:54:32:26:18:6b:08:c6:c8:26:ab:8f:6a:0a:
         bf:56:5a:f0:9a:83:d8:30:fa:39:a0:da:81:e5:0a:ad:c0:08:
         ae:78:9d:38:9b:55:86:06:91:6b:bc:8e:d3:38:e0:86:f5:fa:
         66:d9:02:ae:b7:72:0e:f8:bf:5f:d2:a3:8d:a2:4c:f9:e9:f1:
         38:af:29:2c:0b:4c:59:f9:74:f5:4b:23:e0:44:63:98:a7:80:
         c8:01:44:93:8a:72:71:6e:a2:29:03:cb:84:c4:eb:d3:88:75:
         e4:24:1f:75:33:74:b6:77:22:d0:c9:35:ac:7f:c7:cb:c7:89:
         d0:ca:36:d7:ba:de:52:5a:cf:dd:21:3c:dd:49:b5:f5:2f:8d:
         27:bf:4b:ec
-----BEGIN CERTIFICATE-----
MIICQjCCASqgAwIBAgIBBDANBgkqhkiG9w0BAQsFADAgMR4wHAYDVQQDDBUyMDQ4
IFJTQSBUZXN0IFJvb3QgQ0EwHhcNMTQwODE0MDI0NzIwWhcNMjQwODExMDI0NzIw
WjAwMS4wLAYDVQQDDCVwcmltZTI1NnYxIGVjZHNhIFRlc3QgaW50ZXJtZWRpYXRl
IENBMFkwEwYHKoZIzj0CAQYIKoZIzj0DAQcDQgAE25gHvGHdLeazzPfV6vehDSje
8nwml8rr0dujHsGP6eAe/jG7qkpchTem/54uliMiuDBfjyKuuYttT71O81IS1KNC
MEAwDwYDVR0TAQH/BAUwAwEB/zAdBgNVHQ4EFgQU+Xmm+vKkNqI1JV9MKl4q5aBX
WTwwDgYDVR0PAQH/BAQDAgEGMA0GCSqGSIb3DQEBCwUAA4IBAQBmRyCOx0GQEn19
VmVMsBbyi2t4lOSRtKlnBJvhQJrhohYg5RZuSiSzXwiio1kaASekH7in6asWBU+L
Kk31jCjJW2ZXAnk1hufyymcLiqYeCdaxBTPsEIMnyMEfhEWNsjHCP7Nd57LLcOfH
QRv5WWqs91QyJhhrCMbIJquPagq/VlrwmoPYMPo5oNqB5QqtwAiueJ04m1WGBpFr
vI7TOOCG9fpm2QKut3IO+L9f0qONokz56fE4ryksC0xZ+XT1SyPgRGOYp4DIAUST
inJxbqIpA8uExOvTiHXkJB91M3S2dyLQyTWsf8fLx4nQyjbXut5SWs/dITzdSbX1
L40nv0vs
-----END CERTIFICATE-----
