Certificate:
    Data:
        Version: 1 (0x0)
        Serial Number: 4 (0x4)
    Signature Algorithm: sha256WithRSAEncryption
        Issuer: CN=2048 rsa Test intermediate CA
        Validity
            Not Before: Aug 14 02:47:21 2014 GMT
            Not After : Aug 11 02:47:21 2024 GMT
        Subject: C=US, ST=California, L=Mountain View, O=Test CA, CN=127.0.0.1
        Subject Public Key Info:
            Public Key Algorithm: id-ecPublicKey
                Public-Key: (256 bit)
                pub: 
                    04:a4:93:3a:fa:22:dc:0e:41:bb:5b:f8:51:b7:4a:
                    ea:cd:80:ff:23:61:ff:0a:e3:df:39:12:32:d1:f1:
                    ee:f6:cb:9b:0f:4b:6d:07:c1:9c:18:6f:c4:76:6d:
                    f1:9e:7a:95:a4:22:70:d0:9e:03:31:cd:c3:c8:36:
                    d2:0f:a5:c5:5f
                ASN1 OID: prime256v1
        X509v3 extensions:
            X509v3 Subject Alternative Name: 
                IP Address:127.0.0.1
    Signature Algorithm: sha256WithRSAEncryption
         05:9b:58:98:58:9a:00:b8:e0:fe:92:2f:98:d7:84:ca:d2:75:
         02:ba:00:12:05:9a:33:ce:10:6d:22:56:5d:3c:ee:3c:0f:e7:
         02:e0:53:d7:2e:13:9b:20:4e:94:70:ef:79:d4:ad:28:54:3d:
         a2:0e:bb:1e:a4:86:da:8b:28:07:a9:46:40:86:74:59:bb:99:
         94:03:9b:b5:27:99:7b:a1:f3:e1:7b:b3:68:d6:ae:c9:7b:dc:
         c1:f1:2c:14:03:3a:d8:da:7c:48:ab:6b:40:80:1e:a2:f3:b7:
         ab:df:9c:7a:76:85:ee:1e:5e:be:a7:80:4d:d2:b2:45:f5:79:
         8c:6b:ab:63:74:4b:f5:8f:85:da:73:32:dc:db:25:97:2c:63:
         f6:3e:24:ec:47:84:53:48:9b:a8:1e:2e:54:8a:19:32:44:b4:
         82:37:c6:a0:c9:40:35:75:0b:a2:af:1a:0a:28:0d:50:57:ab:
         d7:66:37:b6:7b:f2:78:4b:6d:3f:50:4a:1e:7e:ca:89:5c:3b:
         78:94:b5:f0:e5:ca:4d:10:b9:00:8e:51:43:b3:91:41:eb:f3:
         1e:be:ac:25:8f:22:82:b2:77:8a:41:2c:6f:ce:92:20:30:c4:
         d2:9a:86:a1:ae:6a:2a:c2:8f:0f:75:e6:17:cf:c3:5b:34:e1:
         09:2a:46:66
-----BEGIN CERTIFICATE-----
MIICRjCCAS4CAQQwDQYJKoZIhvcNAQELBQAwKDEmMCQGA1UEAwwdMjA0OCByc2Eg
VGVzdCBpbnRlcm1lZGlhdGUgQ0EwHhcNMTQwODE0MDI0NzIxWhcNMjQwODExMDI0
NzIxWjBgMQswCQYDVQQGEwJVUzETMBEGA1UECAwKQ2FsaWZvcm5pYTEWMBQGA1UE
BwwNTW91bnRhaW4gVmlldzEQMA4GA1UECgwHVGVzdCBDQTESMBAGA1UEAwwJMTI3
LjAuMC4xMFkwEwYHKoZIzj0CAQYIKoZIzj0DAQcDQgAEpJM6+iLcDkG7W/hRt0rq
zYD/I2H/CuPfORIy0fHu9subD0ttB8GcGG/Edm3xnnqVpCJw0J4DMc3DyDbSD6XF
X6MTMBEwDwYDVR0RBAgwBocEfwAAATANBgkqhkiG9w0BAQsFAAOCAQEABZtYmFia
ALjg/pIvmNeEytJ1AroAEgWaM84QbSJWXTzuPA/nAuBT1y4TmyBOlHDvedStKFQ9
og67HqSG2osoB6lGQIZ0WbuZlAObtSeZe6Hz4XuzaNauyXvcwfEsFAM62Np8SKtr
QIAeovO3q9+cenaF7h5evqeATdKyRfV5jGurY3RL9Y+F2nMy3Nsllyxj9j4k7EeE
U0ibqB4uVIoZMkS0gjfGoMlANXULoq8aCigNUFer12Y3tnvyeEttP1BKHn7KiVw7
eJS18OXKTRC5AI5RQ7ORQevzHr6sJY8igrJ3ikEsb86SIDDE0pqGoa5qKsKPD3Xm
F8/DWzThCSpGZg==
-----END CERTIFICATE-----
