Certificate:
    Data:
        Version: 1 (0x0)
        Serial Number: 4 (0x4)
    Signature Algorithm: sha256WithRSAEncryption
        Issuer: CN=768 rsa Test intermediate CA
        Validity
            Not Before: Aug 14 02:47:21 2014 GMT
            Not After : Aug 11 02:47:21 2024 GMT
        Subject: C=US, ST=California, L=Mountain View, O=Test CA, CN=127.0.0.1
        Subject Public Key Info:
            Public Key Algorithm: id-ecPublicKey
                Public-Key: (256 bit)
                pub: 
                    04:de:e0:79:54:e0:82:bc:3c:b0:63:fc:6e:d4:c8:
                    7e:9b:b8:0c:77:16:7d:cc:cd:25:3a:23:17:b9:6e:
                    0f:40:62:20:1b:6a:22:d6:b0:b3:17:19:a9:b2:d3:
                    c3:24:de:ce:4e:24:de:ff:64:6c:6d:c0:8f:fe:e2:
                    9f:e3:af:65:c0
                ASN1 OID: prime256v1
        X509v3 extensions:
            X509v3 Subject Alternative Name: 
                IP Address:127.0.0.1
    Signature Algorithm: sha256WithRSAEncryption
         2f:64:63:5b:3e:21:8c:df:ae:5d:7f:9c:23:b6:29:03:cf:50:
         6e:66:c2:44:34:5a:e0:a0:6e:8a:37:8a:d3:f1:54:58:55:d9:
         af:bb:5b:6e:8e:f7:09:dd:cb:a3:01:12:f7:8c:91:a6:b3:13:
         eb:d4:48:41:ba:c8:fd:a0:57:f5:30:65:3c:ec:3b:20:da:98:
         a3:de:c9:22:32:ad:26:6b:21:92:5d:65:69:bf:1a:d0:d7:19:
         7b:df:15:09:e9:8c
-----BEGIN CERTIFICATE-----
MIIBozCCAS0CAQQwDQYJKoZIhvcNAQELBQAwJzElMCMGA1UEAwwcNzY4IHJzYSBU
ZXN0IGludGVybWVkaWF0ZSBDQTAeFw0xNDA4MTQwMjQ3MjFaFw0yNDA4MTEwMjQ3
MjFaMGAxCzAJBgNVBAYTAlVTMRMwEQYDVQQIDApDYWxpZm9ybmlhMRYwFAYDVQQH
DA1Nb3VudGFpbiBWaWV3MRAwDgYDVQQKDAdUZXN0IENBMRIwEAYDVQQDDAkxMjcu
MC4wLjEwWTATBgcqhkjOPQIBBggqhkjOPQMBBwNCAATe4HlU4IK8PLBj/G7UyH6b
uAx3Fn3MzSU6Ixe5bg9AYiAbaiLWsLMXGamy08Mk3s5OJN7/ZGxtwI/+4p/jr2XA
oxMwETAPBgNVHREECDAGhwR/AAABMA0GCSqGSIb3DQEBCwUAA2EAL2RjWz4hjN+u
XX+cI7YpA89QbmbCRDRa4KBuijeK0/FUWFXZr7tbbo73Cd3LowES94yRprMT69RI
QbrI/aBX9TBlPOw7INqYo97JIjKtJmshkl1lab8a0NcZe98VCemM
-----END CERTIFICATE-----
