Certificate:
    Data:
        Version: 1 (0x0)
        Serial Number: 4 (0x4)
    Signature Algorithm: ecdsa-with-SHA256
        Issuer: CN=prime256v1 ecdsa Test intermediate CA
        Validity
            Not Before: Aug 14 02:47:21 2014 GMT
            Not After : Aug 11 02:47:21 2024 GMT
        Subject: C=US, ST=California, L=Mountain View, O=Test CA, CN=127.0.0.1
        Subject Public Key Info:
            Public Key Algorithm: id-ecPublicKey
                Public-Key: (256 bit)
                pub: 
                    04:6e:c9:75:3b:40:ed:dd:be:67:d1:92:e7:6e:b9:
                    ef:54:fa:69:db:e8:31:72:f8:43:a1:26:ad:a8:58:
                    32:90:ac:99:63:4f:a3:39:ad:f7:63:0b:2a:e3:1b:
                    a9:e9:b2:a5:72:6d:e1:bc:ac:72:29:f0:81:26:fb:
                    b1:06:ba:58:98
                ASN1 OID: prime256v1
        X509v3 extensions:
            X509v3 Subject Alternative Name: 
                IP Address:127.0.0.1
    Signature Algorithm: ecdsa-with-SHA256
         30:45:02:21:00:a3:7e:7d:c3:f5:a3:78:c3:6b:a9:29:d9:15:
         73:17:96:69:0d:47:68:b7:0f:5f:38:ef:5e:27:4c:c9:97:0b:
         e5:02:20:30:02:f8:2a:42:9a:fe:db:ff:cd:b0:d4:28:32:8f:
         89:7a:5c:7f:a8:d2:25:0c:33:51:0b:02:e3:38:6c:b4:b5
-----BEGIN CERTIFICATE-----
MIIBjTCCATMCAQQwCgYIKoZIzj0EAwIwMDEuMCwGA1UEAwwlcHJpbWUyNTZ2MSBl
Y2RzYSBUZXN0IGludGVybWVkaWF0ZSBDQTAeFw0xNDA4MTQwMjQ3MjFaFw0yNDA4
MTEwMjQ3MjFaMGAxCzAJBgNVBAYTAlVTMRMwEQYDVQQIDApDYWxpZm9ybmlhMRYw
FAYDVQQHDA1Nb3VudGFpbiBWaWV3MRAwDgYDVQQKDAdUZXN0IENBMRIwEAYDVQQD
DAkxMjcuMC4wLjEwWTATBgcqhkjOPQIBBggqhkjOPQMBBwNCAARuyXU7QO3dvmfR
kuduue9U+mnb6DFy+EOhJq2oWDKQrJljT6M5rfdjCyrjG6npsqVybeG8rHIp8IEm
+7EGuliYoxMwETAPBgNVHREECDAGhwR/AAABMAoGCCqGSM49BAMCA0gAMEUCIQCj
fn3D9aN4w2upKdkVcxeWaQ1HaLcPXzjvXidMyZcL5QIgMAL4KkKa/tv/zbDUKDKP
iXpcf6jSJQwzUQsC4zhstLU=
-----END CERTIFICATE-----
