Certificate:
    Data:
        Version: 1 (0x0)
        Serial Number: 4 (0x4)
    Signature Algorithm: sha256WithRSAEncryption
        Issuer: CN=1024 rsa Test intermediate CA
        Validity
            Not Before: Aug 14 02:47:21 2014 GMT
            Not After : Aug 11 02:47:21 2024 GMT
        Subject: C=US, ST=California, L=Mountain View, O=Test CA, CN=127.0.0.1
        Subject Public Key Info:
            Public Key Algorithm: id-ecPublicKey
                Public-Key: (256 bit)
                pub: 
                    04:64:08:22:77:98:af:cb:51:76:b6:d5:c2:32:ea:
                    b2:82:6f:a4:ad:b2:5d:59:69:d7:d3:11:74:5b:e8:
                    5b:75:c1:6d:32:72:68:4c:63:ad:9f:a8:ce:f1:bb:
                    8f:9f:c3:ce:75:23:dd:95:6a:3c:13:41:ed:0e:16:
                    af:1e:c6:09:51
                ASN1 OID: prime256v1
        X509v3 extensions:
            X509v3 Subject Alternative Name: 
                IP Address:127.0.0.1
    Signature Algorithm: sha256WithRSAEncryption
         ad:6e:b4:c7:8b:61:65:cb:1c:ec:77:e2:0f:d0:f0:ad:cb:c6:
         2a:41:04:be:6f:41:36:5b:24:c3:be:2c:83:1f:92:da:44:6f:
         16:8d:ab:b0:1b:6e:12:95:39:24:52:28:55:79:c5:ea:90:78:
         54:66:4b:80:ab:af:f4:28:f0:d4:f0:72:dc:39:ee:1f:cf:9d:
         8d:e1:54:53:62:af:cb:25:e5:97:80:c7:0a:a6:50:31:3b:c3:
         f1:25:eb:ac:61:0a:f3:41:27:58:81:9b:2a:43:f1:25:0e:cd:
         ac:28:e6:e2:fc:77:9c:c8:f3:4d:c1:e2:88:20:30:5d:2c:04:
         a2:db
-----BEGIN CERTIFICATE-----
MIIBxTCCAS4CAQQwDQYJKoZIhvcNAQELBQAwKDEmMCQGA1UEAwwdMTAyNCByc2Eg
VGVzdCBpbnRlcm1lZGlhdGUgQ0EwHhcNMTQwODE0MDI0NzIxWhcNMjQwODExMDI0
NzIxWjBgMQswCQYDVQQGEwJVUzETMBEGA1UECAwKQ2FsaWZvcm5pYTEWMBQGA1UE
BwwNTW91bnRhaW4gVmlldzEQMA4GA1UECgwHVGVzdCBDQTESMBAGA1UEAwwJMTI3
LjAuMC4xMFkwEwYHKoZIzj0CAQYIKoZIzj0DAQcDQgAEZAgid5ivy1F2ttXCMuqy
gm+krbJdWWnX0xF0W+hbdcFtMnJoTGOtn6jO8buPn8POdSPdlWo8E0HtDhavHsYJ
UaMTMBEwDwYDVR0RBAgwBocEfwAAATANBgkqhkiG9w0BAQsFAAOBgQCtbrTHi2Fl
yxzsd+IP0PCty8YqQQS+b0E2WyTDviyDH5LaRG8WjauwG24SlTkkUihVecXqkHhU
ZkuAq6/0KPDU8HLcOe4fz52N4VRTYq/LJeWXgMcKplAxO8PxJeusYQrzQSdYgZsq
Q/ElDs2sKObi/HecyPNNweKIIDBdLASi2w==
-----END CERTIFICATE-----
