Certificate:
    Data:
        Version: 1 (0x0)
        Serial Number: 15826771597900763765 (0xdba3fcea1a1dd275)
    Signature Algorithm: sha256WithRSAEncryption
        Issuer: CN=webmail
        Validity
            Not Before: Feb 28 19:43:04 2017 GMT
            Not After : Feb 28 19:43:04 2020 GMT
        Subject: CN=webmail
        Subject Public Key Info:
            Public Key Algorithm: rsaEncryption
                Public-Key: (2048 bit)
                Modulus:
                    00:c0:ee:1b:56:47:23:82:d2:15:ca:ca:64:05:e3:
                    ed:ab:0e:d5:b9:0c:ab:53:14:6b:8d:d4:d3:a9:79:
                    64:b5:f2:16:34:a1:93:48:e0:a5:e7:ac:a9:80:b8:
                    dc:f2:c1:25:b4:1b:7a:02:01:0d:58:a1:c7:5b:6a:
                    e5:2a:92:b0:94:c0:62:53:15:fe:6b:f6:7f:73:c8:
                    b0:2c:66:c2:69:3f:77:02:e6:6e:40:0b:2c:a1:bf:
                    43:8c:65:cf:c5:8a:b8:38:e1:9b:f2:d4:3b:b2:58:
                    ca:a2:a5:0d:e9:fe:02:06:13:a9:7a:4d:88:37:fb:
                    d7:31:50:08:05:03:30:d7:eb:f8:18:50:e9:9a:d6:
                    6d:97:6d:91:a0:16:51:86:ac:46:63:53:75:21:c3:
                    64:b5:27:43:14:57:17:10:e1:69:92:9f:ec:83:d2:
                    67:78:fb:1c:b4:41:34:5d:32:b6:43:f6:9c:40:8e:
                    a5:00:e2:cc:9b:13:a8:76:30:73:59:18:ff:08:40:
                    03:24:59:d2:1c:a8:e8:57:a6:63:cc:e1:9a:e5:22:
                    36:b5:ff:30:a2:b9:b1:93:65:c4:13:f9:ee:98:1e:
                    8a:3c:91:d6:6b:62:98:16:73:b5:63:8f:f4:ac:f5:
                    b9:e0:4f:5a:c7:f3:68:2b:04:67:b2:2e:ad:40:6b:
                    a5:c9
                Exponent: 65537 (0x10001)
    Signature Algorithm: sha256WithRSAEncryption
         3d:88:8e:44:4c:08:ed:d6:78:bd:2e:2a:d2:1e:40:31:12:0c:
         ab:c4:7d:e8:d6:4d:a4:85:04:26:3c:af:a8:00:b1:ff:d0:89:
         e8:85:21:c8:7a:5b:5e:ee:b4:0b:30:b9:7f:5c:bf:9a:91:0e:
         1a:3b:5f:8d:93:86:d4:c2:d4:95:aa:c8:3f:b3:9f:4a:e9:87:
         3d:17:0f:a8:a2:31:3a:b6:55:b5:ce:24:52:34:71:11:c8:0e:
         50:b1:50:2e:9f:f8:63:ed:d8:a9:3b:00:15:fc:8a:57:ee:9f:
         2a:ef:5b:4a:4c:e2:55:38:4b:2a:d3:b0:c5:08:85:96:c2:e0:
         39:d8:04:17:35:b6:a9:56:55:a4:26:26:82:49:43:9b:8a:dd:
         0f:c2:c0:8b:cb:4c:91:d9:85:5e:8b:88:95:d8:25:b6:9c:2b:
         9d:1b:37:4c:59:c5:65:52:60:c4:5f:af:61:0b:1b:b9:14:22:
         eb:a9:4d:cf:07:3c:89:ae:74:6d:95:e7:eb:02:65:f9:f3:ee:
         ba:2d:10:6e:7d:22:f6:8a:1d:ce:fc:e3:7a:75:49:ea:37:d1:
         ce:30:a3:4f:9b:17:9e:71:e4:e0:2e:32:18:0e:76:29:33:31:
         a0:22:c1:ed:0b:c4:0d:b6:66:37:48:98:98:ca:85:17:24:3c:
         db:fb:ef:0f
-----BEGIN CERTIFICATE-----
MIICoDCCAYgCCQDbo/zqGh3SdTANBgkqhkiG9w0BAQsFADASMRAwDgYDVQQDDAd3
ZWJtYWlsMB4XDTE3MDIyODE5NDMwNFoXDTIwMDIyODE5NDMwNFowEjEQMA4GA1UE
AwwHd2VibWFpbDCCASIwDQYJKoZIhvcNAQEBBQADggEPADCCAQoCggEBAMDuG1ZH
I4LSFcrKZAXj7asO1bkMq1MUa43U06l5ZLXyFjShk0jgpeesqYC43PLBJbQbegIB
DVihx1tq5SqSsJTAYlMV/mv2f3PIsCxmwmk/dwLmbkALLKG/Q4xlz8WKuDjhm/LU
O7JYyqKlDen+AgYTqXpNiDf71zFQCAUDMNfr+BhQ6ZrWbZdtkaAWUYasRmNTdSHD
ZLUnQxRXFxDhaZKf7IPSZ3j7HLRBNF0ytkP2nECOpQDizJsTqHYwc1kY/whAAyRZ
0hyo6FemY8zhmuUiNrX/MKK5sZNlxBP57pgeijyR1mtimBZztWOP9Kz1ueBPWsfz
aCsEZ7IurUBrpckCAwEAATANBgkqhkiG9w0BAQsFAAOCAQEAPYiOREwI7dZ4vS4q
0h5AMRIMq8R96NZNpIUEJjyvqACx/9CJ6IUhyHpbXu60CzC5f1y/mpEOGjtfjZOG
1MLUlarIP7OfSumHPRcPqKIxOrZVtc4kUjRxEcgOULFQLp/4Y+3YqTsAFfyKV+6f
Ku9bSkziVThLKtOwxQiFlsLgOdgEFzW2qVZVpCYmgklDm4rdD8LAi8tMkdmFXouI
ldgltpwrnRs3TFnFZVJgxF+vYQsbuRQi66lNzwc8ia50bZXn6wJl+fPuui0Qbn0i
9oodzvzjenVJ6jfRzjCjT5sXnnHk4C4yGA52KTMxoCLB7QvEDbZmN0iYmMqFFyQ8
2/vvDw==
-----END CERTIFICATE-----
