Certificate:
    Data:
        Version: 1 (0x0)
        Serial Number:
            90:23:b2:54:1d:1a:a1:b4
        Signature Algorithm: sha256WithRSAEncryption
        Issuer: C=US, ST=California, L=Mountain View, O=Test CA, CN=127.0.0.1
        Validity
            Not Before: Sep 11 19:19:22 2014 GMT
            Not After : Sep  8 19:19:22 2024 GMT
        Subject: C=US, ST=California, L=Mountain View, O=Test CA, CN=127.0.0.1
        Subject Public Key Info:
            Public Key Algorithm: rsaEncryption
            RSA Public Key: (2048 bit)
                Modulus (2048 bit):
                    00:d2:41:24:4c:b5:a5:83:ad:b9:64:5b:90:e2:d1:
                    e5:17:14:fe:ee:d0:6a:d8:d0:74:3c:98:35:d1:6b:
                    2a:81:32:9e:e4:a2:77:5b:f2:81:2c:ae:c1:cc:ca:
                    f0:45:dd:8e:21:d3:4c:a6:7a:69:1b:08:3e:83:31:
                    0e:cc:5a:f8:a4:b6:05:10:68:ec:a0:a2:44:b6:95:
                    e9:c5:e3:7c:a2:fa:a0:72:de:b3:49:e7:ac:cc:dc:
                    ce:f3:7c:af:9f:05:46:e4:c2:31:54:a4:2b:cc:bf:
                    ab:c3:e2:a6:9d:30:24:f4:2b:4d:44:eb:63:5f:35:
                    0f:c5:ec:e9:77:40:0d:3d:35:6c:88:e7:18:c3:01:
                    95:4c:c1:d4:14:96:88:66:98:fd:8e:0f:0e:a1:50:
                    d3:f9:13:e1:b6:5d:5a:8a:1c:8d:55:e1:43:3d:ca:
                    c6:31:95:9c:0a:00:68:38:1a:b7:24:ce:cd:34:d6:
                    8d:f5:11:79:64:7b:01:b3:0f:76:fd:cf:ca:73:33:
                    96:03:e4:1a:2e:98:8b:54:4d:0b:b9:62:27:8f:0d:
                    9a:2c:1f:5d:b5:6a:e4:3a:27:33:02:eb:7f:0d:30:
                    6a:6f:ea:61:c9:78:fe:7a:9f:08:7b:61:cd:b8:b2:
                    04:98:24:37:d5:f7:ce:ec:34:29:b3:bc:26:ca:6f:
                    54:53
                Exponent: 65537 (0x10001)
    Signature Algorithm: sha256WithRSAEncryption
        73:89:72:15:fa:cf:c9:6a:4d:a5:1a:66:0d:da:03:13:2e:31:
        6b:6f:df:f1:4f:dd:54:8d:bd:87:1e:e9:b1:b2:84:4a:da:8e:
        fa:76:b8:66:f0:2d:d6:f4:72:2d:55:ef:99:d4:e1:99:7c:79:
        98:b7:b9:bc:9c:f8:69:47:6d:10:03:4b:41:59:ea:84:7c:04:
        97:67:37:d4:a8:75:53:4a:f3:f9:9a:cb:bb:09:fb:dd:d7:b0:
        d5:35:48:04:f3:58:78:bc:fb:26:d7:dc:e2:bf:cb:64:22:3d:
        f7:bb:a4:5e:a3:98:5f:aa:29:46:aa:c6:a9:7c:8c:04:ac:21:
        21:97:b1:94:da:eb:ee:49:03:9d:46:e0:a0:22:e4:dd:e4:2b:
        3d:0d:0e:af:1b:59:39:41:e8:47:43:b8:58:36:82:86:c6:0e:
        d6:d3:c0:92:da:2b:a4:5a:5a:f8:4f:20:93:32:a7:74:21:13:
        9d:b7:7b:68:20:71:81:4a:1a:32:b7:5e:e7:45:de:f7:e4:04:
        dd:c1:7b:89:3e:a2:cb:47:20:fa:36:a6:bc:17:5a:19:56:97:
        1e:3c:fa:a7:fc:1e:d9:ad:dc:62:6b:ef:52:88:c8:d3:09:6c:
        6f:ff:d4:28:4b:7d:1e:9d:bb:0c:08:12:f3:f8:fd:24:35:57:
        a2:3a:26:e2
-----BEGIN CERTIFICATE-----
MIIDPDCCAiQCCQCQI7JUHRqhtDANBgkqhkiG9w0BAQsFADBgMQswCQYDVQQGEwJV
UzETMBEGA1UECAwKQ2FsaWZvcm5pYTEWMBQGA1UEBwwNTW91bnRhaW4gVmlldzEQ
MA4GA1UECgwHVGVzdCBDQTESMBAGA1UEAwwJMTI3LjAuMC4xMB4XDTE0MDkxMTE5
MTkyMloXDTI0MDkwODE5MTkyMlowYDELMAkGA1UEBhMCVVMxEzARBgNVBAgMCkNh
bGlmb3JuaWExFjAUBgNVBAcMDU1vdW50YWluIFZpZXcxEDAOBgNVBAoMB1Rlc3Qg
Q0ExEjAQBgNVBAMMCTEyNy4wLjAuMTCCASIwDQYJKoZIhvcNAQEBBQADggEPADCC
AQoCggEBANJBJEy1pYOtuWRbkOLR5RcU/u7QatjQdDyYNdFrKoEynuSid1vygSyu
wczK8EXdjiHTTKZ6aRsIPoMxDsxa+KS2BRBo7KCiRLaV6cXjfKL6oHLes0nnrMzc
zvN8r58FRuTCMVSkK8y/q8Pipp0wJPQrTUTrY181D8Xs6XdADT01bIjnGMMBlUzB
1BSWiGaY/Y4PDqFQ0/kT4bZdWoocjVXhQz3KxjGVnAoAaDgatyTOzTTWjfUReWR7
AbMPdv3PynMzlgPkGi6Yi1RNC7liJ48NmiwfXbVq5DonMwLrfw0wam/qYcl4/nqf
CHthzbiyBJgkN9X3zuw0KbO8JspvVFMCAwEAATANBgkqhkiG9w0BAQsFAAOCAQEA
c4lyFfrPyWpNpRpmDdoDEy4xa2/f8U/dVI29hx7psbKEStqO+na4ZvAt1vRyLVXv
mdThmXx5mLe5vJz4aUdtEANLQVnqhHwEl2c31Kh1U0rz+ZrLuwn73dew1TVIBPNY
eLz7Jtfc4r/LZCI997ukXqOYX6opRqrGqXyMBKwhIZexlNrr7kkDnUbgoCLk3eQr
PQ0OrxtZOUHoR0O4WDaChsYO1tPAktorpFpa+E8gkzKndCETnbd7aCBxgUoaMrde
50Xe9+QE3cF7iT6iy0cg+jamvBdaGVaXHjz6p/we2a3cYmvvUojI0wlsb//UKEt9
Hp27DAgS8/j9JDVXojom4g==
-----END CERTIFICATE-----
