Certificate:
    Data:
        Version: 3 (0x2)
        Serial Number: 1 (0x1)
        Signature Algorithm: sha256WithRSAEncryption
        Issuer: C=US, ST=California, L=Mountain View, O=Test CA, CN=Test Root CA
        Validity
            Not Before: Jun  1 00:00:00 2019 GMT
            Not After : Aug 30 00:00:00 2019 GMT
        Subject: CN=test.example.org, O=Test, C=US
        Subject Public Key Info:
            Public Key Algorithm: id-ecPublicKey
                Public-Key: (256 bit)
                pub:
                    04:c3:59:01:23:31:52:9c:c1:ce:1b:09:20:46:a0:
                    0f:38:03:e8:aa:3c:e3:65:36:52:6c:d7:01:08:49:
                    70:d7:40:49:73:f6:d7:c8:19:f3:1e:b3:a8:8a:1b:
                    ae:0b:b6:c8:30:3b:04:9e:58:28:62:1e:db:35:c7:
                    e3:15:60:ac:fb
                ASN1 OID: prime256v1
                NIST CURVE: P-256
        X509v3 extensions:
            X509v3 Basic Constraints: 
                CA:FALSE
            1.3.6.1.4.1.11129.2.1.22: 
                ..
            X509v3 Key Usage: 
                Digital Signature, Non Repudiation, Key Encipherment
            X509v3 Subject Key Identifier: 
                2C:8C:A1:2C:69:E4:1A:28:9C:2B:02:15:ED:62:9F:39:1D:49:D7:66
            X509v3 Authority Key Identifier: 
                keyid:9B:26:0B:8A:98:A9:BB:1D:B9:1F:1C:E3:1A:40:33:ED:8E:17:88:AB

            X509v3 Subject Alternative Name: 
                DNS:test.example.org
    Signature Algorithm: sha256WithRSAEncryption
         a2:b7:e4:08:a4:d6:6e:df:65:85:e4:b6:a6:d9:e8:65:c9:9e:
         43:d0:26:18:04:ca:f7:6c:c1:b7:d9:76:04:bf:4c:63:4f:ff:
         91:d4:ca:57:d0:b4:58:15:03:f8:94:2d:a0:fe:ee:60:d0:e4:
         c6:0e:3f:bd:10:50:28:43:5f:64:d2:58:4f:ed:8c:16:82:e2:
         00:94:a6:f8:91:ac:97:10:1b:62:5e:ca:62:10:f4:6f:84:31:
         14:12:b5:eb:af:e7:40:9f:54:e4:ba:21:df:ae:81:8c:59:f8:
         c7:f3:28:88:70:61:09:20:cf:93:96:70:3e:6f:be:e2:06:6c:
         40:05:bb:29:05:9d:12:6c:87:08:11:cd:1a:96:84:7e:1d:0b:
         fa:68:ce:fe:ff:e8:e5:96:cd:e4:58:eb:0f:c7:f5:40:13:18:
         12:15:68:e0:8f:14:f0:a1:e7:6b:e3:83:14:e7:f7:c6:aa:5a:
         0a:82:8b:c7:f2:76:45:f2:6d:dd:d9:a8:c8:31:43:58:ab:e1:
         67:57:69:df:bf:ae:cc:c1:bb:3d:02:b5:3f:97:87:e9:35:58:
         7b:70:49:86:33:e3:a3:09:be:78:c2:e3:a1:6b:0b:b2:17:fe:
         31:ad:4c:46:06:39:bd:37:45:d5:d0:66:2a:fc:0f:73:2e:83:
         d2:8f:19:90
-----BEGIN CERTIFICATE-----
MIIC1TCCAb2gAwIBAgIBATANBgkqhkiG9w0BAQsFADBjMQswCQYDVQQGEwJVUzET
MBEGA1UECAwKQ2FsaWZvcm5pYTEWMBQGA1UEBwwNTW91bnRhaW4gVmlldzEQMA4G
A1UECgwHVGVzdCBDQTEVMBMGA1UEAwwMVGVzdCBSb290IENBMB4XDTE5MDYwMTAw
MDAwMFoXDTE5MDgzMDAwMDAwMFowNzEZMBcGA1UEAwwQdGVzdC5leGFtcGxlLm9y
ZzENMAsGA1UECgwEVGVzdDELMAkGA1UEBhMCVVMwWTATBgcqhkjOPQIBBggqhkjO
PQMBBwNCAATDWQEjMVKcwc4bCSBGoA84A+iqPONlNlJs1wEISXDXQElz9tfIGfMe
s6iKG64LtsgwOwSeWChiHts1x+MVYKz7o4GKMIGHMAkGA1UdEwQCMAAwEAYKKwYB
BAHWeQIBFgQCBQAwCwYDVR0PBAQDAgXgMB0GA1UdDgQWBBQsjKEsaeQaKJwrAhXt
Yp85HUnXZjAfBgNVHSMEGDAWgBSbJguKmKm7HbkfHOMaQDPtjheIqzAbBgNVHREE
FDASghB0ZXN0LmV4YW1wbGUub3JnMA0GCSqGSIb3DQEBCwUAA4IBAQCit+QIpNZu
32WF5Lam2ehlyZ5D0CYYBMr3bMG32XYEv0xjT/+R1MpX0LRYFQP4lC2g/u5g0OTG
Dj+9EFAoQ19k0lhP7YwWguIAlKb4kayXEBtiXspiEPRvhDEUErXrr+dAn1TkuiHf
roGMWfjH8yiIcGEJIM+TlnA+b77iBmxABbspBZ0SbIcIEc0aloR+HQv6aM7+/+jl
ls3kWOsPx/VAExgSFWjgjxTwoedr44MU5/fGqloKgovH8nZF8m3d2ajIMUNYq+Fn
V2nfv67Mwbs9ArU/l4fpNVh7cEmGM+OjCb54wuOhawuyF/4xrUxGBjm9N0XV0GYq
/A9zLoPSjxmQ
-----END CERTIFICATE-----
