Certificate:
    Data:
        Version: 3 (0x2)
        Serial Number: 3 (0x3)
        Signature Algorithm: sha256WithRSAEncryption
        Issuer: C=US, ST=California, L=Mountain View, O=Test CA, CN=Test Root CA
        Validity
            Not Before: May  1 00:00:00 2019 GMT
            Not After : Jul 31 00:00:00 2019 GMT
        Subject: CN=test.example.org, O=Test, C=US
        Subject Public Key Info:
            Public Key Algorithm: id-ecPublicKey
                Public-Key: (256 bit)
                pub:
                    04:48:a2:35:4e:57:f1:45:7c:1d:8d:1e:f3:de:6a:
                    d0:81:01:c0:4a:87:14:92:cc:28:11:fa:bf:a4:51:
                    dc:76:48:a1:24:48:39:87:7b:8b:3e:6c:81:84:63:
                    b2:aa:f5:6f:bc:e3:d0:17:5e:14:a3:16:18:1f:21:
                    c8:b0:39:29:a9
                ASN1 OID: prime256v1
                NIST CURVE: P-256
        X509v3 extensions:
            X509v3 Basic Constraints: 
                CA:FALSE
            1.3.6.1.4.1.11129.2.1.22: 
                ..
            X509v3 Key Usage: 
                Digital Signature, Non Repudiation, Key Encipherment
            X509v3 Subject Key Identifier: 
                D5:7E:AD:00:90:91:B9:38:35:AA:28:44:DD:71:2C:96:E7:42:45:E8
            X509v3 Authority Key Identifier: 
                keyid:9B:26:0B:8A:98:A9:BB:1D:B9:1F:1C:E3:1A:40:33:ED:8E:17:88:AB

            X509v3 Subject Alternative Name: 
                DNS:test.example.org
    Signature Algorithm: sha256WithRSAEncryption
         3a:49:c4:e7:d3:a6:23:60:b5:6f:1f:74:ea:55:da:fb:1e:58:
         93:a8:20:08:2a:f7:64:49:04:b0:a4:5a:bd:e9:2f:8f:de:42:
         3c:1c:4d:db:3d:9c:05:64:35:06:26:33:24:ae:0f:93:ae:4f:
         e5:34:c6:8a:0b:17:18:a6:4c:63:bd:72:4c:5b:4a:8c:6c:19:
         12:b9:b3:ca:22:8b:59:68:1c:9b:0e:fe:64:c1:0a:96:c9:16:
         17:b9:ed:a6:45:5d:79:7a:f3:43:4b:d3:85:b6:0a:15:3c:7a:
         4a:f9:51:27:e2:4a:72:b3:a8:42:53:f6:3d:68:9a:df:0e:fd:
         a6:e8:53:a6:6b:dd:dc:9a:9d:a4:bc:6c:a5:13:19:ae:c8:83:
         27:47:6f:11:3c:28:78:d6:8e:df:f7:13:0b:69:98:9b:57:90:
         59:60:fd:5e:16:a5:8c:d8:3e:0b:2c:23:47:33:d2:2b:e8:8a:
         46:dd:a3:ac:88:43:1d:08:0d:07:e8:d3:7f:22:37:23:29:25:
         a3:01:b9:2a:3d:07:65:00:8c:23:f2:9a:f9:c0:74:f1:32:dc:
         78:f6:35:9c:c6:76:7c:40:b5:3c:9d:4b:c9:40:51:88:2f:be:
         93:10:ce:81:6e:a0:a1:1b:84:7a:a3:3d:9c:3a:02:0e:5c:45:
         d2:41:38:91
-----BEGIN CERTIFICATE-----
MIIC1TCCAb2gAwIBAgIBAzANBgkqhkiG9w0BAQsFADBjMQswCQYDVQQGEwJVUzET
MBEGA1UECAwKQ2FsaWZvcm5pYTEWMBQGA1UEBwwNTW91bnRhaW4gVmlldzEQMA4G
A1UECgwHVGVzdCBDQTEVMBMGA1UEAwwMVGVzdCBSb290IENBMB4XDTE5MDUwMTAw
MDAwMFoXDTE5MDczMTAwMDAwMFowNzEZMBcGA1UEAwwQdGVzdC5leGFtcGxlLm9y
ZzENMAsGA1UECgwEVGVzdDELMAkGA1UEBhMCVVMwWTATBgcqhkjOPQIBBggqhkjO
PQMBBwNCAARIojVOV/FFfB2NHvPeatCBAcBKhxSSzCgR+r+kUdx2SKEkSDmHe4s+
bIGEY7Kq9W+849AXXhSjFhgfIciwOSmpo4GKMIGHMAkGA1UdEwQCMAAwEAYKKwYB
BAHWeQIBFgQCBQAwCwYDVR0PBAQDAgXgMB0GA1UdDgQWBBTVfq0AkJG5ODWqKETd
cSyW50JF6DAfBgNVHSMEGDAWgBSbJguKmKm7HbkfHOMaQDPtjheIqzAbBgNVHREE
FDASghB0ZXN0LmV4YW1wbGUub3JnMA0GCSqGSIb3DQEBCwUAA4IBAQA6ScTn06Yj
YLVvH3TqVdr7HliTqCAIKvdkSQSwpFq96S+P3kI8HE3bPZwFZDUGJjMkrg+Trk/l
NMaKCxcYpkxjvXJMW0qMbBkSubPKIotZaBybDv5kwQqWyRYXue2mRV15evNDS9OF
tgoVPHpK+VEn4kpys6hCU/Y9aJrfDv2m6FOma93cmp2kvGylExmuyIMnR28RPCh4
1o7f9xMLaZibV5BZYP1eFqWM2D4LLCNHM9Ir6IpG3aOsiEMdCA0H6NN/IjcjKSWj
AbkqPQdlAIwj8pr5wHTxMtx49jWcxnZ8QLU8nUvJQFGIL76TEM6BbqChG4R6oz2c
OgIOXEXSQTiR
-----END CERTIFICATE-----
